ARM GAS  C:\Users\ep_ygh\AppData\Local\Temp\ccghijkQ.s 			page 1


   1              		.cpu cortex-m4
   2              		.arch armv7e-m
   3              		.fpu fpv4-sp-d16
   4              		.eabi_attribute 27, 1
   5              		.eabi_attribute 28, 1
   6              		.eabi_attribute 20, 1
   7              		.eabi_attribute 21, 1
   8              		.eabi_attribute 23, 3
   9              		.eabi_attribute 24, 1
  10              		.eabi_attribute 25, 1
  11              		.eabi_attribute 26, 1
  12              		.eabi_attribute 30, 6
  13              		.eabi_attribute 34, 1
  14              		.eabi_attribute 18, 4
  15              		.file	"stm32l4xx_hal_msp.c"
  16              		.text
  17              	.Ltext0:
  18              		.cfi_sections	.debug_frame
  19              		.section	.rodata.OFFSET_TAB_CCMRx,"a"
  20              		.align	2
  23              	OFFSET_TAB_CCMRx:
  24 0000 00000000 		.ascii	"\000\000\000\000\004\004\004<<"
  24      0404043C 
  24      3C
  25              		.section	.rodata.SHIFT_TAB_OCxx,"a"
  26              		.align	2
  29              	SHIFT_TAB_OCxx:
  30 0000 00000800 		.ascii	"\000\000\010\000\000\000\010\000\010"
  30      00000800 
  30      08
  31              		.section	.rodata.SHIFT_TAB_ICxx,"a"
  32              		.align	2
  35              	SHIFT_TAB_ICxx:
  36 0000 00000800 		.ascii	"\000\000\010\000\000\000\010\000\000"
  36      00000800 
  36      00
  37              		.section	.rodata.SHIFT_TAB_CCxP,"a"
  38              		.align	2
  41              	SHIFT_TAB_CCxP:
  42 0000 00020406 		.ascii	"\000\002\004\006\010\012\014\020\024"
  42      080A0C10 
  42      14
  43              		.section	.rodata.SHIFT_TAB_OISx,"a"
  44              		.align	2
  47              	SHIFT_TAB_OISx:
  48 0000 00010203 		.ascii	"\000\001\002\003\004\005\006\010\012"
  48      04050608 
  48      0A
  49              		.section	.rodata.CHANNEL_OFFSET_TAB,"a"
  50              		.align	2
  53              	CHANNEL_OFFSET_TAB:
  54 0000 081C3044 		.ascii	"\010\0340DXl\200"
  54      586C80
  55              		.section	.text.HAL_MspInit,"ax",%progbits
  56              		.align	1
  57              		.global	HAL_MspInit
  58              		.syntax unified
ARM GAS  C:\Users\ep_ygh\AppData\Local\Temp\ccghijkQ.s 			page 2


  59              		.thumb
  60              		.thumb_func
  62              	HAL_MspInit:
  63              	.LFB1090:
  64              		.file 1 "Src/stm32l4xx_hal_msp.c"
   1:Src/stm32l4xx_hal_msp.c **** 
   2:Src/stm32l4xx_hal_msp.c **** /* USER CODE BEGIN Header */
   3:Src/stm32l4xx_hal_msp.c **** /**
   4:Src/stm32l4xx_hal_msp.c ****   ******************************************************************************
   5:Src/stm32l4xx_hal_msp.c ****   * @file         stm32l4xx_hal_msp.c
   6:Src/stm32l4xx_hal_msp.c ****   * @brief        This file provides code for the MSP Initialization
   7:Src/stm32l4xx_hal_msp.c ****   *               and de-Initialization codes.
   8:Src/stm32l4xx_hal_msp.c ****   ******************************************************************************
   9:Src/stm32l4xx_hal_msp.c ****   * @attention
  10:Src/stm32l4xx_hal_msp.c ****   *
  11:Src/stm32l4xx_hal_msp.c ****   * Copyright (c) 2024 STMicroelectronics.
  12:Src/stm32l4xx_hal_msp.c ****   * All rights reserved.
  13:Src/stm32l4xx_hal_msp.c ****   *
  14:Src/stm32l4xx_hal_msp.c ****   * This software is licensed under terms that can be found in the LICENSE file
  15:Src/stm32l4xx_hal_msp.c ****   * in the root directory of this software component.
  16:Src/stm32l4xx_hal_msp.c ****   * If no LICENSE file comes with this software, it is provided AS-IS.
  17:Src/stm32l4xx_hal_msp.c ****   *
  18:Src/stm32l4xx_hal_msp.c ****   ******************************************************************************
  19:Src/stm32l4xx_hal_msp.c ****   */
  20:Src/stm32l4xx_hal_msp.c **** /* USER CODE END Header */
  21:Src/stm32l4xx_hal_msp.c **** 
  22:Src/stm32l4xx_hal_msp.c **** /* Includes ------------------------------------------------------------------*/
  23:Src/stm32l4xx_hal_msp.c **** #include "main.h"
  24:Src/stm32l4xx_hal_msp.c **** /* USER CODE BEGIN Includes */
  25:Src/stm32l4xx_hal_msp.c **** 
  26:Src/stm32l4xx_hal_msp.c **** /* USER CODE END Includes */
  27:Src/stm32l4xx_hal_msp.c **** extern DMA_HandleTypeDef hdma_adc2;
  28:Src/stm32l4xx_hal_msp.c **** 
  29:Src/stm32l4xx_hal_msp.c **** extern DMA_HandleTypeDef hdma_usart2_rx;
  30:Src/stm32l4xx_hal_msp.c **** 
  31:Src/stm32l4xx_hal_msp.c **** extern DMA_HandleTypeDef hdma_usart2_tx;
  32:Src/stm32l4xx_hal_msp.c **** 
  33:Src/stm32l4xx_hal_msp.c **** /* Private typedef -----------------------------------------------------------*/
  34:Src/stm32l4xx_hal_msp.c **** /* USER CODE BEGIN TD */
  35:Src/stm32l4xx_hal_msp.c **** 
  36:Src/stm32l4xx_hal_msp.c **** /* USER CODE END TD */
  37:Src/stm32l4xx_hal_msp.c **** 
  38:Src/stm32l4xx_hal_msp.c **** /* Private define ------------------------------------------------------------*/
  39:Src/stm32l4xx_hal_msp.c **** /* USER CODE BEGIN Define */
  40:Src/stm32l4xx_hal_msp.c **** 
  41:Src/stm32l4xx_hal_msp.c **** /* USER CODE END Define */
  42:Src/stm32l4xx_hal_msp.c **** 
  43:Src/stm32l4xx_hal_msp.c **** /* Private macro -------------------------------------------------------------*/
  44:Src/stm32l4xx_hal_msp.c **** /* USER CODE BEGIN Macro */
  45:Src/stm32l4xx_hal_msp.c **** 
  46:Src/stm32l4xx_hal_msp.c **** /* USER CODE END Macro */
  47:Src/stm32l4xx_hal_msp.c **** 
  48:Src/stm32l4xx_hal_msp.c **** /* Private variables ---------------------------------------------------------*/
  49:Src/stm32l4xx_hal_msp.c **** /* USER CODE BEGIN PV */
  50:Src/stm32l4xx_hal_msp.c **** 
  51:Src/stm32l4xx_hal_msp.c **** /* USER CODE END PV */
  52:Src/stm32l4xx_hal_msp.c **** 
ARM GAS  C:\Users\ep_ygh\AppData\Local\Temp\ccghijkQ.s 			page 3


  53:Src/stm32l4xx_hal_msp.c **** /* Private function prototypes -----------------------------------------------*/
  54:Src/stm32l4xx_hal_msp.c **** /* USER CODE BEGIN PFP */
  55:Src/stm32l4xx_hal_msp.c **** 
  56:Src/stm32l4xx_hal_msp.c **** /* USER CODE END PFP */
  57:Src/stm32l4xx_hal_msp.c **** 
  58:Src/stm32l4xx_hal_msp.c **** /* External functions --------------------------------------------------------*/
  59:Src/stm32l4xx_hal_msp.c **** /* USER CODE BEGIN ExternalFunctions */
  60:Src/stm32l4xx_hal_msp.c **** 
  61:Src/stm32l4xx_hal_msp.c **** /* USER CODE END ExternalFunctions */
  62:Src/stm32l4xx_hal_msp.c **** 
  63:Src/stm32l4xx_hal_msp.c **** /* USER CODE BEGIN 0 */
  64:Src/stm32l4xx_hal_msp.c **** 
  65:Src/stm32l4xx_hal_msp.c **** /* USER CODE END 0 */
  66:Src/stm32l4xx_hal_msp.c **** 
  67:Src/stm32l4xx_hal_msp.c **** void HAL_TIM_MspPostInit(TIM_HandleTypeDef *htim);
  68:Src/stm32l4xx_hal_msp.c ****                     /**
  69:Src/stm32l4xx_hal_msp.c ****   * Initializes the Global MSP.
  70:Src/stm32l4xx_hal_msp.c ****   */
  71:Src/stm32l4xx_hal_msp.c **** void HAL_MspInit(void)
  72:Src/stm32l4xx_hal_msp.c **** {
  65              		.loc 1 72 1
  66              		.cfi_startproc
  67              		@ args = 0, pretend = 0, frame = 8
  68              		@ frame_needed = 1, uses_anonymous_args = 0
  69 0000 80B5     		push	{r7, lr}
  70              	.LCFI0:
  71              		.cfi_def_cfa_offset 8
  72              		.cfi_offset 7, -8
  73              		.cfi_offset 14, -4
  74 0002 82B0     		sub	sp, sp, #8
  75              	.LCFI1:
  76              		.cfi_def_cfa_offset 16
  77 0004 00AF     		add	r7, sp, #0
  78              	.LCFI2:
  79              		.cfi_def_cfa_register 7
  80              	.LBB2:
  73:Src/stm32l4xx_hal_msp.c **** 
  74:Src/stm32l4xx_hal_msp.c ****   /* USER CODE BEGIN MspInit 0 */
  75:Src/stm32l4xx_hal_msp.c **** 
  76:Src/stm32l4xx_hal_msp.c ****   /* USER CODE END MspInit 0 */
  77:Src/stm32l4xx_hal_msp.c **** 
  78:Src/stm32l4xx_hal_msp.c ****   __HAL_RCC_SYSCFG_CLK_ENABLE();
  81              		.loc 1 78 3
  82 0006 114B     		ldr	r3, .L2
  83 0008 1B6E     		ldr	r3, [r3, #96]
  84 000a 104A     		ldr	r2, .L2
  85 000c 43F00103 		orr	r3, r3, #1
  86 0010 1366     		str	r3, [r2, #96]
  87 0012 0E4B     		ldr	r3, .L2
  88 0014 1B6E     		ldr	r3, [r3, #96]
  89 0016 03F00103 		and	r3, r3, #1
  90 001a 7B60     		str	r3, [r7, #4]
  91 001c 7B68     		ldr	r3, [r7, #4]
  92              	.LBE2:
  93              	.LBB3:
  79:Src/stm32l4xx_hal_msp.c ****   __HAL_RCC_PWR_CLK_ENABLE();
  94              		.loc 1 79 3
ARM GAS  C:\Users\ep_ygh\AppData\Local\Temp\ccghijkQ.s 			page 4


  95 001e 0B4B     		ldr	r3, .L2
  96 0020 9B6D     		ldr	r3, [r3, #88]
  97 0022 0A4A     		ldr	r2, .L2
  98 0024 43F08053 		orr	r3, r3, #268435456
  99 0028 9365     		str	r3, [r2, #88]
 100 002a 084B     		ldr	r3, .L2
 101 002c 9B6D     		ldr	r3, [r3, #88]
 102 002e 03F08053 		and	r3, r3, #268435456
 103 0032 3B60     		str	r3, [r7]
 104 0034 3B68     		ldr	r3, [r7]
 105              	.LBE3:
  80:Src/stm32l4xx_hal_msp.c **** 
  81:Src/stm32l4xx_hal_msp.c ****   /* System interrupt init*/
  82:Src/stm32l4xx_hal_msp.c ****   /* PendSV_IRQn interrupt configuration */
  83:Src/stm32l4xx_hal_msp.c ****   HAL_NVIC_SetPriority(PendSV_IRQn, 15, 0);
 106              		.loc 1 83 3
 107 0036 0022     		movs	r2, #0
 108 0038 0F21     		movs	r1, #15
 109 003a 6FF00100 		mvn	r0, #1
 110 003e FFF7FEFF 		bl	HAL_NVIC_SetPriority
  84:Src/stm32l4xx_hal_msp.c **** 
  85:Src/stm32l4xx_hal_msp.c ****   /* USER CODE BEGIN MspInit 1 */
  86:Src/stm32l4xx_hal_msp.c **** 
  87:Src/stm32l4xx_hal_msp.c ****   /* USER CODE END MspInit 1 */
  88:Src/stm32l4xx_hal_msp.c **** }
 111              		.loc 1 88 1
 112 0042 00BF     		nop
 113 0044 0837     		adds	r7, r7, #8
 114              	.LCFI3:
 115              		.cfi_def_cfa_offset 8
 116 0046 BD46     		mov	sp, r7
 117              	.LCFI4:
 118              		.cfi_def_cfa_register 13
 119              		@ sp needed
 120 0048 80BD     		pop	{r7, pc}
 121              	.L3:
 122 004a 00BF     		.align	2
 123              	.L2:
 124 004c 00100240 		.word	1073876992
 125              		.cfi_endproc
 126              	.LFE1090:
 128              		.section	.bss.HAL_RCC_ADC_CLK_ENABLED,"aw",%nobits
 129              		.align	2
 132              	HAL_RCC_ADC_CLK_ENABLED:
 133 0000 00000000 		.space	4
 134              		.section	.text.HAL_ADC_MspInit,"ax",%progbits
 135              		.align	1
 136              		.global	HAL_ADC_MspInit
 137              		.syntax unified
 138              		.thumb
 139              		.thumb_func
 141              	HAL_ADC_MspInit:
 142              	.LFB1091:
  89:Src/stm32l4xx_hal_msp.c **** 
  90:Src/stm32l4xx_hal_msp.c **** static uint32_t HAL_RCC_ADC_CLK_ENABLED=0;
  91:Src/stm32l4xx_hal_msp.c **** 
  92:Src/stm32l4xx_hal_msp.c **** /**
ARM GAS  C:\Users\ep_ygh\AppData\Local\Temp\ccghijkQ.s 			page 5


  93:Src/stm32l4xx_hal_msp.c **** * @brief ADC MSP Initialization
  94:Src/stm32l4xx_hal_msp.c **** * This function configures the hardware resources used in this example
  95:Src/stm32l4xx_hal_msp.c **** * @param hadc: ADC handle pointer
  96:Src/stm32l4xx_hal_msp.c **** * @retval None
  97:Src/stm32l4xx_hal_msp.c **** */
  98:Src/stm32l4xx_hal_msp.c **** void HAL_ADC_MspInit(ADC_HandleTypeDef* hadc)
  99:Src/stm32l4xx_hal_msp.c **** {
 143              		.loc 1 99 1
 144              		.cfi_startproc
 145              		@ args = 0, pretend = 0, frame = 192
 146              		@ frame_needed = 1, uses_anonymous_args = 0
 147 0000 80B5     		push	{r7, lr}
 148              	.LCFI5:
 149              		.cfi_def_cfa_offset 8
 150              		.cfi_offset 7, -8
 151              		.cfi_offset 14, -4
 152 0002 B0B0     		sub	sp, sp, #192
 153              	.LCFI6:
 154              		.cfi_def_cfa_offset 200
 155 0004 00AF     		add	r7, sp, #0
 156              	.LCFI7:
 157              		.cfi_def_cfa_register 7
 158 0006 7860     		str	r0, [r7, #4]
 100:Src/stm32l4xx_hal_msp.c ****   GPIO_InitTypeDef GPIO_InitStruct = {0};
 159              		.loc 1 100 20
 160 0008 07F1AC03 		add	r3, r7, #172
 161 000c 0022     		movs	r2, #0
 162 000e 1A60     		str	r2, [r3]
 163 0010 5A60     		str	r2, [r3, #4]
 164 0012 9A60     		str	r2, [r3, #8]
 165 0014 DA60     		str	r2, [r3, #12]
 166 0016 1A61     		str	r2, [r3, #16]
 101:Src/stm32l4xx_hal_msp.c ****   RCC_PeriphCLKInitTypeDef PeriphClkInit = {0};
 167              		.loc 1 101 28
 168 0018 07F12403 		add	r3, r7, #36
 169 001c 8822     		movs	r2, #136
 170 001e 0021     		movs	r1, #0
 171 0020 1846     		mov	r0, r3
 172 0022 FFF7FEFF 		bl	memset
 102:Src/stm32l4xx_hal_msp.c ****   if(hadc->Instance==ADC1)
 173              		.loc 1 102 10
 174 0026 7B68     		ldr	r3, [r7, #4]
 175 0028 1B68     		ldr	r3, [r3]
 176              		.loc 1 102 5
 177 002a 784A     		ldr	r2, .L13
 178 002c 9342     		cmp	r3, r2
 179 002e 78D1     		bne	.L5
 103:Src/stm32l4xx_hal_msp.c ****   {
 104:Src/stm32l4xx_hal_msp.c ****   /* USER CODE BEGIN ADC1_MspInit 0 */
 105:Src/stm32l4xx_hal_msp.c **** 
 106:Src/stm32l4xx_hal_msp.c ****   /* USER CODE END ADC1_MspInit 0 */
 107:Src/stm32l4xx_hal_msp.c **** 
 108:Src/stm32l4xx_hal_msp.c ****   /** Initializes the peripherals clock
 109:Src/stm32l4xx_hal_msp.c ****   */
 110:Src/stm32l4xx_hal_msp.c ****     PeriphClkInit.PeriphClockSelection = RCC_PERIPHCLK_ADC;
 180              		.loc 1 110 40
 181 0030 4FF48043 		mov	r3, #16384
ARM GAS  C:\Users\ep_ygh\AppData\Local\Temp\ccghijkQ.s 			page 6


 182 0034 7B62     		str	r3, [r7, #36]
 111:Src/stm32l4xx_hal_msp.c ****     PeriphClkInit.AdcClockSelection = RCC_ADCCLKSOURCE_SYSCLK;
 183              		.loc 1 111 37
 184 0036 4FF04053 		mov	r3, #805306368
 185 003a C7F89C30 		str	r3, [r7, #156]
 112:Src/stm32l4xx_hal_msp.c ****     if (HAL_RCCEx_PeriphCLKConfig(&PeriphClkInit) != HAL_OK)
 186              		.loc 1 112 9
 187 003e 07F12403 		add	r3, r7, #36
 188 0042 1846     		mov	r0, r3
 189 0044 FFF7FEFF 		bl	HAL_RCCEx_PeriphCLKConfig
 190 0048 0346     		mov	r3, r0
 191              		.loc 1 112 8
 192 004a 002B     		cmp	r3, #0
 193 004c 01D0     		beq	.L6
 113:Src/stm32l4xx_hal_msp.c ****     {
 114:Src/stm32l4xx_hal_msp.c ****       Error_Handler();
 194              		.loc 1 114 7
 195 004e FFF7FEFF 		bl	Error_Handler
 196              	.L6:
 115:Src/stm32l4xx_hal_msp.c ****     }
 116:Src/stm32l4xx_hal_msp.c **** 
 117:Src/stm32l4xx_hal_msp.c ****     /* Peripheral clock enable */
 118:Src/stm32l4xx_hal_msp.c ****     HAL_RCC_ADC_CLK_ENABLED++;
 197              		.loc 1 118 28
 198 0052 6F4B     		ldr	r3, .L13+4
 199 0054 1B68     		ldr	r3, [r3]
 200 0056 0133     		adds	r3, r3, #1
 201 0058 6D4A     		ldr	r2, .L13+4
 202 005a 1360     		str	r3, [r2]
 119:Src/stm32l4xx_hal_msp.c ****     if(HAL_RCC_ADC_CLK_ENABLED==1){
 203              		.loc 1 119 31
 204 005c 6C4B     		ldr	r3, .L13+4
 205 005e 1B68     		ldr	r3, [r3]
 206              		.loc 1 119 7
 207 0060 012B     		cmp	r3, #1
 208 0062 0BD1     		bne	.L7
 209              	.LBB4:
 120:Src/stm32l4xx_hal_msp.c ****       __HAL_RCC_ADC_CLK_ENABLE();
 210              		.loc 1 120 7
 211 0064 6B4B     		ldr	r3, .L13+8
 212 0066 DB6C     		ldr	r3, [r3, #76]
 213 0068 6A4A     		ldr	r2, .L13+8
 214 006a 43F40053 		orr	r3, r3, #8192
 215 006e D364     		str	r3, [r2, #76]
 216 0070 684B     		ldr	r3, .L13+8
 217 0072 DB6C     		ldr	r3, [r3, #76]
 218 0074 03F40053 		and	r3, r3, #8192
 219 0078 3B62     		str	r3, [r7, #32]
 220 007a 3B6A     		ldr	r3, [r7, #32]
 221              	.L7:
 222              	.LBE4:
 223              	.LBB5:
 121:Src/stm32l4xx_hal_msp.c ****     }
 122:Src/stm32l4xx_hal_msp.c **** 
 123:Src/stm32l4xx_hal_msp.c ****     __HAL_RCC_GPIOA_CLK_ENABLE();
 224              		.loc 1 123 5
 225 007c 654B     		ldr	r3, .L13+8
ARM GAS  C:\Users\ep_ygh\AppData\Local\Temp\ccghijkQ.s 			page 7


 226 007e DB6C     		ldr	r3, [r3, #76]
 227 0080 644A     		ldr	r2, .L13+8
 228 0082 43F00103 		orr	r3, r3, #1
 229 0086 D364     		str	r3, [r2, #76]
 230 0088 624B     		ldr	r3, .L13+8
 231 008a DB6C     		ldr	r3, [r3, #76]
 232 008c 03F00103 		and	r3, r3, #1
 233 0090 FB61     		str	r3, [r7, #28]
 234 0092 FB69     		ldr	r3, [r7, #28]
 235              	.LBE5:
 236              	.LBB6:
 124:Src/stm32l4xx_hal_msp.c ****     __HAL_RCC_GPIOC_CLK_ENABLE();
 237              		.loc 1 124 5
 238 0094 5F4B     		ldr	r3, .L13+8
 239 0096 DB6C     		ldr	r3, [r3, #76]
 240 0098 5E4A     		ldr	r2, .L13+8
 241 009a 43F00403 		orr	r3, r3, #4
 242 009e D364     		str	r3, [r2, #76]
 243 00a0 5C4B     		ldr	r3, .L13+8
 244 00a2 DB6C     		ldr	r3, [r3, #76]
 245 00a4 03F00403 		and	r3, r3, #4
 246 00a8 BB61     		str	r3, [r7, #24]
 247 00aa BB69     		ldr	r3, [r7, #24]
 248              	.LBE6:
 249              	.LBB7:
 125:Src/stm32l4xx_hal_msp.c ****     __HAL_RCC_GPIOB_CLK_ENABLE();
 250              		.loc 1 125 5
 251 00ac 594B     		ldr	r3, .L13+8
 252 00ae DB6C     		ldr	r3, [r3, #76]
 253 00b0 584A     		ldr	r2, .L13+8
 254 00b2 43F00203 		orr	r3, r3, #2
 255 00b6 D364     		str	r3, [r2, #76]
 256 00b8 564B     		ldr	r3, .L13+8
 257 00ba DB6C     		ldr	r3, [r3, #76]
 258 00bc 03F00203 		and	r3, r3, #2
 259 00c0 7B61     		str	r3, [r7, #20]
 260 00c2 7B69     		ldr	r3, [r7, #20]
 261              	.LBE7:
 126:Src/stm32l4xx_hal_msp.c ****     /**ADC1 GPIO Configuration
 127:Src/stm32l4xx_hal_msp.c ****     PA0     ------> ADC1_IN5
 128:Src/stm32l4xx_hal_msp.c ****     PA1     ------> ADC1_IN6
 129:Src/stm32l4xx_hal_msp.c ****     PC4     ------> ADC1_IN13
 130:Src/stm32l4xx_hal_msp.c ****     PB0     ------> ADC1_IN15
 131:Src/stm32l4xx_hal_msp.c ****     PB1     ------> ADC1_IN16
 132:Src/stm32l4xx_hal_msp.c ****     */
 133:Src/stm32l4xx_hal_msp.c ****     GPIO_InitStruct.Pin = M1_BUS_VOLTAGE_Pin|M1_CURR_AMPL_U_Pin;
 262              		.loc 1 133 25
 263 00c4 0323     		movs	r3, #3
 264 00c6 C7F8AC30 		str	r3, [r7, #172]
 134:Src/stm32l4xx_hal_msp.c ****     GPIO_InitStruct.Mode = GPIO_MODE_ANALOG_ADC_CONTROL;
 265              		.loc 1 134 26
 266 00ca 0B23     		movs	r3, #11
 267 00cc C7F8B030 		str	r3, [r7, #176]
 135:Src/stm32l4xx_hal_msp.c ****     GPIO_InitStruct.Pull = GPIO_NOPULL;
 268              		.loc 1 135 26
 269 00d0 0023     		movs	r3, #0
 270 00d2 C7F8B430 		str	r3, [r7, #180]
ARM GAS  C:\Users\ep_ygh\AppData\Local\Temp\ccghijkQ.s 			page 8


 136:Src/stm32l4xx_hal_msp.c ****     HAL_GPIO_Init(GPIOA, &GPIO_InitStruct);
 271              		.loc 1 136 5
 272 00d6 07F1AC03 		add	r3, r7, #172
 273 00da 1946     		mov	r1, r3
 274 00dc 4FF09040 		mov	r0, #1207959552
 275 00e0 FFF7FEFF 		bl	HAL_GPIO_Init
 137:Src/stm32l4xx_hal_msp.c **** 
 138:Src/stm32l4xx_hal_msp.c ****     GPIO_InitStruct.Pin = M1_TEMPERATURE_Pin;
 276              		.loc 1 138 25
 277 00e4 1023     		movs	r3, #16
 278 00e6 C7F8AC30 		str	r3, [r7, #172]
 139:Src/stm32l4xx_hal_msp.c ****     GPIO_InitStruct.Mode = GPIO_MODE_ANALOG_ADC_CONTROL;
 279              		.loc 1 139 26
 280 00ea 0B23     		movs	r3, #11
 281 00ec C7F8B030 		str	r3, [r7, #176]
 140:Src/stm32l4xx_hal_msp.c ****     GPIO_InitStruct.Pull = GPIO_NOPULL;
 282              		.loc 1 140 26
 283 00f0 0023     		movs	r3, #0
 284 00f2 C7F8B430 		str	r3, [r7, #180]
 141:Src/stm32l4xx_hal_msp.c ****     HAL_GPIO_Init(M1_TEMPERATURE_GPIO_Port, &GPIO_InitStruct);
 285              		.loc 1 141 5
 286 00f6 07F1AC03 		add	r3, r7, #172
 287 00fa 1946     		mov	r1, r3
 288 00fc 4648     		ldr	r0, .L13+12
 289 00fe FFF7FEFF 		bl	HAL_GPIO_Init
 142:Src/stm32l4xx_hal_msp.c **** 
 143:Src/stm32l4xx_hal_msp.c ****     GPIO_InitStruct.Pin = M1_CURR_AMPL_W_Pin|M1_CURR_AMPL_V_Pin;
 290              		.loc 1 143 25
 291 0102 0323     		movs	r3, #3
 292 0104 C7F8AC30 		str	r3, [r7, #172]
 144:Src/stm32l4xx_hal_msp.c ****     GPIO_InitStruct.Mode = GPIO_MODE_ANALOG_ADC_CONTROL;
 293              		.loc 1 144 26
 294 0108 0B23     		movs	r3, #11
 295 010a C7F8B030 		str	r3, [r7, #176]
 145:Src/stm32l4xx_hal_msp.c ****     GPIO_InitStruct.Pull = GPIO_NOPULL;
 296              		.loc 1 145 26
 297 010e 0023     		movs	r3, #0
 298 0110 C7F8B430 		str	r3, [r7, #180]
 146:Src/stm32l4xx_hal_msp.c ****     HAL_GPIO_Init(GPIOB, &GPIO_InitStruct);
 299              		.loc 1 146 5
 300 0114 07F1AC03 		add	r3, r7, #172
 301 0118 1946     		mov	r1, r3
 302 011a 4048     		ldr	r0, .L13+16
 303 011c FFF7FEFF 		bl	HAL_GPIO_Init
 147:Src/stm32l4xx_hal_msp.c **** 
 148:Src/stm32l4xx_hal_msp.c ****   /* USER CODE BEGIN ADC1_MspInit 1 */
 149:Src/stm32l4xx_hal_msp.c **** 
 150:Src/stm32l4xx_hal_msp.c ****   /* USER CODE END ADC1_MspInit 1 */
 151:Src/stm32l4xx_hal_msp.c ****   }
 152:Src/stm32l4xx_hal_msp.c ****   else if(hadc->Instance==ADC2)
 153:Src/stm32l4xx_hal_msp.c ****   {
 154:Src/stm32l4xx_hal_msp.c ****   /* USER CODE BEGIN ADC2_MspInit 0 */
 155:Src/stm32l4xx_hal_msp.c **** 
 156:Src/stm32l4xx_hal_msp.c ****   /* USER CODE END ADC2_MspInit 0 */
 157:Src/stm32l4xx_hal_msp.c **** 
 158:Src/stm32l4xx_hal_msp.c ****   /** Initializes the peripherals clock
 159:Src/stm32l4xx_hal_msp.c ****   */
ARM GAS  C:\Users\ep_ygh\AppData\Local\Temp\ccghijkQ.s 			page 9


 160:Src/stm32l4xx_hal_msp.c ****     PeriphClkInit.PeriphClockSelection = RCC_PERIPHCLK_ADC;
 161:Src/stm32l4xx_hal_msp.c ****     PeriphClkInit.AdcClockSelection = RCC_ADCCLKSOURCE_SYSCLK;
 162:Src/stm32l4xx_hal_msp.c ****     if (HAL_RCCEx_PeriphCLKConfig(&PeriphClkInit) != HAL_OK)
 163:Src/stm32l4xx_hal_msp.c ****     {
 164:Src/stm32l4xx_hal_msp.c ****       Error_Handler();
 165:Src/stm32l4xx_hal_msp.c ****     }
 166:Src/stm32l4xx_hal_msp.c **** 
 167:Src/stm32l4xx_hal_msp.c ****     /* Peripheral clock enable */
 168:Src/stm32l4xx_hal_msp.c ****     HAL_RCC_ADC_CLK_ENABLED++;
 169:Src/stm32l4xx_hal_msp.c ****     if(HAL_RCC_ADC_CLK_ENABLED==1){
 170:Src/stm32l4xx_hal_msp.c ****       __HAL_RCC_ADC_CLK_ENABLE();
 171:Src/stm32l4xx_hal_msp.c ****     }
 172:Src/stm32l4xx_hal_msp.c **** 
 173:Src/stm32l4xx_hal_msp.c ****     __HAL_RCC_GPIOC_CLK_ENABLE();
 174:Src/stm32l4xx_hal_msp.c ****     /**ADC2 GPIO Configuration
 175:Src/stm32l4xx_hal_msp.c ****     PC0     ------> ADC2_IN1
 176:Src/stm32l4xx_hal_msp.c ****     PC1     ------> ADC2_IN2
 177:Src/stm32l4xx_hal_msp.c ****     PC2     ------> ADC2_IN3
 178:Src/stm32l4xx_hal_msp.c ****     */
 179:Src/stm32l4xx_hal_msp.c ****     GPIO_InitStruct.Pin = HALL_H1_Pin|HALL_H2_Pin|HALL_H3_Pin;
 180:Src/stm32l4xx_hal_msp.c ****     GPIO_InitStruct.Mode = GPIO_MODE_ANALOG_ADC_CONTROL;
 181:Src/stm32l4xx_hal_msp.c ****     GPIO_InitStruct.Pull = GPIO_NOPULL;
 182:Src/stm32l4xx_hal_msp.c ****     HAL_GPIO_Init(GPIOC, &GPIO_InitStruct);
 183:Src/stm32l4xx_hal_msp.c **** 
 184:Src/stm32l4xx_hal_msp.c ****     /* ADC2 DMA Init */
 185:Src/stm32l4xx_hal_msp.c ****     /* ADC2 Init */
 186:Src/stm32l4xx_hal_msp.c ****     hdma_adc2.Instance = DMA1_Channel2;
 187:Src/stm32l4xx_hal_msp.c ****     hdma_adc2.Init.Request = DMA_REQUEST_0;
 188:Src/stm32l4xx_hal_msp.c ****     hdma_adc2.Init.Direction = DMA_PERIPH_TO_MEMORY;
 189:Src/stm32l4xx_hal_msp.c ****     hdma_adc2.Init.PeriphInc = DMA_PINC_DISABLE;
 190:Src/stm32l4xx_hal_msp.c ****     hdma_adc2.Init.MemInc = DMA_MINC_ENABLE;
 191:Src/stm32l4xx_hal_msp.c ****     hdma_adc2.Init.PeriphDataAlignment = DMA_PDATAALIGN_HALFWORD ; //DMA_PDATAALIGN_HALFWORD;
 192:Src/stm32l4xx_hal_msp.c ****     hdma_adc2.Init.MemDataAlignment = DMA_MDATAALIGN_WORD ;//DATAALIGN_HALFWORD; 
 193:Src/stm32l4xx_hal_msp.c ****     hdma_adc2.Init.Mode = DMA_CIRCULAR;
 194:Src/stm32l4xx_hal_msp.c ****     hdma_adc2.Init.Priority = DMA_PRIORITY_LOW;
 195:Src/stm32l4xx_hal_msp.c ****     if (HAL_DMA_Init(&hdma_adc2) != HAL_OK)
 196:Src/stm32l4xx_hal_msp.c ****     {
 197:Src/stm32l4xx_hal_msp.c ****       Error_Handler();
 198:Src/stm32l4xx_hal_msp.c ****     }
 199:Src/stm32l4xx_hal_msp.c **** 
 200:Src/stm32l4xx_hal_msp.c ****     __HAL_LINKDMA(hadc,DMA_Handle,hdma_adc2);
 201:Src/stm32l4xx_hal_msp.c **** 
 202:Src/stm32l4xx_hal_msp.c ****   /* USER CODE BEGIN ADC2_MspInit 1 */
 203:Src/stm32l4xx_hal_msp.c **** 
 204:Src/stm32l4xx_hal_msp.c ****   /* USER CODE END ADC2_MspInit 1 */
 205:Src/stm32l4xx_hal_msp.c ****   }
 206:Src/stm32l4xx_hal_msp.c **** 
 207:Src/stm32l4xx_hal_msp.c **** }
 304              		.loc 1 207 1
 305 0120 70E0     		b	.L12
 306              	.L5:
 152:Src/stm32l4xx_hal_msp.c ****   {
 307              		.loc 1 152 15
 308 0122 7B68     		ldr	r3, [r7, #4]
 309 0124 1B68     		ldr	r3, [r3]
 152:Src/stm32l4xx_hal_msp.c ****   {
 310              		.loc 1 152 10
ARM GAS  C:\Users\ep_ygh\AppData\Local\Temp\ccghijkQ.s 			page 10


 311 0126 3E4A     		ldr	r2, .L13+20
 312 0128 9342     		cmp	r3, r2
 313 012a 6BD1     		bne	.L12
 160:Src/stm32l4xx_hal_msp.c ****     PeriphClkInit.AdcClockSelection = RCC_ADCCLKSOURCE_SYSCLK;
 314              		.loc 1 160 40
 315 012c 4FF48043 		mov	r3, #16384
 316 0130 7B62     		str	r3, [r7, #36]
 161:Src/stm32l4xx_hal_msp.c ****     if (HAL_RCCEx_PeriphCLKConfig(&PeriphClkInit) != HAL_OK)
 317              		.loc 1 161 37
 318 0132 4FF04053 		mov	r3, #805306368
 319 0136 C7F89C30 		str	r3, [r7, #156]
 162:Src/stm32l4xx_hal_msp.c ****     {
 320              		.loc 1 162 9
 321 013a 07F12403 		add	r3, r7, #36
 322 013e 1846     		mov	r0, r3
 323 0140 FFF7FEFF 		bl	HAL_RCCEx_PeriphCLKConfig
 324 0144 0346     		mov	r3, r0
 162:Src/stm32l4xx_hal_msp.c ****     {
 325              		.loc 1 162 8
 326 0146 002B     		cmp	r3, #0
 327 0148 01D0     		beq	.L9
 164:Src/stm32l4xx_hal_msp.c ****     }
 328              		.loc 1 164 7
 329 014a FFF7FEFF 		bl	Error_Handler
 330              	.L9:
 168:Src/stm32l4xx_hal_msp.c ****     if(HAL_RCC_ADC_CLK_ENABLED==1){
 331              		.loc 1 168 28
 332 014e 304B     		ldr	r3, .L13+4
 333 0150 1B68     		ldr	r3, [r3]
 334 0152 0133     		adds	r3, r3, #1
 335 0154 2E4A     		ldr	r2, .L13+4
 336 0156 1360     		str	r3, [r2]
 169:Src/stm32l4xx_hal_msp.c ****       __HAL_RCC_ADC_CLK_ENABLE();
 337              		.loc 1 169 31
 338 0158 2D4B     		ldr	r3, .L13+4
 339 015a 1B68     		ldr	r3, [r3]
 169:Src/stm32l4xx_hal_msp.c ****       __HAL_RCC_ADC_CLK_ENABLE();
 340              		.loc 1 169 7
 341 015c 012B     		cmp	r3, #1
 342 015e 0BD1     		bne	.L10
 343              	.LBB8:
 170:Src/stm32l4xx_hal_msp.c ****     }
 344              		.loc 1 170 7
 345 0160 2C4B     		ldr	r3, .L13+8
 346 0162 DB6C     		ldr	r3, [r3, #76]
 347 0164 2B4A     		ldr	r2, .L13+8
 348 0166 43F40053 		orr	r3, r3, #8192
 349 016a D364     		str	r3, [r2, #76]
 350 016c 294B     		ldr	r3, .L13+8
 351 016e DB6C     		ldr	r3, [r3, #76]
 352 0170 03F40053 		and	r3, r3, #8192
 353 0174 3B61     		str	r3, [r7, #16]
 354 0176 3B69     		ldr	r3, [r7, #16]
 355              	.L10:
 356              	.LBE8:
 357              	.LBB9:
 173:Src/stm32l4xx_hal_msp.c ****     /**ADC2 GPIO Configuration
ARM GAS  C:\Users\ep_ygh\AppData\Local\Temp\ccghijkQ.s 			page 11


 358              		.loc 1 173 5
 359 0178 264B     		ldr	r3, .L13+8
 360 017a DB6C     		ldr	r3, [r3, #76]
 361 017c 254A     		ldr	r2, .L13+8
 362 017e 43F00403 		orr	r3, r3, #4
 363 0182 D364     		str	r3, [r2, #76]
 364 0184 234B     		ldr	r3, .L13+8
 365 0186 DB6C     		ldr	r3, [r3, #76]
 366 0188 03F00403 		and	r3, r3, #4
 367 018c FB60     		str	r3, [r7, #12]
 368 018e FB68     		ldr	r3, [r7, #12]
 369              	.LBE9:
 179:Src/stm32l4xx_hal_msp.c ****     GPIO_InitStruct.Mode = GPIO_MODE_ANALOG_ADC_CONTROL;
 370              		.loc 1 179 25
 371 0190 0723     		movs	r3, #7
 372 0192 C7F8AC30 		str	r3, [r7, #172]
 180:Src/stm32l4xx_hal_msp.c ****     GPIO_InitStruct.Pull = GPIO_NOPULL;
 373              		.loc 1 180 26
 374 0196 0B23     		movs	r3, #11
 375 0198 C7F8B030 		str	r3, [r7, #176]
 181:Src/stm32l4xx_hal_msp.c ****     HAL_GPIO_Init(GPIOC, &GPIO_InitStruct);
 376              		.loc 1 181 26
 377 019c 0023     		movs	r3, #0
 378 019e C7F8B430 		str	r3, [r7, #180]
 182:Src/stm32l4xx_hal_msp.c **** 
 379              		.loc 1 182 5
 380 01a2 07F1AC03 		add	r3, r7, #172
 381 01a6 1946     		mov	r1, r3
 382 01a8 1B48     		ldr	r0, .L13+12
 383 01aa FFF7FEFF 		bl	HAL_GPIO_Init
 186:Src/stm32l4xx_hal_msp.c ****     hdma_adc2.Init.Request = DMA_REQUEST_0;
 384              		.loc 1 186 24
 385 01ae 1D4B     		ldr	r3, .L13+24
 386 01b0 1D4A     		ldr	r2, .L13+28
 387 01b2 1A60     		str	r2, [r3]
 187:Src/stm32l4xx_hal_msp.c ****     hdma_adc2.Init.Direction = DMA_PERIPH_TO_MEMORY;
 388              		.loc 1 187 28
 389 01b4 1B4B     		ldr	r3, .L13+24
 390 01b6 0022     		movs	r2, #0
 391 01b8 5A60     		str	r2, [r3, #4]
 188:Src/stm32l4xx_hal_msp.c ****     hdma_adc2.Init.PeriphInc = DMA_PINC_DISABLE;
 392              		.loc 1 188 30
 393 01ba 1A4B     		ldr	r3, .L13+24
 394 01bc 0022     		movs	r2, #0
 395 01be 9A60     		str	r2, [r3, #8]
 189:Src/stm32l4xx_hal_msp.c ****     hdma_adc2.Init.MemInc = DMA_MINC_ENABLE;
 396              		.loc 1 189 30
 397 01c0 184B     		ldr	r3, .L13+24
 398 01c2 0022     		movs	r2, #0
 399 01c4 DA60     		str	r2, [r3, #12]
 190:Src/stm32l4xx_hal_msp.c ****     hdma_adc2.Init.PeriphDataAlignment = DMA_PDATAALIGN_HALFWORD ; //DMA_PDATAALIGN_HALFWORD;
 400              		.loc 1 190 27
 401 01c6 174B     		ldr	r3, .L13+24
 402 01c8 8022     		movs	r2, #128
 403 01ca 1A61     		str	r2, [r3, #16]
 191:Src/stm32l4xx_hal_msp.c ****     hdma_adc2.Init.MemDataAlignment = DMA_MDATAALIGN_WORD ;//DATAALIGN_HALFWORD; 
 404              		.loc 1 191 40
ARM GAS  C:\Users\ep_ygh\AppData\Local\Temp\ccghijkQ.s 			page 12


 405 01cc 154B     		ldr	r3, .L13+24
 406 01ce 4FF48072 		mov	r2, #256
 407 01d2 5A61     		str	r2, [r3, #20]
 192:Src/stm32l4xx_hal_msp.c ****     hdma_adc2.Init.Mode = DMA_CIRCULAR;
 408              		.loc 1 192 37
 409 01d4 134B     		ldr	r3, .L13+24
 410 01d6 4FF40062 		mov	r2, #2048
 411 01da 9A61     		str	r2, [r3, #24]
 193:Src/stm32l4xx_hal_msp.c ****     hdma_adc2.Init.Priority = DMA_PRIORITY_LOW;
 412              		.loc 1 193 25
 413 01dc 114B     		ldr	r3, .L13+24
 414 01de 2022     		movs	r2, #32
 415 01e0 DA61     		str	r2, [r3, #28]
 194:Src/stm32l4xx_hal_msp.c ****     if (HAL_DMA_Init(&hdma_adc2) != HAL_OK)
 416              		.loc 1 194 29
 417 01e2 104B     		ldr	r3, .L13+24
 418 01e4 0022     		movs	r2, #0
 419 01e6 1A62     		str	r2, [r3, #32]
 195:Src/stm32l4xx_hal_msp.c ****     {
 420              		.loc 1 195 9
 421 01e8 0E48     		ldr	r0, .L13+24
 422 01ea FFF7FEFF 		bl	HAL_DMA_Init
 423 01ee 0346     		mov	r3, r0
 195:Src/stm32l4xx_hal_msp.c ****     {
 424              		.loc 1 195 8
 425 01f0 002B     		cmp	r3, #0
 426 01f2 01D0     		beq	.L11
 197:Src/stm32l4xx_hal_msp.c ****     }
 427              		.loc 1 197 7
 428 01f4 FFF7FEFF 		bl	Error_Handler
 429              	.L11:
 200:Src/stm32l4xx_hal_msp.c **** 
 430              		.loc 1 200 5
 431 01f8 7B68     		ldr	r3, [r7, #4]
 432 01fa 0A4A     		ldr	r2, .L13+24
 433 01fc DA64     		str	r2, [r3, #76]
 434 01fe 094A     		ldr	r2, .L13+24
 435 0200 7B68     		ldr	r3, [r7, #4]
 436 0202 9362     		str	r3, [r2, #40]
 437              	.L12:
 438              		.loc 1 207 1
 439 0204 00BF     		nop
 440 0206 C037     		adds	r7, r7, #192
 441              	.LCFI8:
 442              		.cfi_def_cfa_offset 8
 443 0208 BD46     		mov	sp, r7
 444              	.LCFI9:
 445              		.cfi_def_cfa_register 13
 446              		@ sp needed
 447 020a 80BD     		pop	{r7, pc}
 448              	.L14:
 449              		.align	2
 450              	.L13:
 451 020c 00000450 		.word	1342439424
 452 0210 00000000 		.word	HAL_RCC_ADC_CLK_ENABLED
 453 0214 00100240 		.word	1073876992
 454 0218 00080048 		.word	1207961600
ARM GAS  C:\Users\ep_ygh\AppData\Local\Temp\ccghijkQ.s 			page 13


 455 021c 00040048 		.word	1207960576
 456 0220 00010450 		.word	1342439680
 457 0224 00000000 		.word	hdma_adc2
 458 0228 1C000240 		.word	1073872924
 459              		.cfi_endproc
 460              	.LFE1091:
 462              		.section	.text.HAL_ADC_MspDeInit,"ax",%progbits
 463              		.align	1
 464              		.global	HAL_ADC_MspDeInit
 465              		.syntax unified
 466              		.thumb
 467              		.thumb_func
 469              	HAL_ADC_MspDeInit:
 470              	.LFB1092:
 208:Src/stm32l4xx_hal_msp.c **** 
 209:Src/stm32l4xx_hal_msp.c **** /**
 210:Src/stm32l4xx_hal_msp.c **** * @brief ADC MSP De-Initialization
 211:Src/stm32l4xx_hal_msp.c **** * This function freeze the hardware resources used in this example
 212:Src/stm32l4xx_hal_msp.c **** * @param hadc: ADC handle pointer
 213:Src/stm32l4xx_hal_msp.c **** * @retval None
 214:Src/stm32l4xx_hal_msp.c **** */
 215:Src/stm32l4xx_hal_msp.c **** void HAL_ADC_MspDeInit(ADC_HandleTypeDef* hadc)
 216:Src/stm32l4xx_hal_msp.c **** {
 471              		.loc 1 216 1
 472              		.cfi_startproc
 473              		@ args = 0, pretend = 0, frame = 8
 474              		@ frame_needed = 1, uses_anonymous_args = 0
 475 0000 80B5     		push	{r7, lr}
 476              	.LCFI10:
 477              		.cfi_def_cfa_offset 8
 478              		.cfi_offset 7, -8
 479              		.cfi_offset 14, -4
 480 0002 82B0     		sub	sp, sp, #8
 481              	.LCFI11:
 482              		.cfi_def_cfa_offset 16
 483 0004 00AF     		add	r7, sp, #0
 484              	.LCFI12:
 485              		.cfi_def_cfa_register 7
 486 0006 7860     		str	r0, [r7, #4]
 217:Src/stm32l4xx_hal_msp.c ****   if(hadc->Instance==ADC1)
 487              		.loc 1 217 10
 488 0008 7B68     		ldr	r3, [r7, #4]
 489 000a 1B68     		ldr	r3, [r3]
 490              		.loc 1 217 5
 491 000c 204A     		ldr	r2, .L21
 492 000e 9342     		cmp	r3, r2
 493 0010 1CD1     		bne	.L16
 218:Src/stm32l4xx_hal_msp.c ****   {
 219:Src/stm32l4xx_hal_msp.c ****   /* USER CODE BEGIN ADC1_MspDeInit 0 */
 220:Src/stm32l4xx_hal_msp.c **** 
 221:Src/stm32l4xx_hal_msp.c ****   /* USER CODE END ADC1_MspDeInit 0 */
 222:Src/stm32l4xx_hal_msp.c ****     /* Peripheral clock disable */
 223:Src/stm32l4xx_hal_msp.c ****     HAL_RCC_ADC_CLK_ENABLED--;
 494              		.loc 1 223 28
 495 0012 204B     		ldr	r3, .L21+4
 496 0014 1B68     		ldr	r3, [r3]
 497 0016 013B     		subs	r3, r3, #1
ARM GAS  C:\Users\ep_ygh\AppData\Local\Temp\ccghijkQ.s 			page 14


 498 0018 1E4A     		ldr	r2, .L21+4
 499 001a 1360     		str	r3, [r2]
 224:Src/stm32l4xx_hal_msp.c ****     if(HAL_RCC_ADC_CLK_ENABLED==0){
 500              		.loc 1 224 31
 501 001c 1D4B     		ldr	r3, .L21+4
 502 001e 1B68     		ldr	r3, [r3]
 503              		.loc 1 224 7
 504 0020 002B     		cmp	r3, #0
 505 0022 05D1     		bne	.L17
 225:Src/stm32l4xx_hal_msp.c ****       __HAL_RCC_ADC_CLK_DISABLE();
 506              		.loc 1 225 7
 507 0024 1C4B     		ldr	r3, .L21+8
 508 0026 DB6C     		ldr	r3, [r3, #76]
 509 0028 1B4A     		ldr	r2, .L21+8
 510 002a 23F40053 		bic	r3, r3, #8192
 511 002e D364     		str	r3, [r2, #76]
 512              	.L17:
 226:Src/stm32l4xx_hal_msp.c ****     }
 227:Src/stm32l4xx_hal_msp.c **** 
 228:Src/stm32l4xx_hal_msp.c ****     /**ADC1 GPIO Configuration
 229:Src/stm32l4xx_hal_msp.c ****     PA0     ------> ADC1_IN5
 230:Src/stm32l4xx_hal_msp.c ****     PA1     ------> ADC1_IN6
 231:Src/stm32l4xx_hal_msp.c ****     PC4     ------> ADC1_IN13
 232:Src/stm32l4xx_hal_msp.c ****     PB0     ------> ADC1_IN15
 233:Src/stm32l4xx_hal_msp.c ****     PB1     ------> ADC1_IN16
 234:Src/stm32l4xx_hal_msp.c ****     */
 235:Src/stm32l4xx_hal_msp.c ****     HAL_GPIO_DeInit(GPIOA, M1_BUS_VOLTAGE_Pin|M1_CURR_AMPL_U_Pin);
 513              		.loc 1 235 5
 514 0030 0321     		movs	r1, #3
 515 0032 4FF09040 		mov	r0, #1207959552
 516 0036 FFF7FEFF 		bl	HAL_GPIO_DeInit
 236:Src/stm32l4xx_hal_msp.c **** 
 237:Src/stm32l4xx_hal_msp.c ****     HAL_GPIO_DeInit(M1_TEMPERATURE_GPIO_Port, M1_TEMPERATURE_Pin);
 517              		.loc 1 237 5
 518 003a 1021     		movs	r1, #16
 519 003c 1748     		ldr	r0, .L21+12
 520 003e FFF7FEFF 		bl	HAL_GPIO_DeInit
 238:Src/stm32l4xx_hal_msp.c **** 
 239:Src/stm32l4xx_hal_msp.c ****     HAL_GPIO_DeInit(GPIOB, M1_CURR_AMPL_W_Pin|M1_CURR_AMPL_V_Pin);
 521              		.loc 1 239 5
 522 0042 0321     		movs	r1, #3
 523 0044 1648     		ldr	r0, .L21+16
 524 0046 FFF7FEFF 		bl	HAL_GPIO_DeInit
 240:Src/stm32l4xx_hal_msp.c **** 
 241:Src/stm32l4xx_hal_msp.c ****     /* ADC1 interrupt DeInit */
 242:Src/stm32l4xx_hal_msp.c ****   /* USER CODE BEGIN ADC1:ADC1_2_IRQn disable */
 243:Src/stm32l4xx_hal_msp.c ****     /**
 244:Src/stm32l4xx_hal_msp.c ****     * Uncomment the line below to disable the "ADC1_2_IRQn" interrupt
 245:Src/stm32l4xx_hal_msp.c ****     * Be aware, disabling shared interrupt may affect other IPs
 246:Src/stm32l4xx_hal_msp.c ****     */
 247:Src/stm32l4xx_hal_msp.c ****     /* HAL_NVIC_DisableIRQ(ADC1_2_IRQn); */
 248:Src/stm32l4xx_hal_msp.c ****   /* USER CODE END ADC1:ADC1_2_IRQn disable */
 249:Src/stm32l4xx_hal_msp.c **** 
 250:Src/stm32l4xx_hal_msp.c ****   /* USER CODE BEGIN ADC1_MspDeInit 1 */
 251:Src/stm32l4xx_hal_msp.c **** 
 252:Src/stm32l4xx_hal_msp.c ****   /* USER CODE END ADC1_MspDeInit 1 */
 253:Src/stm32l4xx_hal_msp.c ****   }
ARM GAS  C:\Users\ep_ygh\AppData\Local\Temp\ccghijkQ.s 			page 15


 254:Src/stm32l4xx_hal_msp.c ****   else if(hadc->Instance==ADC2)
 255:Src/stm32l4xx_hal_msp.c ****   {
 256:Src/stm32l4xx_hal_msp.c ****   /* USER CODE BEGIN ADC2_MspDeInit 0 */
 257:Src/stm32l4xx_hal_msp.c **** 
 258:Src/stm32l4xx_hal_msp.c ****   /* USER CODE END ADC2_MspDeInit 0 */
 259:Src/stm32l4xx_hal_msp.c ****     /* Peripheral clock disable */
 260:Src/stm32l4xx_hal_msp.c ****     HAL_RCC_ADC_CLK_ENABLED--;
 261:Src/stm32l4xx_hal_msp.c ****     if(HAL_RCC_ADC_CLK_ENABLED==0){
 262:Src/stm32l4xx_hal_msp.c ****       __HAL_RCC_ADC_CLK_DISABLE();
 263:Src/stm32l4xx_hal_msp.c ****     }
 264:Src/stm32l4xx_hal_msp.c **** 
 265:Src/stm32l4xx_hal_msp.c ****     /**ADC2 GPIO Configuration
 266:Src/stm32l4xx_hal_msp.c ****     PC0     ------> ADC2_IN1
 267:Src/stm32l4xx_hal_msp.c ****     PC1     ------> ADC2_IN2
 268:Src/stm32l4xx_hal_msp.c ****     PC2     ------> ADC2_IN3
 269:Src/stm32l4xx_hal_msp.c ****     */
 270:Src/stm32l4xx_hal_msp.c ****     HAL_GPIO_DeInit(GPIOC, HALL_H1_Pin|HALL_H2_Pin|HALL_H3_Pin);
 271:Src/stm32l4xx_hal_msp.c **** 
 272:Src/stm32l4xx_hal_msp.c ****     /* ADC2 DMA DeInit */
 273:Src/stm32l4xx_hal_msp.c ****     HAL_DMA_DeInit(hadc->DMA_Handle);
 274:Src/stm32l4xx_hal_msp.c **** 
 275:Src/stm32l4xx_hal_msp.c ****     /* ADC2 interrupt DeInit */
 276:Src/stm32l4xx_hal_msp.c ****   /* USER CODE BEGIN ADC2:ADC1_2_IRQn disable */
 277:Src/stm32l4xx_hal_msp.c ****     /**
 278:Src/stm32l4xx_hal_msp.c ****     * Uncomment the line below to disable the "ADC1_2_IRQn" interrupt
 279:Src/stm32l4xx_hal_msp.c ****     * Be aware, disabling shared interrupt may affect other IPs
 280:Src/stm32l4xx_hal_msp.c ****     */
 281:Src/stm32l4xx_hal_msp.c ****     /* HAL_NVIC_DisableIRQ(ADC1_2_IRQn); */
 282:Src/stm32l4xx_hal_msp.c ****   /* USER CODE END ADC2:ADC1_2_IRQn disable */
 283:Src/stm32l4xx_hal_msp.c **** 
 284:Src/stm32l4xx_hal_msp.c ****   /* USER CODE BEGIN ADC2_MspDeInit 1 */
 285:Src/stm32l4xx_hal_msp.c **** 
 286:Src/stm32l4xx_hal_msp.c ****   /* USER CODE END ADC2_MspDeInit 1 */
 287:Src/stm32l4xx_hal_msp.c ****   }
 288:Src/stm32l4xx_hal_msp.c **** 
 289:Src/stm32l4xx_hal_msp.c **** }
 525              		.loc 1 289 1
 526 004a 1CE0     		b	.L20
 527              	.L16:
 254:Src/stm32l4xx_hal_msp.c ****   {
 528              		.loc 1 254 15
 529 004c 7B68     		ldr	r3, [r7, #4]
 530 004e 1B68     		ldr	r3, [r3]
 254:Src/stm32l4xx_hal_msp.c ****   {
 531              		.loc 1 254 10
 532 0050 144A     		ldr	r2, .L21+20
 533 0052 9342     		cmp	r3, r2
 534 0054 17D1     		bne	.L20
 260:Src/stm32l4xx_hal_msp.c ****     if(HAL_RCC_ADC_CLK_ENABLED==0){
 535              		.loc 1 260 28
 536 0056 0F4B     		ldr	r3, .L21+4
 537 0058 1B68     		ldr	r3, [r3]
 538 005a 013B     		subs	r3, r3, #1
 539 005c 0D4A     		ldr	r2, .L21+4
 540 005e 1360     		str	r3, [r2]
 261:Src/stm32l4xx_hal_msp.c ****       __HAL_RCC_ADC_CLK_DISABLE();
 541              		.loc 1 261 31
ARM GAS  C:\Users\ep_ygh\AppData\Local\Temp\ccghijkQ.s 			page 16


 542 0060 0C4B     		ldr	r3, .L21+4
 543 0062 1B68     		ldr	r3, [r3]
 261:Src/stm32l4xx_hal_msp.c ****       __HAL_RCC_ADC_CLK_DISABLE();
 544              		.loc 1 261 7
 545 0064 002B     		cmp	r3, #0
 546 0066 05D1     		bne	.L19
 262:Src/stm32l4xx_hal_msp.c ****     }
 547              		.loc 1 262 7
 548 0068 0B4B     		ldr	r3, .L21+8
 549 006a DB6C     		ldr	r3, [r3, #76]
 550 006c 0A4A     		ldr	r2, .L21+8
 551 006e 23F40053 		bic	r3, r3, #8192
 552 0072 D364     		str	r3, [r2, #76]
 553              	.L19:
 270:Src/stm32l4xx_hal_msp.c **** 
 554              		.loc 1 270 5
 555 0074 0721     		movs	r1, #7
 556 0076 0948     		ldr	r0, .L21+12
 557 0078 FFF7FEFF 		bl	HAL_GPIO_DeInit
 273:Src/stm32l4xx_hal_msp.c **** 
 558              		.loc 1 273 5
 559 007c 7B68     		ldr	r3, [r7, #4]
 560 007e DB6C     		ldr	r3, [r3, #76]
 561 0080 1846     		mov	r0, r3
 562 0082 FFF7FEFF 		bl	HAL_DMA_DeInit
 563              	.L20:
 564              		.loc 1 289 1
 565 0086 00BF     		nop
 566 0088 0837     		adds	r7, r7, #8
 567              	.LCFI13:
 568              		.cfi_def_cfa_offset 8
 569 008a BD46     		mov	sp, r7
 570              	.LCFI14:
 571              		.cfi_def_cfa_register 13
 572              		@ sp needed
 573 008c 80BD     		pop	{r7, pc}
 574              	.L22:
 575 008e 00BF     		.align	2
 576              	.L21:
 577 0090 00000450 		.word	1342439424
 578 0094 00000000 		.word	HAL_RCC_ADC_CLK_ENABLED
 579 0098 00100240 		.word	1073876992
 580 009c 00080048 		.word	1207961600
 581 00a0 00040048 		.word	1207960576
 582 00a4 00010450 		.word	1342439680
 583              		.cfi_endproc
 584              	.LFE1092:
 586              		.section	.text.HAL_TIM_Base_MspInit,"ax",%progbits
 587              		.align	1
 588              		.global	HAL_TIM_Base_MspInit
 589              		.syntax unified
 590              		.thumb
 591              		.thumb_func
 593              	HAL_TIM_Base_MspInit:
 594              	.LFB1093:
 290:Src/stm32l4xx_hal_msp.c **** 
 291:Src/stm32l4xx_hal_msp.c **** /**
ARM GAS  C:\Users\ep_ygh\AppData\Local\Temp\ccghijkQ.s 			page 17


 292:Src/stm32l4xx_hal_msp.c **** * @brief TIM_Base MSP Initialization
 293:Src/stm32l4xx_hal_msp.c **** * This function configures the hardware resources used in this example
 294:Src/stm32l4xx_hal_msp.c **** * @param htim_base: TIM_Base handle pointer
 295:Src/stm32l4xx_hal_msp.c **** * @retval None
 296:Src/stm32l4xx_hal_msp.c **** */
 297:Src/stm32l4xx_hal_msp.c **** void HAL_TIM_Base_MspInit(TIM_HandleTypeDef* htim_base)
 298:Src/stm32l4xx_hal_msp.c **** {
 595              		.loc 1 298 1
 596              		.cfi_startproc
 597              		@ args = 0, pretend = 0, frame = 40
 598              		@ frame_needed = 1, uses_anonymous_args = 0
 599 0000 80B5     		push	{r7, lr}
 600              	.LCFI15:
 601              		.cfi_def_cfa_offset 8
 602              		.cfi_offset 7, -8
 603              		.cfi_offset 14, -4
 604 0002 8AB0     		sub	sp, sp, #40
 605              	.LCFI16:
 606              		.cfi_def_cfa_offset 48
 607 0004 00AF     		add	r7, sp, #0
 608              	.LCFI17:
 609              		.cfi_def_cfa_register 7
 610 0006 7860     		str	r0, [r7, #4]
 299:Src/stm32l4xx_hal_msp.c ****   GPIO_InitTypeDef GPIO_InitStruct = {0};
 611              		.loc 1 299 20
 612 0008 07F11403 		add	r3, r7, #20
 613 000c 0022     		movs	r2, #0
 614 000e 1A60     		str	r2, [r3]
 615 0010 5A60     		str	r2, [r3, #4]
 616 0012 9A60     		str	r2, [r3, #8]
 617 0014 DA60     		str	r2, [r3, #12]
 618 0016 1A61     		str	r2, [r3, #16]
 300:Src/stm32l4xx_hal_msp.c ****   if(htim_base->Instance==TIM1)
 619              		.loc 1 300 15
 620 0018 7B68     		ldr	r3, [r7, #4]
 621 001a 1B68     		ldr	r3, [r3]
 622              		.loc 1 300 5
 623 001c 254A     		ldr	r2, .L27
 624 001e 9342     		cmp	r3, r2
 625 0020 2AD1     		bne	.L24
 626              	.LBB10:
 301:Src/stm32l4xx_hal_msp.c ****   {
 302:Src/stm32l4xx_hal_msp.c ****   /* USER CODE BEGIN TIM1_MspInit 0 */
 303:Src/stm32l4xx_hal_msp.c **** 
 304:Src/stm32l4xx_hal_msp.c ****   /* USER CODE END TIM1_MspInit 0 */
 305:Src/stm32l4xx_hal_msp.c ****     /* Peripheral clock enable */
 306:Src/stm32l4xx_hal_msp.c ****     __HAL_RCC_TIM1_CLK_ENABLE();
 627              		.loc 1 306 5
 628 0022 254B     		ldr	r3, .L27+4
 629 0024 1B6E     		ldr	r3, [r3, #96]
 630 0026 244A     		ldr	r2, .L27+4
 631 0028 43F40063 		orr	r3, r3, #2048
 632 002c 1366     		str	r3, [r2, #96]
 633 002e 224B     		ldr	r3, .L27+4
 634 0030 1B6E     		ldr	r3, [r3, #96]
 635 0032 03F40063 		and	r3, r3, #2048
 636 0036 3B61     		str	r3, [r7, #16]
ARM GAS  C:\Users\ep_ygh\AppData\Local\Temp\ccghijkQ.s 			page 18


 637 0038 3B69     		ldr	r3, [r7, #16]
 638              	.LBE10:
 639              	.LBB11:
 307:Src/stm32l4xx_hal_msp.c **** 
 308:Src/stm32l4xx_hal_msp.c ****     __HAL_RCC_GPIOA_CLK_ENABLE();
 640              		.loc 1 308 5
 641 003a 1F4B     		ldr	r3, .L27+4
 642 003c DB6C     		ldr	r3, [r3, #76]
 643 003e 1E4A     		ldr	r2, .L27+4
 644 0040 43F00103 		orr	r3, r3, #1
 645 0044 D364     		str	r3, [r2, #76]
 646 0046 1C4B     		ldr	r3, .L27+4
 647 0048 DB6C     		ldr	r3, [r3, #76]
 648 004a 03F00103 		and	r3, r3, #1
 649 004e FB60     		str	r3, [r7, #12]
 650 0050 FB68     		ldr	r3, [r7, #12]
 651              	.LBE11:
 309:Src/stm32l4xx_hal_msp.c ****     /**TIM1 GPIO Configuration
 310:Src/stm32l4xx_hal_msp.c ****     PA11     ------> TIM1_BKIN2
 311:Src/stm32l4xx_hal_msp.c ****     */
 312:Src/stm32l4xx_hal_msp.c ****     GPIO_InitStruct.Pin = M1_DP_Pin;
 652              		.loc 1 312 25
 653 0052 4FF40063 		mov	r3, #2048
 654 0056 7B61     		str	r3, [r7, #20]
 313:Src/stm32l4xx_hal_msp.c ****     GPIO_InitStruct.Mode = GPIO_MODE_AF_PP;
 655              		.loc 1 313 26
 656 0058 0223     		movs	r3, #2
 657 005a BB61     		str	r3, [r7, #24]
 314:Src/stm32l4xx_hal_msp.c ****     GPIO_InitStruct.Pull = GPIO_PULLUP;
 658              		.loc 1 314 26
 659 005c 0123     		movs	r3, #1
 660 005e FB61     		str	r3, [r7, #28]
 315:Src/stm32l4xx_hal_msp.c ****     GPIO_InitStruct.Speed = GPIO_SPEED_FREQ_LOW;
 661              		.loc 1 315 27
 662 0060 0023     		movs	r3, #0
 663 0062 3B62     		str	r3, [r7, #32]
 316:Src/stm32l4xx_hal_msp.c ****     GPIO_InitStruct.Alternate = GPIO_AF2_TIM1;
 664              		.loc 1 316 31
 665 0064 0223     		movs	r3, #2
 666 0066 7B62     		str	r3, [r7, #36]
 317:Src/stm32l4xx_hal_msp.c ****     HAL_GPIO_Init(M1_DP_GPIO_Port, &GPIO_InitStruct);
 667              		.loc 1 317 5
 668 0068 07F11403 		add	r3, r7, #20
 669 006c 1946     		mov	r1, r3
 670 006e 4FF09040 		mov	r0, #1207959552
 671 0072 FFF7FEFF 		bl	HAL_GPIO_Init
 318:Src/stm32l4xx_hal_msp.c **** 
 319:Src/stm32l4xx_hal_msp.c ****   /* USER CODE BEGIN TIM1_MspInit 1 */
 320:Src/stm32l4xx_hal_msp.c **** 
 321:Src/stm32l4xx_hal_msp.c ****   /* USER CODE END TIM1_MspInit 1 */
 322:Src/stm32l4xx_hal_msp.c ****   }
 323:Src/stm32l4xx_hal_msp.c ****   else if(htim_base->Instance==TIM4)
 324:Src/stm32l4xx_hal_msp.c ****   {
 325:Src/stm32l4xx_hal_msp.c ****   /* USER CODE BEGIN TIM4_MspInit 0 */
 326:Src/stm32l4xx_hal_msp.c **** 
 327:Src/stm32l4xx_hal_msp.c ****   /* USER CODE END TIM4_MspInit 0 */
 328:Src/stm32l4xx_hal_msp.c ****     /* Peripheral clock enable */
ARM GAS  C:\Users\ep_ygh\AppData\Local\Temp\ccghijkQ.s 			page 19


 329:Src/stm32l4xx_hal_msp.c ****     __HAL_RCC_TIM4_CLK_ENABLE();
 330:Src/stm32l4xx_hal_msp.c ****     /* TIM4 interrupt Init */
 331:Src/stm32l4xx_hal_msp.c ****     HAL_NVIC_SetPriority(TIM4_IRQn, 5, 0);
 332:Src/stm32l4xx_hal_msp.c ****     HAL_NVIC_EnableIRQ(TIM4_IRQn);
 333:Src/stm32l4xx_hal_msp.c ****   /* USER CODE BEGIN TIM4_MspInit 1 */
 334:Src/stm32l4xx_hal_msp.c **** 
 335:Src/stm32l4xx_hal_msp.c ****   /* USER CODE END TIM4_MspInit 1 */
 336:Src/stm32l4xx_hal_msp.c ****   }
 337:Src/stm32l4xx_hal_msp.c **** 
 338:Src/stm32l4xx_hal_msp.c **** }
 672              		.loc 1 338 1
 673 0076 18E0     		b	.L26
 674              	.L24:
 323:Src/stm32l4xx_hal_msp.c ****   {
 675              		.loc 1 323 20
 676 0078 7B68     		ldr	r3, [r7, #4]
 677 007a 1B68     		ldr	r3, [r3]
 323:Src/stm32l4xx_hal_msp.c ****   {
 678              		.loc 1 323 10
 679 007c 0F4A     		ldr	r2, .L27+8
 680 007e 9342     		cmp	r3, r2
 681 0080 13D1     		bne	.L26
 682              	.LBB12:
 329:Src/stm32l4xx_hal_msp.c ****     /* TIM4 interrupt Init */
 683              		.loc 1 329 5
 684 0082 0D4B     		ldr	r3, .L27+4
 685 0084 9B6D     		ldr	r3, [r3, #88]
 686 0086 0C4A     		ldr	r2, .L27+4
 687 0088 43F00403 		orr	r3, r3, #4
 688 008c 9365     		str	r3, [r2, #88]
 689 008e 0A4B     		ldr	r3, .L27+4
 690 0090 9B6D     		ldr	r3, [r3, #88]
 691 0092 03F00403 		and	r3, r3, #4
 692 0096 BB60     		str	r3, [r7, #8]
 693 0098 BB68     		ldr	r3, [r7, #8]
 694              	.LBE12:
 331:Src/stm32l4xx_hal_msp.c ****     HAL_NVIC_EnableIRQ(TIM4_IRQn);
 695              		.loc 1 331 5
 696 009a 0022     		movs	r2, #0
 697 009c 0521     		movs	r1, #5
 698 009e 1E20     		movs	r0, #30
 699 00a0 FFF7FEFF 		bl	HAL_NVIC_SetPriority
 332:Src/stm32l4xx_hal_msp.c ****   /* USER CODE BEGIN TIM4_MspInit 1 */
 700              		.loc 1 332 5
 701 00a4 1E20     		movs	r0, #30
 702 00a6 FFF7FEFF 		bl	HAL_NVIC_EnableIRQ
 703              	.L26:
 704              		.loc 1 338 1
 705 00aa 00BF     		nop
 706 00ac 2837     		adds	r7, r7, #40
 707              	.LCFI18:
 708              		.cfi_def_cfa_offset 8
 709 00ae BD46     		mov	sp, r7
 710              	.LCFI19:
 711              		.cfi_def_cfa_register 13
 712              		@ sp needed
 713 00b0 80BD     		pop	{r7, pc}
ARM GAS  C:\Users\ep_ygh\AppData\Local\Temp\ccghijkQ.s 			page 20


 714              	.L28:
 715 00b2 00BF     		.align	2
 716              	.L27:
 717 00b4 002C0140 		.word	1073818624
 718 00b8 00100240 		.word	1073876992
 719 00bc 00080040 		.word	1073743872
 720              		.cfi_endproc
 721              	.LFE1093:
 723              		.section	.text.HAL_TIM_Encoder_MspInit,"ax",%progbits
 724              		.align	1
 725              		.global	HAL_TIM_Encoder_MspInit
 726              		.syntax unified
 727              		.thumb
 728              		.thumb_func
 730              	HAL_TIM_Encoder_MspInit:
 731              	.LFB1094:
 339:Src/stm32l4xx_hal_msp.c **** 
 340:Src/stm32l4xx_hal_msp.c **** /**
 341:Src/stm32l4xx_hal_msp.c **** * @brief TIM_Encoder MSP Initialization
 342:Src/stm32l4xx_hal_msp.c **** * This function configures the hardware resources used in this example
 343:Src/stm32l4xx_hal_msp.c **** * @param htim_encoder: TIM_Encoder handle pointer
 344:Src/stm32l4xx_hal_msp.c **** * @retval None
 345:Src/stm32l4xx_hal_msp.c **** */
 346:Src/stm32l4xx_hal_msp.c **** void HAL_TIM_Encoder_MspInit(TIM_HandleTypeDef* htim_encoder)
 347:Src/stm32l4xx_hal_msp.c **** {
 732              		.loc 1 347 1
 733              		.cfi_startproc
 734              		@ args = 0, pretend = 0, frame = 40
 735              		@ frame_needed = 1, uses_anonymous_args = 0
 736 0000 80B5     		push	{r7, lr}
 737              	.LCFI20:
 738              		.cfi_def_cfa_offset 8
 739              		.cfi_offset 7, -8
 740              		.cfi_offset 14, -4
 741 0002 8AB0     		sub	sp, sp, #40
 742              	.LCFI21:
 743              		.cfi_def_cfa_offset 48
 744 0004 00AF     		add	r7, sp, #0
 745              	.LCFI22:
 746              		.cfi_def_cfa_register 7
 747 0006 7860     		str	r0, [r7, #4]
 348:Src/stm32l4xx_hal_msp.c ****   GPIO_InitTypeDef GPIO_InitStruct = {0};
 748              		.loc 1 348 20
 749 0008 07F11403 		add	r3, r7, #20
 750 000c 0022     		movs	r2, #0
 751 000e 1A60     		str	r2, [r3]
 752 0010 5A60     		str	r2, [r3, #4]
 753 0012 9A60     		str	r2, [r3, #8]
 754 0014 DA60     		str	r2, [r3, #12]
 755 0016 1A61     		str	r2, [r3, #16]
 349:Src/stm32l4xx_hal_msp.c ****   if(htim_encoder->Instance==TIM3)
 756              		.loc 1 349 18
 757 0018 7B68     		ldr	r3, [r7, #4]
 758 001a 1B68     		ldr	r3, [r3]
 759              		.loc 1 349 5
 760 001c 174A     		ldr	r2, .L32
 761 001e 9342     		cmp	r3, r2
ARM GAS  C:\Users\ep_ygh\AppData\Local\Temp\ccghijkQ.s 			page 21


 762 0020 27D1     		bne	.L31
 763              	.LBB13:
 350:Src/stm32l4xx_hal_msp.c ****   {
 351:Src/stm32l4xx_hal_msp.c ****   /* USER CODE BEGIN TIM3_MspInit 0 */
 352:Src/stm32l4xx_hal_msp.c **** 
 353:Src/stm32l4xx_hal_msp.c ****   /* USER CODE END TIM3_MspInit 0 */
 354:Src/stm32l4xx_hal_msp.c ****     /* Peripheral clock enable */
 355:Src/stm32l4xx_hal_msp.c ****     __HAL_RCC_TIM3_CLK_ENABLE();
 764              		.loc 1 355 5
 765 0022 174B     		ldr	r3, .L32+4
 766 0024 9B6D     		ldr	r3, [r3, #88]
 767 0026 164A     		ldr	r2, .L32+4
 768 0028 43F00203 		orr	r3, r3, #2
 769 002c 9365     		str	r3, [r2, #88]
 770 002e 144B     		ldr	r3, .L32+4
 771 0030 9B6D     		ldr	r3, [r3, #88]
 772 0032 03F00203 		and	r3, r3, #2
 773 0036 3B61     		str	r3, [r7, #16]
 774 0038 3B69     		ldr	r3, [r7, #16]
 775              	.LBE13:
 776              	.LBB14:
 356:Src/stm32l4xx_hal_msp.c **** 
 357:Src/stm32l4xx_hal_msp.c ****     __HAL_RCC_GPIOC_CLK_ENABLE();
 777              		.loc 1 357 5
 778 003a 114B     		ldr	r3, .L32+4
 779 003c DB6C     		ldr	r3, [r3, #76]
 780 003e 104A     		ldr	r2, .L32+4
 781 0040 43F00403 		orr	r3, r3, #4
 782 0044 D364     		str	r3, [r2, #76]
 783 0046 0E4B     		ldr	r3, .L32+4
 784 0048 DB6C     		ldr	r3, [r3, #76]
 785 004a 03F00403 		and	r3, r3, #4
 786 004e FB60     		str	r3, [r7, #12]
 787 0050 FB68     		ldr	r3, [r7, #12]
 788              	.LBE14:
 358:Src/stm32l4xx_hal_msp.c ****     /**TIM3 GPIO Configuration
 359:Src/stm32l4xx_hal_msp.c ****     PC6     ------> TIM3_CH1
 360:Src/stm32l4xx_hal_msp.c ****     PC7     ------> TIM3_CH2
 361:Src/stm32l4xx_hal_msp.c ****     */
 362:Src/stm32l4xx_hal_msp.c ****     GPIO_InitStruct.Pin = M1_ENCODER_A_Pin|M1_ENCODER_B_Pin;
 789              		.loc 1 362 25
 790 0052 C023     		movs	r3, #192
 791 0054 7B61     		str	r3, [r7, #20]
 363:Src/stm32l4xx_hal_msp.c ****     GPIO_InitStruct.Mode = GPIO_MODE_AF_PP;
 792              		.loc 1 363 26
 793 0056 0223     		movs	r3, #2
 794 0058 BB61     		str	r3, [r7, #24]
 364:Src/stm32l4xx_hal_msp.c ****     GPIO_InitStruct.Pull = GPIO_NOPULL;
 795              		.loc 1 364 26
 796 005a 0023     		movs	r3, #0
 797 005c FB61     		str	r3, [r7, #28]
 365:Src/stm32l4xx_hal_msp.c ****     GPIO_InitStruct.Speed = GPIO_SPEED_FREQ_LOW;
 798              		.loc 1 365 27
 799 005e 0023     		movs	r3, #0
 800 0060 3B62     		str	r3, [r7, #32]
 366:Src/stm32l4xx_hal_msp.c ****     GPIO_InitStruct.Alternate = GPIO_AF2_TIM3;
 801              		.loc 1 366 31
ARM GAS  C:\Users\ep_ygh\AppData\Local\Temp\ccghijkQ.s 			page 22


 802 0062 0223     		movs	r3, #2
 803 0064 7B62     		str	r3, [r7, #36]
 367:Src/stm32l4xx_hal_msp.c ****     HAL_GPIO_Init(GPIOC, &GPIO_InitStruct);
 804              		.loc 1 367 5
 805 0066 07F11403 		add	r3, r7, #20
 806 006a 1946     		mov	r1, r3
 807 006c 0548     		ldr	r0, .L32+8
 808 006e FFF7FEFF 		bl	HAL_GPIO_Init
 809              	.L31:
 368:Src/stm32l4xx_hal_msp.c **** 
 369:Src/stm32l4xx_hal_msp.c ****   /* USER CODE BEGIN TIM3_MspInit 1 */
 370:Src/stm32l4xx_hal_msp.c **** 
 371:Src/stm32l4xx_hal_msp.c ****   /* USER CODE END TIM3_MspInit 1 */
 372:Src/stm32l4xx_hal_msp.c **** 
 373:Src/stm32l4xx_hal_msp.c ****   }
 374:Src/stm32l4xx_hal_msp.c **** 
 375:Src/stm32l4xx_hal_msp.c **** }
 810              		.loc 1 375 1
 811 0072 00BF     		nop
 812 0074 2837     		adds	r7, r7, #40
 813              	.LCFI23:
 814              		.cfi_def_cfa_offset 8
 815 0076 BD46     		mov	sp, r7
 816              	.LCFI24:
 817              		.cfi_def_cfa_register 13
 818              		@ sp needed
 819 0078 80BD     		pop	{r7, pc}
 820              	.L33:
 821 007a 00BF     		.align	2
 822              	.L32:
 823 007c 00040040 		.word	1073742848
 824 0080 00100240 		.word	1073876992
 825 0084 00080048 		.word	1207961600
 826              		.cfi_endproc
 827              	.LFE1094:
 829              		.section	.text.HAL_TIM_MspPostInit,"ax",%progbits
 830              		.align	1
 831              		.global	HAL_TIM_MspPostInit
 832              		.syntax unified
 833              		.thumb
 834              		.thumb_func
 836              	HAL_TIM_MspPostInit:
 837              	.LFB1095:
 376:Src/stm32l4xx_hal_msp.c **** 
 377:Src/stm32l4xx_hal_msp.c **** void HAL_TIM_MspPostInit(TIM_HandleTypeDef* htim)
 378:Src/stm32l4xx_hal_msp.c **** {
 838              		.loc 1 378 1
 839              		.cfi_startproc
 840              		@ args = 0, pretend = 0, frame = 32
 841              		@ frame_needed = 1, uses_anonymous_args = 0
 842 0000 80B5     		push	{r7, lr}
 843              	.LCFI25:
 844              		.cfi_def_cfa_offset 8
 845              		.cfi_offset 7, -8
 846              		.cfi_offset 14, -4
 847 0002 88B0     		sub	sp, sp, #32
 848              	.LCFI26:
ARM GAS  C:\Users\ep_ygh\AppData\Local\Temp\ccghijkQ.s 			page 23


 849              		.cfi_def_cfa_offset 40
 850 0004 00AF     		add	r7, sp, #0
 851              	.LCFI27:
 852              		.cfi_def_cfa_register 7
 853 0006 7860     		str	r0, [r7, #4]
 379:Src/stm32l4xx_hal_msp.c ****   GPIO_InitTypeDef GPIO_InitStruct = {0};
 854              		.loc 1 379 20
 855 0008 07F10C03 		add	r3, r7, #12
 856 000c 0022     		movs	r2, #0
 857 000e 1A60     		str	r2, [r3]
 858 0010 5A60     		str	r2, [r3, #4]
 859 0012 9A60     		str	r2, [r3, #8]
 860 0014 DA60     		str	r2, [r3, #12]
 861 0016 1A61     		str	r2, [r3, #16]
 380:Src/stm32l4xx_hal_msp.c ****   if(htim->Instance==TIM1)
 862              		.loc 1 380 10
 863 0018 7B68     		ldr	r3, [r7, #4]
 864 001a 1B68     		ldr	r3, [r3]
 865              		.loc 1 380 5
 866 001c 124A     		ldr	r2, .L37
 867 001e 9342     		cmp	r3, r2
 868 0020 1DD1     		bne	.L36
 869              	.LBB15:
 381:Src/stm32l4xx_hal_msp.c ****   {
 382:Src/stm32l4xx_hal_msp.c ****   /* USER CODE BEGIN TIM1_MspPostInit 0 */
 383:Src/stm32l4xx_hal_msp.c **** 
 384:Src/stm32l4xx_hal_msp.c ****   /* USER CODE END TIM1_MspPostInit 0 */
 385:Src/stm32l4xx_hal_msp.c **** 
 386:Src/stm32l4xx_hal_msp.c ****     __HAL_RCC_GPIOA_CLK_ENABLE();
 870              		.loc 1 386 5
 871 0022 124B     		ldr	r3, .L37+4
 872 0024 DB6C     		ldr	r3, [r3, #76]
 873 0026 114A     		ldr	r2, .L37+4
 874 0028 43F00103 		orr	r3, r3, #1
 875 002c D364     		str	r3, [r2, #76]
 876 002e 0F4B     		ldr	r3, .L37+4
 877 0030 DB6C     		ldr	r3, [r3, #76]
 878 0032 03F00103 		and	r3, r3, #1
 879 0036 BB60     		str	r3, [r7, #8]
 880 0038 BB68     		ldr	r3, [r7, #8]
 881              	.LBE15:
 387:Src/stm32l4xx_hal_msp.c ****     /**TIM1 GPIO Configuration
 388:Src/stm32l4xx_hal_msp.c ****     PA8     ------> TIM1_CH1
 389:Src/stm32l4xx_hal_msp.c ****     PA9     ------> TIM1_CH2
 390:Src/stm32l4xx_hal_msp.c ****     PA10     ------> TIM1_CH3
 391:Src/stm32l4xx_hal_msp.c ****     */
 392:Src/stm32l4xx_hal_msp.c ****     GPIO_InitStruct.Pin = M1_PWM_UH_Pin|M1_PWM_VH_Pin|M1_PWM_WH_Pin;
 882              		.loc 1 392 25
 883 003a 4FF4E063 		mov	r3, #1792
 884 003e FB60     		str	r3, [r7, #12]
 393:Src/stm32l4xx_hal_msp.c ****     GPIO_InitStruct.Mode = GPIO_MODE_AF_PP;
 885              		.loc 1 393 26
 886 0040 0223     		movs	r3, #2
 887 0042 3B61     		str	r3, [r7, #16]
 394:Src/stm32l4xx_hal_msp.c ****     GPIO_InitStruct.Pull = GPIO_PULLDOWN;
 888              		.loc 1 394 26
 889 0044 0223     		movs	r3, #2
ARM GAS  C:\Users\ep_ygh\AppData\Local\Temp\ccghijkQ.s 			page 24


 890 0046 7B61     		str	r3, [r7, #20]
 395:Src/stm32l4xx_hal_msp.c ****     GPIO_InitStruct.Speed = GPIO_SPEED_FREQ_HIGH;
 891              		.loc 1 395 27
 892 0048 0223     		movs	r3, #2
 893 004a BB61     		str	r3, [r7, #24]
 396:Src/stm32l4xx_hal_msp.c ****     GPIO_InitStruct.Alternate = GPIO_AF1_TIM1;
 894              		.loc 1 396 31
 895 004c 0123     		movs	r3, #1
 896 004e FB61     		str	r3, [r7, #28]
 397:Src/stm32l4xx_hal_msp.c ****     HAL_GPIO_Init(GPIOA, &GPIO_InitStruct);
 897              		.loc 1 397 5
 898 0050 07F10C03 		add	r3, r7, #12
 899 0054 1946     		mov	r1, r3
 900 0056 4FF09040 		mov	r0, #1207959552
 901 005a FFF7FEFF 		bl	HAL_GPIO_Init
 902              	.L36:
 398:Src/stm32l4xx_hal_msp.c **** 
 399:Src/stm32l4xx_hal_msp.c ****   /* USER CODE BEGIN TIM1_MspPostInit 1 */
 400:Src/stm32l4xx_hal_msp.c **** 
 401:Src/stm32l4xx_hal_msp.c ****   /* USER CODE END TIM1_MspPostInit 1 */
 402:Src/stm32l4xx_hal_msp.c ****   }
 403:Src/stm32l4xx_hal_msp.c **** 
 404:Src/stm32l4xx_hal_msp.c **** }
 903              		.loc 1 404 1
 904 005e 00BF     		nop
 905 0060 2037     		adds	r7, r7, #32
 906              	.LCFI28:
 907              		.cfi_def_cfa_offset 8
 908 0062 BD46     		mov	sp, r7
 909              	.LCFI29:
 910              		.cfi_def_cfa_register 13
 911              		@ sp needed
 912 0064 80BD     		pop	{r7, pc}
 913              	.L38:
 914 0066 00BF     		.align	2
 915              	.L37:
 916 0068 002C0140 		.word	1073818624
 917 006c 00100240 		.word	1073876992
 918              		.cfi_endproc
 919              	.LFE1095:
 921              		.section	.text.HAL_TIM_Base_MspDeInit,"ax",%progbits
 922              		.align	1
 923              		.global	HAL_TIM_Base_MspDeInit
 924              		.syntax unified
 925              		.thumb
 926              		.thumb_func
 928              	HAL_TIM_Base_MspDeInit:
 929              	.LFB1096:
 405:Src/stm32l4xx_hal_msp.c **** /**
 406:Src/stm32l4xx_hal_msp.c **** * @brief TIM_Base MSP De-Initialization
 407:Src/stm32l4xx_hal_msp.c **** * This function freeze the hardware resources used in this example
 408:Src/stm32l4xx_hal_msp.c **** * @param htim_base: TIM_Base handle pointer
 409:Src/stm32l4xx_hal_msp.c **** * @retval None
 410:Src/stm32l4xx_hal_msp.c **** */
 411:Src/stm32l4xx_hal_msp.c **** void HAL_TIM_Base_MspDeInit(TIM_HandleTypeDef* htim_base)
 412:Src/stm32l4xx_hal_msp.c **** {
 930              		.loc 1 412 1
ARM GAS  C:\Users\ep_ygh\AppData\Local\Temp\ccghijkQ.s 			page 25


 931              		.cfi_startproc
 932              		@ args = 0, pretend = 0, frame = 8
 933              		@ frame_needed = 1, uses_anonymous_args = 0
 934 0000 80B5     		push	{r7, lr}
 935              	.LCFI30:
 936              		.cfi_def_cfa_offset 8
 937              		.cfi_offset 7, -8
 938              		.cfi_offset 14, -4
 939 0002 82B0     		sub	sp, sp, #8
 940              	.LCFI31:
 941              		.cfi_def_cfa_offset 16
 942 0004 00AF     		add	r7, sp, #0
 943              	.LCFI32:
 944              		.cfi_def_cfa_register 7
 945 0006 7860     		str	r0, [r7, #4]
 413:Src/stm32l4xx_hal_msp.c ****   if(htim_base->Instance==TIM1)
 946              		.loc 1 413 15
 947 0008 7B68     		ldr	r3, [r7, #4]
 948 000a 1B68     		ldr	r3, [r3]
 949              		.loc 1 413 5
 950 000c 134A     		ldr	r2, .L43
 951 000e 9342     		cmp	r3, r2
 952 0010 12D1     		bne	.L40
 414:Src/stm32l4xx_hal_msp.c ****   {
 415:Src/stm32l4xx_hal_msp.c ****   /* USER CODE BEGIN TIM1_MspDeInit 0 */
 416:Src/stm32l4xx_hal_msp.c **** 
 417:Src/stm32l4xx_hal_msp.c ****   /* USER CODE END TIM1_MspDeInit 0 */
 418:Src/stm32l4xx_hal_msp.c ****     /* Peripheral clock disable */
 419:Src/stm32l4xx_hal_msp.c ****     __HAL_RCC_TIM1_CLK_DISABLE();
 953              		.loc 1 419 5
 954 0012 134B     		ldr	r3, .L43+4
 955 0014 1B6E     		ldr	r3, [r3, #96]
 956 0016 124A     		ldr	r2, .L43+4
 957 0018 23F40063 		bic	r3, r3, #2048
 958 001c 1366     		str	r3, [r2, #96]
 420:Src/stm32l4xx_hal_msp.c **** 
 421:Src/stm32l4xx_hal_msp.c ****     /**TIM1 GPIO Configuration
 422:Src/stm32l4xx_hal_msp.c ****     PA8     ------> TIM1_CH1
 423:Src/stm32l4xx_hal_msp.c ****     PA9     ------> TIM1_CH2
 424:Src/stm32l4xx_hal_msp.c ****     PA10     ------> TIM1_CH3
 425:Src/stm32l4xx_hal_msp.c ****     PA11     ------> TIM1_BKIN2
 426:Src/stm32l4xx_hal_msp.c ****     */
 427:Src/stm32l4xx_hal_msp.c ****     HAL_GPIO_DeInit(GPIOA, M1_PWM_UH_Pin|M1_PWM_VH_Pin|M1_PWM_WH_Pin|M1_DP_Pin);
 959              		.loc 1 427 5
 960 001e 4FF47061 		mov	r1, #3840
 961 0022 4FF09040 		mov	r0, #1207959552
 962 0026 FFF7FEFF 		bl	HAL_GPIO_DeInit
 428:Src/stm32l4xx_hal_msp.c **** 
 429:Src/stm32l4xx_hal_msp.c ****     /* TIM1 interrupt DeInit */
 430:Src/stm32l4xx_hal_msp.c ****     HAL_NVIC_DisableIRQ(TIM1_BRK_TIM15_IRQn);
 963              		.loc 1 430 5
 964 002a 1820     		movs	r0, #24
 965 002c FFF7FEFF 		bl	HAL_NVIC_DisableIRQ
 431:Src/stm32l4xx_hal_msp.c ****     HAL_NVIC_DisableIRQ(TIM1_UP_TIM16_IRQn);
 966              		.loc 1 431 5
 967 0030 1920     		movs	r0, #25
 968 0032 FFF7FEFF 		bl	HAL_NVIC_DisableIRQ
ARM GAS  C:\Users\ep_ygh\AppData\Local\Temp\ccghijkQ.s 			page 26


 432:Src/stm32l4xx_hal_msp.c ****   /* USER CODE BEGIN TIM1_MspDeInit 1 */
 433:Src/stm32l4xx_hal_msp.c **** 
 434:Src/stm32l4xx_hal_msp.c ****   /* USER CODE END TIM1_MspDeInit 1 */
 435:Src/stm32l4xx_hal_msp.c ****   }
 436:Src/stm32l4xx_hal_msp.c ****   else if(htim_base->Instance==TIM4)
 437:Src/stm32l4xx_hal_msp.c ****   {
 438:Src/stm32l4xx_hal_msp.c ****   /* USER CODE BEGIN TIM4_MspDeInit 0 */
 439:Src/stm32l4xx_hal_msp.c **** 
 440:Src/stm32l4xx_hal_msp.c ****   /* USER CODE END TIM4_MspDeInit 0 */
 441:Src/stm32l4xx_hal_msp.c ****     /* Peripheral clock disable */
 442:Src/stm32l4xx_hal_msp.c ****     __HAL_RCC_TIM4_CLK_DISABLE();
 443:Src/stm32l4xx_hal_msp.c **** 
 444:Src/stm32l4xx_hal_msp.c ****     /* TIM4 interrupt DeInit */
 445:Src/stm32l4xx_hal_msp.c ****     HAL_NVIC_DisableIRQ(TIM4_IRQn);
 446:Src/stm32l4xx_hal_msp.c ****   /* USER CODE BEGIN TIM4_MspDeInit 1 */
 447:Src/stm32l4xx_hal_msp.c **** 
 448:Src/stm32l4xx_hal_msp.c ****   /* USER CODE END TIM4_MspDeInit 1 */
 449:Src/stm32l4xx_hal_msp.c ****   }
 450:Src/stm32l4xx_hal_msp.c **** 
 451:Src/stm32l4xx_hal_msp.c **** }
 969              		.loc 1 451 1
 970 0036 0DE0     		b	.L42
 971              	.L40:
 436:Src/stm32l4xx_hal_msp.c ****   {
 972              		.loc 1 436 20
 973 0038 7B68     		ldr	r3, [r7, #4]
 974 003a 1B68     		ldr	r3, [r3]
 436:Src/stm32l4xx_hal_msp.c ****   {
 975              		.loc 1 436 10
 976 003c 094A     		ldr	r2, .L43+8
 977 003e 9342     		cmp	r3, r2
 978 0040 08D1     		bne	.L42
 442:Src/stm32l4xx_hal_msp.c **** 
 979              		.loc 1 442 5
 980 0042 074B     		ldr	r3, .L43+4
 981 0044 9B6D     		ldr	r3, [r3, #88]
 982 0046 064A     		ldr	r2, .L43+4
 983 0048 23F00403 		bic	r3, r3, #4
 984 004c 9365     		str	r3, [r2, #88]
 445:Src/stm32l4xx_hal_msp.c ****   /* USER CODE BEGIN TIM4_MspDeInit 1 */
 985              		.loc 1 445 5
 986 004e 1E20     		movs	r0, #30
 987 0050 FFF7FEFF 		bl	HAL_NVIC_DisableIRQ
 988              	.L42:
 989              		.loc 1 451 1
 990 0054 00BF     		nop
 991 0056 0837     		adds	r7, r7, #8
 992              	.LCFI33:
 993              		.cfi_def_cfa_offset 8
 994 0058 BD46     		mov	sp, r7
 995              	.LCFI34:
 996              		.cfi_def_cfa_register 13
 997              		@ sp needed
 998 005a 80BD     		pop	{r7, pc}
 999              	.L44:
 1000              		.align	2
 1001              	.L43:
ARM GAS  C:\Users\ep_ygh\AppData\Local\Temp\ccghijkQ.s 			page 27


 1002 005c 002C0140 		.word	1073818624
 1003 0060 00100240 		.word	1073876992
 1004 0064 00080040 		.word	1073743872
 1005              		.cfi_endproc
 1006              	.LFE1096:
 1008              		.section	.text.HAL_TIM_Encoder_MspDeInit,"ax",%progbits
 1009              		.align	1
 1010              		.global	HAL_TIM_Encoder_MspDeInit
 1011              		.syntax unified
 1012              		.thumb
 1013              		.thumb_func
 1015              	HAL_TIM_Encoder_MspDeInit:
 1016              	.LFB1097:
 452:Src/stm32l4xx_hal_msp.c **** 
 453:Src/stm32l4xx_hal_msp.c **** /**
 454:Src/stm32l4xx_hal_msp.c **** * @brief TIM_Encoder MSP De-Initialization
 455:Src/stm32l4xx_hal_msp.c **** * This function freeze the hardware resources used in this example
 456:Src/stm32l4xx_hal_msp.c **** * @param htim_encoder: TIM_Encoder handle pointer
 457:Src/stm32l4xx_hal_msp.c **** * @retval None
 458:Src/stm32l4xx_hal_msp.c **** */
 459:Src/stm32l4xx_hal_msp.c **** void HAL_TIM_Encoder_MspDeInit(TIM_HandleTypeDef* htim_encoder)
 460:Src/stm32l4xx_hal_msp.c **** {
 1017              		.loc 1 460 1
 1018              		.cfi_startproc
 1019              		@ args = 0, pretend = 0, frame = 8
 1020              		@ frame_needed = 1, uses_anonymous_args = 0
 1021 0000 80B5     		push	{r7, lr}
 1022              	.LCFI35:
 1023              		.cfi_def_cfa_offset 8
 1024              		.cfi_offset 7, -8
 1025              		.cfi_offset 14, -4
 1026 0002 82B0     		sub	sp, sp, #8
 1027              	.LCFI36:
 1028              		.cfi_def_cfa_offset 16
 1029 0004 00AF     		add	r7, sp, #0
 1030              	.LCFI37:
 1031              		.cfi_def_cfa_register 7
 1032 0006 7860     		str	r0, [r7, #4]
 461:Src/stm32l4xx_hal_msp.c ****   if(htim_encoder->Instance==TIM3)
 1033              		.loc 1 461 18
 1034 0008 7B68     		ldr	r3, [r7, #4]
 1035 000a 1B68     		ldr	r3, [r3]
 1036              		.loc 1 461 5
 1037 000c 094A     		ldr	r2, .L48
 1038 000e 9342     		cmp	r3, r2
 1039 0010 0CD1     		bne	.L47
 462:Src/stm32l4xx_hal_msp.c ****   {
 463:Src/stm32l4xx_hal_msp.c ****   /* USER CODE BEGIN TIM3_MspDeInit 0 */
 464:Src/stm32l4xx_hal_msp.c **** 
 465:Src/stm32l4xx_hal_msp.c ****   /* USER CODE END TIM3_MspDeInit 0 */
 466:Src/stm32l4xx_hal_msp.c ****     /* Peripheral clock disable */
 467:Src/stm32l4xx_hal_msp.c ****     __HAL_RCC_TIM3_CLK_DISABLE();
 1040              		.loc 1 467 5
 1041 0012 094B     		ldr	r3, .L48+4
 1042 0014 9B6D     		ldr	r3, [r3, #88]
 1043 0016 084A     		ldr	r2, .L48+4
 1044 0018 23F00203 		bic	r3, r3, #2
ARM GAS  C:\Users\ep_ygh\AppData\Local\Temp\ccghijkQ.s 			page 28


 1045 001c 9365     		str	r3, [r2, #88]
 468:Src/stm32l4xx_hal_msp.c **** 
 469:Src/stm32l4xx_hal_msp.c ****     /**TIM3 GPIO Configuration
 470:Src/stm32l4xx_hal_msp.c ****     PC6     ------> TIM3_CH1
 471:Src/stm32l4xx_hal_msp.c ****     PC7     ------> TIM3_CH2
 472:Src/stm32l4xx_hal_msp.c ****     */
 473:Src/stm32l4xx_hal_msp.c ****     HAL_GPIO_DeInit(GPIOC, M1_ENCODER_A_Pin|M1_ENCODER_B_Pin);
 1046              		.loc 1 473 5
 1047 001e C021     		movs	r1, #192
 1048 0020 0648     		ldr	r0, .L48+8
 1049 0022 FFF7FEFF 		bl	HAL_GPIO_DeInit
 474:Src/stm32l4xx_hal_msp.c **** 
 475:Src/stm32l4xx_hal_msp.c ****     /* TIM3 interrupt DeInit */
 476:Src/stm32l4xx_hal_msp.c ****     HAL_NVIC_DisableIRQ(TIM3_IRQn);
 1050              		.loc 1 476 5
 1051 0026 1D20     		movs	r0, #29
 1052 0028 FFF7FEFF 		bl	HAL_NVIC_DisableIRQ
 1053              	.L47:
 477:Src/stm32l4xx_hal_msp.c ****   /* USER CODE BEGIN TIM3_MspDeInit 1 */
 478:Src/stm32l4xx_hal_msp.c **** 
 479:Src/stm32l4xx_hal_msp.c ****   /* USER CODE END TIM3_MspDeInit 1 */
 480:Src/stm32l4xx_hal_msp.c ****   }
 481:Src/stm32l4xx_hal_msp.c **** 
 482:Src/stm32l4xx_hal_msp.c **** }
 1054              		.loc 1 482 1
 1055 002c 00BF     		nop
 1056 002e 0837     		adds	r7, r7, #8
 1057              	.LCFI38:
 1058              		.cfi_def_cfa_offset 8
 1059 0030 BD46     		mov	sp, r7
 1060              	.LCFI39:
 1061              		.cfi_def_cfa_register 13
 1062              		@ sp needed
 1063 0032 80BD     		pop	{r7, pc}
 1064              	.L49:
 1065              		.align	2
 1066              	.L48:
 1067 0034 00040040 		.word	1073742848
 1068 0038 00100240 		.word	1073876992
 1069 003c 00080048 		.word	1207961600
 1070              		.cfi_endproc
 1071              	.LFE1097:
 1073              		.section	.text.HAL_UART_MspInit,"ax",%progbits
 1074              		.align	1
 1075              		.global	HAL_UART_MspInit
 1076              		.syntax unified
 1077              		.thumb
 1078              		.thumb_func
 1080              	HAL_UART_MspInit:
 1081              	.LFB1098:
 483:Src/stm32l4xx_hal_msp.c **** 
 484:Src/stm32l4xx_hal_msp.c **** /**
 485:Src/stm32l4xx_hal_msp.c **** * @brief UART MSP Initialization
 486:Src/stm32l4xx_hal_msp.c **** * This function configures the hardware resources used in this example
 487:Src/stm32l4xx_hal_msp.c **** * @param huart: UART handle pointer
 488:Src/stm32l4xx_hal_msp.c **** * @retval None
 489:Src/stm32l4xx_hal_msp.c **** */
ARM GAS  C:\Users\ep_ygh\AppData\Local\Temp\ccghijkQ.s 			page 29


 490:Src/stm32l4xx_hal_msp.c **** void HAL_UART_MspInit(UART_HandleTypeDef* huart)
 491:Src/stm32l4xx_hal_msp.c **** {
 1082              		.loc 1 491 1
 1083              		.cfi_startproc
 1084              		@ args = 0, pretend = 0, frame = 176
 1085              		@ frame_needed = 1, uses_anonymous_args = 0
 1086 0000 80B5     		push	{r7, lr}
 1087              	.LCFI40:
 1088              		.cfi_def_cfa_offset 8
 1089              		.cfi_offset 7, -8
 1090              		.cfi_offset 14, -4
 1091 0002 ACB0     		sub	sp, sp, #176
 1092              	.LCFI41:
 1093              		.cfi_def_cfa_offset 184
 1094 0004 00AF     		add	r7, sp, #0
 1095              	.LCFI42:
 1096              		.cfi_def_cfa_register 7
 1097 0006 7860     		str	r0, [r7, #4]
 492:Src/stm32l4xx_hal_msp.c ****   GPIO_InitTypeDef GPIO_InitStruct = {0};
 1098              		.loc 1 492 20
 1099 0008 07F19C03 		add	r3, r7, #156
 1100 000c 0022     		movs	r2, #0
 1101 000e 1A60     		str	r2, [r3]
 1102 0010 5A60     		str	r2, [r3, #4]
 1103 0012 9A60     		str	r2, [r3, #8]
 1104 0014 DA60     		str	r2, [r3, #12]
 1105 0016 1A61     		str	r2, [r3, #16]
 493:Src/stm32l4xx_hal_msp.c ****   RCC_PeriphCLKInitTypeDef PeriphClkInit = {0};
 1106              		.loc 1 493 28
 1107 0018 07F11403 		add	r3, r7, #20
 1108 001c 8822     		movs	r2, #136
 1109 001e 0021     		movs	r1, #0
 1110 0020 1846     		mov	r0, r3
 1111 0022 FFF7FEFF 		bl	memset
 494:Src/stm32l4xx_hal_msp.c ****   if(huart->Instance==USART2)
 1112              		.loc 1 494 11
 1113 0026 7B68     		ldr	r3, [r7, #4]
 1114 0028 1B68     		ldr	r3, [r3]
 1115              		.loc 1 494 5
 1116 002a 4B4A     		ldr	r2, .L56
 1117 002c 9342     		cmp	r3, r2
 1118 002e 40F08E80 		bne	.L55
 495:Src/stm32l4xx_hal_msp.c ****   {
 496:Src/stm32l4xx_hal_msp.c ****   /* USER CODE BEGIN USART2_MspInit 0 */
 497:Src/stm32l4xx_hal_msp.c **** 
 498:Src/stm32l4xx_hal_msp.c ****   /* USER CODE END USART2_MspInit 0 */
 499:Src/stm32l4xx_hal_msp.c **** 
 500:Src/stm32l4xx_hal_msp.c ****   /** Initializes the peripherals clock
 501:Src/stm32l4xx_hal_msp.c ****   */
 502:Src/stm32l4xx_hal_msp.c ****     PeriphClkInit.PeriphClockSelection = RCC_PERIPHCLK_USART2;
 1119              		.loc 1 502 40
 1120 0032 0223     		movs	r3, #2
 1121 0034 7B61     		str	r3, [r7, #20]
 503:Src/stm32l4xx_hal_msp.c ****     PeriphClkInit.Usart2ClockSelection = RCC_USART2CLKSOURCE_SYSCLK;
 1122              		.loc 1 503 40
 1123 0036 0423     		movs	r3, #4
 1124 0038 3B65     		str	r3, [r7, #80]
ARM GAS  C:\Users\ep_ygh\AppData\Local\Temp\ccghijkQ.s 			page 30


 504:Src/stm32l4xx_hal_msp.c ****     if (HAL_RCCEx_PeriphCLKConfig(&PeriphClkInit) != HAL_OK)
 1125              		.loc 1 504 9
 1126 003a 07F11403 		add	r3, r7, #20
 1127 003e 1846     		mov	r0, r3
 1128 0040 FFF7FEFF 		bl	HAL_RCCEx_PeriphCLKConfig
 1129 0044 0346     		mov	r3, r0
 1130              		.loc 1 504 8
 1131 0046 002B     		cmp	r3, #0
 1132 0048 01D0     		beq	.L52
 505:Src/stm32l4xx_hal_msp.c ****     {
 506:Src/stm32l4xx_hal_msp.c ****       Error_Handler();
 1133              		.loc 1 506 7
 1134 004a FFF7FEFF 		bl	Error_Handler
 1135              	.L52:
 1136              	.LBB16:
 507:Src/stm32l4xx_hal_msp.c ****     }
 508:Src/stm32l4xx_hal_msp.c **** 
 509:Src/stm32l4xx_hal_msp.c ****     /* Peripheral clock enable */
 510:Src/stm32l4xx_hal_msp.c ****     __HAL_RCC_USART2_CLK_ENABLE();
 1137              		.loc 1 510 5
 1138 004e 434B     		ldr	r3, .L56+4
 1139 0050 9B6D     		ldr	r3, [r3, #88]
 1140 0052 424A     		ldr	r2, .L56+4
 1141 0054 43F40033 		orr	r3, r3, #131072
 1142 0058 9365     		str	r3, [r2, #88]
 1143 005a 404B     		ldr	r3, .L56+4
 1144 005c 9B6D     		ldr	r3, [r3, #88]
 1145 005e 03F40033 		and	r3, r3, #131072
 1146 0062 3B61     		str	r3, [r7, #16]
 1147 0064 3B69     		ldr	r3, [r7, #16]
 1148              	.LBE16:
 1149              	.LBB17:
 511:Src/stm32l4xx_hal_msp.c **** 
 512:Src/stm32l4xx_hal_msp.c ****     __HAL_RCC_GPIOA_CLK_ENABLE();
 1150              		.loc 1 512 5
 1151 0066 3D4B     		ldr	r3, .L56+4
 1152 0068 DB6C     		ldr	r3, [r3, #76]
 1153 006a 3C4A     		ldr	r2, .L56+4
 1154 006c 43F00103 		orr	r3, r3, #1
 1155 0070 D364     		str	r3, [r2, #76]
 1156 0072 3A4B     		ldr	r3, .L56+4
 1157 0074 DB6C     		ldr	r3, [r3, #76]
 1158 0076 03F00103 		and	r3, r3, #1
 1159 007a FB60     		str	r3, [r7, #12]
 1160 007c FB68     		ldr	r3, [r7, #12]
 1161              	.LBE17:
 513:Src/stm32l4xx_hal_msp.c ****     /**USART2 GPIO Configuration
 514:Src/stm32l4xx_hal_msp.c ****     PA2     ------> USART2_TX
 515:Src/stm32l4xx_hal_msp.c ****     PA3     ------> USART2_RX
 516:Src/stm32l4xx_hal_msp.c ****     */
 517:Src/stm32l4xx_hal_msp.c ****     GPIO_InitStruct.Pin = UART_TX_Pin|UART_RX_Pin;
 1162              		.loc 1 517 25
 1163 007e 0C23     		movs	r3, #12
 1164 0080 C7F89C30 		str	r3, [r7, #156]
 518:Src/stm32l4xx_hal_msp.c ****     GPIO_InitStruct.Mode = GPIO_MODE_AF_PP;
 1165              		.loc 1 518 26
 1166 0084 0223     		movs	r3, #2
ARM GAS  C:\Users\ep_ygh\AppData\Local\Temp\ccghijkQ.s 			page 31


 1167 0086 C7F8A030 		str	r3, [r7, #160]
 519:Src/stm32l4xx_hal_msp.c ****     GPIO_InitStruct.Pull = GPIO_NOPULL;
 1168              		.loc 1 519 26
 1169 008a 0023     		movs	r3, #0
 1170 008c C7F8A430 		str	r3, [r7, #164]
 520:Src/stm32l4xx_hal_msp.c ****     GPIO_InitStruct.Speed = GPIO_SPEED_FREQ_LOW;
 1171              		.loc 1 520 27
 1172 0090 0023     		movs	r3, #0
 1173 0092 C7F8A830 		str	r3, [r7, #168]
 521:Src/stm32l4xx_hal_msp.c ****     GPIO_InitStruct.Alternate = GPIO_AF7_USART2;
 1174              		.loc 1 521 31
 1175 0096 0723     		movs	r3, #7
 1176 0098 C7F8AC30 		str	r3, [r7, #172]
 522:Src/stm32l4xx_hal_msp.c ****     HAL_GPIO_Init(GPIOA, &GPIO_InitStruct);
 1177              		.loc 1 522 5
 1178 009c 07F19C03 		add	r3, r7, #156
 1179 00a0 1946     		mov	r1, r3
 1180 00a2 4FF09040 		mov	r0, #1207959552
 1181 00a6 FFF7FEFF 		bl	HAL_GPIO_Init
 523:Src/stm32l4xx_hal_msp.c **** 
 524:Src/stm32l4xx_hal_msp.c ****     /* USART2 DMA Init */
 525:Src/stm32l4xx_hal_msp.c ****     /* USART2_RX Init */
 526:Src/stm32l4xx_hal_msp.c ****     hdma_usart2_rx.Instance = DMA1_Channel6;
 1182              		.loc 1 526 29
 1183 00aa 2D4B     		ldr	r3, .L56+8
 1184 00ac 2D4A     		ldr	r2, .L56+12
 1185 00ae 1A60     		str	r2, [r3]
 527:Src/stm32l4xx_hal_msp.c ****     hdma_usart2_rx.Init.Request = DMA_REQUEST_2;
 1186              		.loc 1 527 33
 1187 00b0 2B4B     		ldr	r3, .L56+8
 1188 00b2 0222     		movs	r2, #2
 1189 00b4 5A60     		str	r2, [r3, #4]
 528:Src/stm32l4xx_hal_msp.c ****     hdma_usart2_rx.Init.Direction = DMA_PERIPH_TO_MEMORY;
 1190              		.loc 1 528 35
 1191 00b6 2A4B     		ldr	r3, .L56+8
 1192 00b8 0022     		movs	r2, #0
 1193 00ba 9A60     		str	r2, [r3, #8]
 529:Src/stm32l4xx_hal_msp.c ****     hdma_usart2_rx.Init.PeriphInc = DMA_PINC_DISABLE;
 1194              		.loc 1 529 35
 1195 00bc 284B     		ldr	r3, .L56+8
 1196 00be 0022     		movs	r2, #0
 1197 00c0 DA60     		str	r2, [r3, #12]
 530:Src/stm32l4xx_hal_msp.c ****     hdma_usart2_rx.Init.MemInc = DMA_MINC_ENABLE;
 1198              		.loc 1 530 32
 1199 00c2 274B     		ldr	r3, .L56+8
 1200 00c4 8022     		movs	r2, #128
 1201 00c6 1A61     		str	r2, [r3, #16]
 531:Src/stm32l4xx_hal_msp.c ****     hdma_usart2_rx.Init.PeriphDataAlignment = DMA_PDATAALIGN_BYTE;
 1202              		.loc 1 531 45
 1203 00c8 254B     		ldr	r3, .L56+8
 1204 00ca 0022     		movs	r2, #0
 1205 00cc 5A61     		str	r2, [r3, #20]
 532:Src/stm32l4xx_hal_msp.c ****     hdma_usart2_rx.Init.MemDataAlignment = DMA_MDATAALIGN_BYTE;
 1206              		.loc 1 532 42
 1207 00ce 244B     		ldr	r3, .L56+8
 1208 00d0 0022     		movs	r2, #0
 1209 00d2 9A61     		str	r2, [r3, #24]
ARM GAS  C:\Users\ep_ygh\AppData\Local\Temp\ccghijkQ.s 			page 32


 533:Src/stm32l4xx_hal_msp.c ****     hdma_usart2_rx.Init.Mode = DMA_NORMAL;
 1210              		.loc 1 533 30
 1211 00d4 224B     		ldr	r3, .L56+8
 1212 00d6 0022     		movs	r2, #0
 1213 00d8 DA61     		str	r2, [r3, #28]
 534:Src/stm32l4xx_hal_msp.c ****     hdma_usart2_rx.Init.Priority = DMA_PRIORITY_LOW;
 1214              		.loc 1 534 34
 1215 00da 214B     		ldr	r3, .L56+8
 1216 00dc 0022     		movs	r2, #0
 1217 00de 1A62     		str	r2, [r3, #32]
 535:Src/stm32l4xx_hal_msp.c ****     if (HAL_DMA_Init(&hdma_usart2_rx) != HAL_OK)
 1218              		.loc 1 535 9
 1219 00e0 1F48     		ldr	r0, .L56+8
 1220 00e2 FFF7FEFF 		bl	HAL_DMA_Init
 1221 00e6 0346     		mov	r3, r0
 1222              		.loc 1 535 8
 1223 00e8 002B     		cmp	r3, #0
 1224 00ea 01D0     		beq	.L53
 536:Src/stm32l4xx_hal_msp.c ****     {
 537:Src/stm32l4xx_hal_msp.c ****       Error_Handler();
 1225              		.loc 1 537 7
 1226 00ec FFF7FEFF 		bl	Error_Handler
 1227              	.L53:
 538:Src/stm32l4xx_hal_msp.c ****     }
 539:Src/stm32l4xx_hal_msp.c **** 
 540:Src/stm32l4xx_hal_msp.c ****     __HAL_LINKDMA(huart,hdmarx,hdma_usart2_rx);
 1228              		.loc 1 540 5
 1229 00f0 7B68     		ldr	r3, [r7, #4]
 1230 00f2 1B4A     		ldr	r2, .L56+8
 1231 00f4 5A67     		str	r2, [r3, #116]
 1232 00f6 1A4A     		ldr	r2, .L56+8
 1233 00f8 7B68     		ldr	r3, [r7, #4]
 1234 00fa 9362     		str	r3, [r2, #40]
 541:Src/stm32l4xx_hal_msp.c **** 
 542:Src/stm32l4xx_hal_msp.c ****     /* USART2_TX Init */
 543:Src/stm32l4xx_hal_msp.c ****     hdma_usart2_tx.Instance = DMA1_Channel7;
 1235              		.loc 1 543 29
 1236 00fc 1A4B     		ldr	r3, .L56+16
 1237 00fe 1B4A     		ldr	r2, .L56+20
 1238 0100 1A60     		str	r2, [r3]
 544:Src/stm32l4xx_hal_msp.c ****     hdma_usart2_tx.Init.Request = DMA_REQUEST_2;
 1239              		.loc 1 544 33
 1240 0102 194B     		ldr	r3, .L56+16
 1241 0104 0222     		movs	r2, #2
 1242 0106 5A60     		str	r2, [r3, #4]
 545:Src/stm32l4xx_hal_msp.c ****     hdma_usart2_tx.Init.Direction = DMA_MEMORY_TO_PERIPH;
 1243              		.loc 1 545 35
 1244 0108 174B     		ldr	r3, .L56+16
 1245 010a 1022     		movs	r2, #16
 1246 010c 9A60     		str	r2, [r3, #8]
 546:Src/stm32l4xx_hal_msp.c ****     hdma_usart2_tx.Init.PeriphInc = DMA_PINC_DISABLE;
 1247              		.loc 1 546 35
 1248 010e 164B     		ldr	r3, .L56+16
 1249 0110 0022     		movs	r2, #0
 1250 0112 DA60     		str	r2, [r3, #12]
 547:Src/stm32l4xx_hal_msp.c ****     hdma_usart2_tx.Init.MemInc = DMA_MINC_ENABLE;
 1251              		.loc 1 547 32
ARM GAS  C:\Users\ep_ygh\AppData\Local\Temp\ccghijkQ.s 			page 33


 1252 0114 144B     		ldr	r3, .L56+16
 1253 0116 8022     		movs	r2, #128
 1254 0118 1A61     		str	r2, [r3, #16]
 548:Src/stm32l4xx_hal_msp.c ****     hdma_usart2_tx.Init.PeriphDataAlignment = DMA_PDATAALIGN_BYTE;
 1255              		.loc 1 548 45
 1256 011a 134B     		ldr	r3, .L56+16
 1257 011c 0022     		movs	r2, #0
 1258 011e 5A61     		str	r2, [r3, #20]
 549:Src/stm32l4xx_hal_msp.c ****     hdma_usart2_tx.Init.MemDataAlignment = DMA_MDATAALIGN_BYTE;
 1259              		.loc 1 549 42
 1260 0120 114B     		ldr	r3, .L56+16
 1261 0122 0022     		movs	r2, #0
 1262 0124 9A61     		str	r2, [r3, #24]
 550:Src/stm32l4xx_hal_msp.c ****     hdma_usart2_tx.Init.Mode = DMA_NORMAL;
 1263              		.loc 1 550 30
 1264 0126 104B     		ldr	r3, .L56+16
 1265 0128 0022     		movs	r2, #0
 1266 012a DA61     		str	r2, [r3, #28]
 551:Src/stm32l4xx_hal_msp.c ****     hdma_usart2_tx.Init.Priority = DMA_PRIORITY_LOW;
 1267              		.loc 1 551 34
 1268 012c 0E4B     		ldr	r3, .L56+16
 1269 012e 0022     		movs	r2, #0
 1270 0130 1A62     		str	r2, [r3, #32]
 552:Src/stm32l4xx_hal_msp.c ****     if (HAL_DMA_Init(&hdma_usart2_tx) != HAL_OK)
 1271              		.loc 1 552 9
 1272 0132 0D48     		ldr	r0, .L56+16
 1273 0134 FFF7FEFF 		bl	HAL_DMA_Init
 1274 0138 0346     		mov	r3, r0
 1275              		.loc 1 552 8
 1276 013a 002B     		cmp	r3, #0
 1277 013c 01D0     		beq	.L54
 553:Src/stm32l4xx_hal_msp.c ****     {
 554:Src/stm32l4xx_hal_msp.c ****       Error_Handler();
 1278              		.loc 1 554 7
 1279 013e FFF7FEFF 		bl	Error_Handler
 1280              	.L54:
 555:Src/stm32l4xx_hal_msp.c ****     }
 556:Src/stm32l4xx_hal_msp.c **** 
 557:Src/stm32l4xx_hal_msp.c ****     __HAL_LINKDMA(huart,hdmatx,hdma_usart2_tx);
 1281              		.loc 1 557 5
 1282 0142 7B68     		ldr	r3, [r7, #4]
 1283 0144 084A     		ldr	r2, .L56+16
 1284 0146 1A67     		str	r2, [r3, #112]
 1285 0148 074A     		ldr	r2, .L56+16
 1286 014a 7B68     		ldr	r3, [r7, #4]
 1287 014c 9362     		str	r3, [r2, #40]
 1288              	.L55:
 558:Src/stm32l4xx_hal_msp.c **** 
 559:Src/stm32l4xx_hal_msp.c ****   /* USER CODE BEGIN USART2_MspInit 1 */
 560:Src/stm32l4xx_hal_msp.c **** 
 561:Src/stm32l4xx_hal_msp.c ****   /* USER CODE END USART2_MspInit 1 */
 562:Src/stm32l4xx_hal_msp.c **** 
 563:Src/stm32l4xx_hal_msp.c ****   }
 564:Src/stm32l4xx_hal_msp.c **** 
 565:Src/stm32l4xx_hal_msp.c **** }
 1289              		.loc 1 565 1
 1290 014e 00BF     		nop
ARM GAS  C:\Users\ep_ygh\AppData\Local\Temp\ccghijkQ.s 			page 34


 1291 0150 B037     		adds	r7, r7, #176
 1292              	.LCFI43:
 1293              		.cfi_def_cfa_offset 8
 1294 0152 BD46     		mov	sp, r7
 1295              	.LCFI44:
 1296              		.cfi_def_cfa_register 13
 1297              		@ sp needed
 1298 0154 80BD     		pop	{r7, pc}
 1299              	.L57:
 1300 0156 00BF     		.align	2
 1301              	.L56:
 1302 0158 00440040 		.word	1073759232
 1303 015c 00100240 		.word	1073876992
 1304 0160 00000000 		.word	hdma_usart2_rx
 1305 0164 6C000240 		.word	1073873004
 1306 0168 00000000 		.word	hdma_usart2_tx
 1307 016c 80000240 		.word	1073873024
 1308              		.cfi_endproc
 1309              	.LFE1098:
 1311              		.section	.text.HAL_UART_MspDeInit,"ax",%progbits
 1312              		.align	1
 1313              		.global	HAL_UART_MspDeInit
 1314              		.syntax unified
 1315              		.thumb
 1316              		.thumb_func
 1318              	HAL_UART_MspDeInit:
 1319              	.LFB1099:
 566:Src/stm32l4xx_hal_msp.c **** 
 567:Src/stm32l4xx_hal_msp.c **** /**
 568:Src/stm32l4xx_hal_msp.c **** * @brief UART MSP De-Initialization
 569:Src/stm32l4xx_hal_msp.c **** * This function freeze the hardware resources used in this example
 570:Src/stm32l4xx_hal_msp.c **** * @param huart: UART handle pointer
 571:Src/stm32l4xx_hal_msp.c **** * @retval None
 572:Src/stm32l4xx_hal_msp.c **** */
 573:Src/stm32l4xx_hal_msp.c **** void HAL_UART_MspDeInit(UART_HandleTypeDef* huart)
 574:Src/stm32l4xx_hal_msp.c **** {
 1320              		.loc 1 574 1
 1321              		.cfi_startproc
 1322              		@ args = 0, pretend = 0, frame = 8
 1323              		@ frame_needed = 1, uses_anonymous_args = 0
 1324 0000 80B5     		push	{r7, lr}
 1325              	.LCFI45:
 1326              		.cfi_def_cfa_offset 8
 1327              		.cfi_offset 7, -8
 1328              		.cfi_offset 14, -4
 1329 0002 82B0     		sub	sp, sp, #8
 1330              	.LCFI46:
 1331              		.cfi_def_cfa_offset 16
 1332 0004 00AF     		add	r7, sp, #0
 1333              	.LCFI47:
 1334              		.cfi_def_cfa_register 7
 1335 0006 7860     		str	r0, [r7, #4]
 575:Src/stm32l4xx_hal_msp.c ****   if(huart->Instance==USART2)
 1336              		.loc 1 575 11
 1337 0008 7B68     		ldr	r3, [r7, #4]
 1338 000a 1B68     		ldr	r3, [r3]
 1339              		.loc 1 575 5
ARM GAS  C:\Users\ep_ygh\AppData\Local\Temp\ccghijkQ.s 			page 35


 1340 000c 0F4A     		ldr	r2, .L61
 1341 000e 9342     		cmp	r3, r2
 1342 0010 17D1     		bne	.L60
 576:Src/stm32l4xx_hal_msp.c ****   {
 577:Src/stm32l4xx_hal_msp.c ****   /* USER CODE BEGIN USART2_MspDeInit 0 */
 578:Src/stm32l4xx_hal_msp.c **** 
 579:Src/stm32l4xx_hal_msp.c ****   /* USER CODE END USART2_MspDeInit 0 */
 580:Src/stm32l4xx_hal_msp.c ****     /* Peripheral clock disable */
 581:Src/stm32l4xx_hal_msp.c ****     __HAL_RCC_USART2_CLK_DISABLE();
 1343              		.loc 1 581 5
 1344 0012 0F4B     		ldr	r3, .L61+4
 1345 0014 9B6D     		ldr	r3, [r3, #88]
 1346 0016 0E4A     		ldr	r2, .L61+4
 1347 0018 23F40033 		bic	r3, r3, #131072
 1348 001c 9365     		str	r3, [r2, #88]
 582:Src/stm32l4xx_hal_msp.c **** 
 583:Src/stm32l4xx_hal_msp.c ****     /**USART2 GPIO Configuration
 584:Src/stm32l4xx_hal_msp.c ****     PA2     ------> USART2_TX
 585:Src/stm32l4xx_hal_msp.c ****     PA3     ------> USART2_RX
 586:Src/stm32l4xx_hal_msp.c ****     */
 587:Src/stm32l4xx_hal_msp.c ****     HAL_GPIO_DeInit(GPIOA, UART_TX_Pin|UART_RX_Pin);
 1349              		.loc 1 587 5
 1350 001e 0C21     		movs	r1, #12
 1351 0020 4FF09040 		mov	r0, #1207959552
 1352 0024 FFF7FEFF 		bl	HAL_GPIO_DeInit
 588:Src/stm32l4xx_hal_msp.c **** 
 589:Src/stm32l4xx_hal_msp.c ****     /* USART2 DMA DeInit */
 590:Src/stm32l4xx_hal_msp.c ****     HAL_DMA_DeInit(huart->hdmarx);
 1353              		.loc 1 590 5
 1354 0028 7B68     		ldr	r3, [r7, #4]
 1355 002a 5B6F     		ldr	r3, [r3, #116]
 1356 002c 1846     		mov	r0, r3
 1357 002e FFF7FEFF 		bl	HAL_DMA_DeInit
 591:Src/stm32l4xx_hal_msp.c ****     HAL_DMA_DeInit(huart->hdmatx);
 1358              		.loc 1 591 5
 1359 0032 7B68     		ldr	r3, [r7, #4]
 1360 0034 1B6F     		ldr	r3, [r3, #112]
 1361 0036 1846     		mov	r0, r3
 1362 0038 FFF7FEFF 		bl	HAL_DMA_DeInit
 592:Src/stm32l4xx_hal_msp.c **** 
 593:Src/stm32l4xx_hal_msp.c ****     /* USART2 interrupt DeInit */
 594:Src/stm32l4xx_hal_msp.c ****     HAL_NVIC_DisableIRQ(USART2_IRQn);
 1363              		.loc 1 594 5
 1364 003c 2620     		movs	r0, #38
 1365 003e FFF7FEFF 		bl	HAL_NVIC_DisableIRQ
 1366              	.L60:
 595:Src/stm32l4xx_hal_msp.c ****   /* USER CODE BEGIN USART2_MspDeInit 1 */
 596:Src/stm32l4xx_hal_msp.c **** 
 597:Src/stm32l4xx_hal_msp.c ****   /* USER CODE END USART2_MspDeInit 1 */
 598:Src/stm32l4xx_hal_msp.c ****   }
 599:Src/stm32l4xx_hal_msp.c **** 
 600:Src/stm32l4xx_hal_msp.c **** }
 1367              		.loc 1 600 1
 1368 0042 00BF     		nop
 1369 0044 0837     		adds	r7, r7, #8
 1370              	.LCFI48:
 1371              		.cfi_def_cfa_offset 8
ARM GAS  C:\Users\ep_ygh\AppData\Local\Temp\ccghijkQ.s 			page 36


 1372 0046 BD46     		mov	sp, r7
 1373              	.LCFI49:
 1374              		.cfi_def_cfa_register 13
 1375              		@ sp needed
 1376 0048 80BD     		pop	{r7, pc}
 1377              	.L62:
 1378 004a 00BF     		.align	2
 1379              	.L61:
 1380 004c 00440040 		.word	1073759232
 1381 0050 00100240 		.word	1073876992
 1382              		.cfi_endproc
 1383              	.LFE1099:
 1385              		.text
 1386              	.Letext0:
 1387              		.file 2 "c:\\programdata\\chocolatey\\lib\\gcc-arm-embedded\\tools\\gcc-arm-none-eabi-10.3-2021.10
 1388              		.file 3 "c:\\programdata\\chocolatey\\lib\\gcc-arm-embedded\\tools\\gcc-arm-none-eabi-10.3-2021.10
 1389              		.file 4 "Drivers/CMSIS/Device/ST/STM32L4xx/Include/stm32l476xx.h"
 1390              		.file 5 "Drivers/CMSIS/Device/ST/STM32L4xx/Include/stm32l4xx.h"
 1391              		.file 6 "Drivers/STM32L4xx_HAL_Driver/Inc/stm32l4xx_hal_def.h"
 1392              		.file 7 "Drivers/STM32L4xx_HAL_Driver/Inc/stm32l4xx_hal_rcc_ex.h"
 1393              		.file 8 "Drivers/STM32L4xx_HAL_Driver/Inc/stm32l4xx_hal_gpio.h"
 1394              		.file 9 "Drivers/STM32L4xx_HAL_Driver/Inc/stm32l4xx_hal_dma.h"
 1395              		.file 10 "Drivers/STM32L4xx_HAL_Driver/Inc/stm32l4xx_hal_adc.h"
 1396              		.file 11 "Drivers/STM32L4xx_HAL_Driver/Inc/stm32l4xx_hal_tim.h"
 1397              		.file 12 "Drivers/STM32L4xx_HAL_Driver/Inc/stm32l4xx_hal_uart.h"
 1398              		.file 13 "Drivers/STM32L4xx_HAL_Driver/Inc/stm32l4xx_ll_tim.h"
 1399              		.file 14 "Drivers/STM32L4xx_HAL_Driver/Inc/stm32l4xx_ll_dma.h"
ARM GAS  C:\Users\ep_ygh\AppData\Local\Temp\ccghijkQ.s 			page 37

