ARM GAS  C:\Users\ep_ygh\AppData\Local\Temp\ccr8O3zb.s 			page 1


   1              		.cpu cortex-m4
   2              		.arch armv7e-m
   3              		.fpu fpv4-sp-d16
   4              		.eabi_attribute 27, 1
   5              		.eabi_attribute 28, 1
   6              		.eabi_attribute 20, 1
   7              		.eabi_attribute 21, 1
   8              		.eabi_attribute 23, 3
   9              		.eabi_attribute 24, 1
  10              		.eabi_attribute 25, 1
  11              		.eabi_attribute 26, 1
  12              		.eabi_attribute 30, 6
  13              		.eabi_attribute 34, 1
  14              		.eabi_attribute 18, 4
  15              		.file	"stm32l4xx_hal_uart_ex.c"
  16              		.text
  17              	.Ltext0:
  18              		.cfi_sections	.debug_frame
  19              		.section	.text.HAL_RS485Ex_Init,"ax",%progbits
  20              		.align	1
  21              		.global	HAL_RS485Ex_Init
  22              		.syntax unified
  23              		.thumb
  24              		.thumb_func
  26              	HAL_RS485Ex_Init:
  27              	.LFB317:
  28              		.file 1 "Drivers/STM32L4xx_HAL_Driver/Src/stm32l4xx_hal_uart_ex.c"
   1:Drivers/STM32L4xx_HAL_Driver/Src/stm32l4xx_hal_uart_ex.c **** /**
   2:Drivers/STM32L4xx_HAL_Driver/Src/stm32l4xx_hal_uart_ex.c ****   ******************************************************************************
   3:Drivers/STM32L4xx_HAL_Driver/Src/stm32l4xx_hal_uart_ex.c ****   * @file    stm32l4xx_hal_uart_ex.c
   4:Drivers/STM32L4xx_HAL_Driver/Src/stm32l4xx_hal_uart_ex.c ****   * @author  MCD Application Team
   5:Drivers/STM32L4xx_HAL_Driver/Src/stm32l4xx_hal_uart_ex.c ****   * @brief   Extended UART HAL module driver.
   6:Drivers/STM32L4xx_HAL_Driver/Src/stm32l4xx_hal_uart_ex.c ****   *          This file provides firmware functions to manage the following extended
   7:Drivers/STM32L4xx_HAL_Driver/Src/stm32l4xx_hal_uart_ex.c ****   *          functionalities of the Universal Asynchronous Receiver Transmitter Peripheral (UART).
   8:Drivers/STM32L4xx_HAL_Driver/Src/stm32l4xx_hal_uart_ex.c ****   *           + Initialization and de-initialization functions
   9:Drivers/STM32L4xx_HAL_Driver/Src/stm32l4xx_hal_uart_ex.c ****   *           + Peripheral Control functions
  10:Drivers/STM32L4xx_HAL_Driver/Src/stm32l4xx_hal_uart_ex.c ****   *
  11:Drivers/STM32L4xx_HAL_Driver/Src/stm32l4xx_hal_uart_ex.c ****   *
  12:Drivers/STM32L4xx_HAL_Driver/Src/stm32l4xx_hal_uart_ex.c ****   ******************************************************************************
  13:Drivers/STM32L4xx_HAL_Driver/Src/stm32l4xx_hal_uart_ex.c ****   * @attention
  14:Drivers/STM32L4xx_HAL_Driver/Src/stm32l4xx_hal_uart_ex.c ****   *
  15:Drivers/STM32L4xx_HAL_Driver/Src/stm32l4xx_hal_uart_ex.c ****   * Copyright (c) 2017 STMicroelectronics.
  16:Drivers/STM32L4xx_HAL_Driver/Src/stm32l4xx_hal_uart_ex.c ****   * All rights reserved.
  17:Drivers/STM32L4xx_HAL_Driver/Src/stm32l4xx_hal_uart_ex.c ****   *
  18:Drivers/STM32L4xx_HAL_Driver/Src/stm32l4xx_hal_uart_ex.c ****   * This software is licensed under terms that can be found in the LICENSE file
  19:Drivers/STM32L4xx_HAL_Driver/Src/stm32l4xx_hal_uart_ex.c ****   * in the root directory of this software component.
  20:Drivers/STM32L4xx_HAL_Driver/Src/stm32l4xx_hal_uart_ex.c ****   * If no LICENSE file comes with this software, it is provided AS-IS.
  21:Drivers/STM32L4xx_HAL_Driver/Src/stm32l4xx_hal_uart_ex.c ****   *
  22:Drivers/STM32L4xx_HAL_Driver/Src/stm32l4xx_hal_uart_ex.c ****   ******************************************************************************
  23:Drivers/STM32L4xx_HAL_Driver/Src/stm32l4xx_hal_uart_ex.c ****   @verbatim
  24:Drivers/STM32L4xx_HAL_Driver/Src/stm32l4xx_hal_uart_ex.c ****   ==============================================================================
  25:Drivers/STM32L4xx_HAL_Driver/Src/stm32l4xx_hal_uart_ex.c ****                ##### UART peripheral extended features  #####
  26:Drivers/STM32L4xx_HAL_Driver/Src/stm32l4xx_hal_uart_ex.c ****   ==============================================================================
  27:Drivers/STM32L4xx_HAL_Driver/Src/stm32l4xx_hal_uart_ex.c **** 
  28:Drivers/STM32L4xx_HAL_Driver/Src/stm32l4xx_hal_uart_ex.c ****     (#) Declare a UART_HandleTypeDef handle structure.
  29:Drivers/STM32L4xx_HAL_Driver/Src/stm32l4xx_hal_uart_ex.c **** 
  30:Drivers/STM32L4xx_HAL_Driver/Src/stm32l4xx_hal_uart_ex.c ****     (#) For the UART RS485 Driver Enable mode, initialize the UART registers
ARM GAS  C:\Users\ep_ygh\AppData\Local\Temp\ccr8O3zb.s 			page 2


  31:Drivers/STM32L4xx_HAL_Driver/Src/stm32l4xx_hal_uart_ex.c ****         by calling the HAL_RS485Ex_Init() API.
  32:Drivers/STM32L4xx_HAL_Driver/Src/stm32l4xx_hal_uart_ex.c **** 
  33:Drivers/STM32L4xx_HAL_Driver/Src/stm32l4xx_hal_uart_ex.c ****     (#) FIFO mode enabling/disabling and RX/TX FIFO threshold programming.
  34:Drivers/STM32L4xx_HAL_Driver/Src/stm32l4xx_hal_uart_ex.c **** 
  35:Drivers/STM32L4xx_HAL_Driver/Src/stm32l4xx_hal_uart_ex.c ****         -@- When UART operates in FIFO mode, FIFO mode must be enabled prior
  36:Drivers/STM32L4xx_HAL_Driver/Src/stm32l4xx_hal_uart_ex.c ****             starting RX/TX transfers. Also RX/TX FIFO thresholds must be
  37:Drivers/STM32L4xx_HAL_Driver/Src/stm32l4xx_hal_uart_ex.c ****             configured prior starting RX/TX transfers.
  38:Drivers/STM32L4xx_HAL_Driver/Src/stm32l4xx_hal_uart_ex.c **** 
  39:Drivers/STM32L4xx_HAL_Driver/Src/stm32l4xx_hal_uart_ex.c ****   @endverbatim
  40:Drivers/STM32L4xx_HAL_Driver/Src/stm32l4xx_hal_uart_ex.c ****   ******************************************************************************
  41:Drivers/STM32L4xx_HAL_Driver/Src/stm32l4xx_hal_uart_ex.c ****   */
  42:Drivers/STM32L4xx_HAL_Driver/Src/stm32l4xx_hal_uart_ex.c **** 
  43:Drivers/STM32L4xx_HAL_Driver/Src/stm32l4xx_hal_uart_ex.c **** /* Includes ------------------------------------------------------------------*/
  44:Drivers/STM32L4xx_HAL_Driver/Src/stm32l4xx_hal_uart_ex.c **** #include "stm32l4xx_hal.h"
  45:Drivers/STM32L4xx_HAL_Driver/Src/stm32l4xx_hal_uart_ex.c **** 
  46:Drivers/STM32L4xx_HAL_Driver/Src/stm32l4xx_hal_uart_ex.c **** /** @addtogroup STM32L4xx_HAL_Driver
  47:Drivers/STM32L4xx_HAL_Driver/Src/stm32l4xx_hal_uart_ex.c ****   * @{
  48:Drivers/STM32L4xx_HAL_Driver/Src/stm32l4xx_hal_uart_ex.c ****   */
  49:Drivers/STM32L4xx_HAL_Driver/Src/stm32l4xx_hal_uart_ex.c **** 
  50:Drivers/STM32L4xx_HAL_Driver/Src/stm32l4xx_hal_uart_ex.c **** /** @defgroup UARTEx UARTEx
  51:Drivers/STM32L4xx_HAL_Driver/Src/stm32l4xx_hal_uart_ex.c ****   * @brief UART Extended HAL module driver
  52:Drivers/STM32L4xx_HAL_Driver/Src/stm32l4xx_hal_uart_ex.c ****   * @{
  53:Drivers/STM32L4xx_HAL_Driver/Src/stm32l4xx_hal_uart_ex.c ****   */
  54:Drivers/STM32L4xx_HAL_Driver/Src/stm32l4xx_hal_uart_ex.c **** 
  55:Drivers/STM32L4xx_HAL_Driver/Src/stm32l4xx_hal_uart_ex.c **** #ifdef HAL_UART_MODULE_ENABLED
  56:Drivers/STM32L4xx_HAL_Driver/Src/stm32l4xx_hal_uart_ex.c **** 
  57:Drivers/STM32L4xx_HAL_Driver/Src/stm32l4xx_hal_uart_ex.c **** /* Private typedef -----------------------------------------------------------*/
  58:Drivers/STM32L4xx_HAL_Driver/Src/stm32l4xx_hal_uart_ex.c **** /* Private define ------------------------------------------------------------*/
  59:Drivers/STM32L4xx_HAL_Driver/Src/stm32l4xx_hal_uart_ex.c **** #if defined(USART_CR1_FIFOEN)
  60:Drivers/STM32L4xx_HAL_Driver/Src/stm32l4xx_hal_uart_ex.c **** /** @defgroup UARTEX_Private_Constants UARTEx Private Constants
  61:Drivers/STM32L4xx_HAL_Driver/Src/stm32l4xx_hal_uart_ex.c ****   * @{
  62:Drivers/STM32L4xx_HAL_Driver/Src/stm32l4xx_hal_uart_ex.c ****   */
  63:Drivers/STM32L4xx_HAL_Driver/Src/stm32l4xx_hal_uart_ex.c **** /* UART RX FIFO depth */
  64:Drivers/STM32L4xx_HAL_Driver/Src/stm32l4xx_hal_uart_ex.c **** #define RX_FIFO_DEPTH 8U
  65:Drivers/STM32L4xx_HAL_Driver/Src/stm32l4xx_hal_uart_ex.c **** 
  66:Drivers/STM32L4xx_HAL_Driver/Src/stm32l4xx_hal_uart_ex.c **** /* UART TX FIFO depth */
  67:Drivers/STM32L4xx_HAL_Driver/Src/stm32l4xx_hal_uart_ex.c **** #define TX_FIFO_DEPTH 8U
  68:Drivers/STM32L4xx_HAL_Driver/Src/stm32l4xx_hal_uart_ex.c **** /**
  69:Drivers/STM32L4xx_HAL_Driver/Src/stm32l4xx_hal_uart_ex.c ****   * @}
  70:Drivers/STM32L4xx_HAL_Driver/Src/stm32l4xx_hal_uart_ex.c ****   */
  71:Drivers/STM32L4xx_HAL_Driver/Src/stm32l4xx_hal_uart_ex.c **** #endif /* USART_CR1_FIFOEN */
  72:Drivers/STM32L4xx_HAL_Driver/Src/stm32l4xx_hal_uart_ex.c **** 
  73:Drivers/STM32L4xx_HAL_Driver/Src/stm32l4xx_hal_uart_ex.c **** /* Private macros ------------------------------------------------------------*/
  74:Drivers/STM32L4xx_HAL_Driver/Src/stm32l4xx_hal_uart_ex.c **** /* Private variables ---------------------------------------------------------*/
  75:Drivers/STM32L4xx_HAL_Driver/Src/stm32l4xx_hal_uart_ex.c **** /* Private function prototypes -----------------------------------------------*/
  76:Drivers/STM32L4xx_HAL_Driver/Src/stm32l4xx_hal_uart_ex.c **** /** @defgroup UARTEx_Private_Functions UARTEx Private Functions
  77:Drivers/STM32L4xx_HAL_Driver/Src/stm32l4xx_hal_uart_ex.c ****   * @{
  78:Drivers/STM32L4xx_HAL_Driver/Src/stm32l4xx_hal_uart_ex.c ****   */
  79:Drivers/STM32L4xx_HAL_Driver/Src/stm32l4xx_hal_uart_ex.c **** static void UARTEx_Wakeup_AddressConfig(UART_HandleTypeDef *huart, UART_WakeUpTypeDef WakeUpSelecti
  80:Drivers/STM32L4xx_HAL_Driver/Src/stm32l4xx_hal_uart_ex.c **** #if defined(USART_CR1_FIFOEN)
  81:Drivers/STM32L4xx_HAL_Driver/Src/stm32l4xx_hal_uart_ex.c **** static void UARTEx_SetNbDataToProcess(UART_HandleTypeDef *huart);
  82:Drivers/STM32L4xx_HAL_Driver/Src/stm32l4xx_hal_uart_ex.c **** #endif /* USART_CR1_FIFOEN */
  83:Drivers/STM32L4xx_HAL_Driver/Src/stm32l4xx_hal_uart_ex.c **** /**
  84:Drivers/STM32L4xx_HAL_Driver/Src/stm32l4xx_hal_uart_ex.c ****   * @}
  85:Drivers/STM32L4xx_HAL_Driver/Src/stm32l4xx_hal_uart_ex.c ****   */
  86:Drivers/STM32L4xx_HAL_Driver/Src/stm32l4xx_hal_uart_ex.c **** 
  87:Drivers/STM32L4xx_HAL_Driver/Src/stm32l4xx_hal_uart_ex.c **** /* Exported functions --------------------------------------------------------*/
ARM GAS  C:\Users\ep_ygh\AppData\Local\Temp\ccr8O3zb.s 			page 3


  88:Drivers/STM32L4xx_HAL_Driver/Src/stm32l4xx_hal_uart_ex.c **** 
  89:Drivers/STM32L4xx_HAL_Driver/Src/stm32l4xx_hal_uart_ex.c **** /** @defgroup UARTEx_Exported_Functions  UARTEx Exported Functions
  90:Drivers/STM32L4xx_HAL_Driver/Src/stm32l4xx_hal_uart_ex.c ****   * @{
  91:Drivers/STM32L4xx_HAL_Driver/Src/stm32l4xx_hal_uart_ex.c ****   */
  92:Drivers/STM32L4xx_HAL_Driver/Src/stm32l4xx_hal_uart_ex.c **** 
  93:Drivers/STM32L4xx_HAL_Driver/Src/stm32l4xx_hal_uart_ex.c **** /** @defgroup UARTEx_Exported_Functions_Group1 Initialization and de-initialization functions
  94:Drivers/STM32L4xx_HAL_Driver/Src/stm32l4xx_hal_uart_ex.c ****   * @brief    Extended Initialization and Configuration Functions
  95:Drivers/STM32L4xx_HAL_Driver/Src/stm32l4xx_hal_uart_ex.c ****   *
  96:Drivers/STM32L4xx_HAL_Driver/Src/stm32l4xx_hal_uart_ex.c **** @verbatim
  97:Drivers/STM32L4xx_HAL_Driver/Src/stm32l4xx_hal_uart_ex.c **** ===============================================================================
  98:Drivers/STM32L4xx_HAL_Driver/Src/stm32l4xx_hal_uart_ex.c ****             ##### Initialization and Configuration functions #####
  99:Drivers/STM32L4xx_HAL_Driver/Src/stm32l4xx_hal_uart_ex.c ****  ===============================================================================
 100:Drivers/STM32L4xx_HAL_Driver/Src/stm32l4xx_hal_uart_ex.c ****     [..]
 101:Drivers/STM32L4xx_HAL_Driver/Src/stm32l4xx_hal_uart_ex.c ****     This subsection provides a set of functions allowing to initialize the USARTx or the UARTy
 102:Drivers/STM32L4xx_HAL_Driver/Src/stm32l4xx_hal_uart_ex.c ****     in asynchronous mode.
 103:Drivers/STM32L4xx_HAL_Driver/Src/stm32l4xx_hal_uart_ex.c ****       (+) For the asynchronous mode the parameters below can be configured:
 104:Drivers/STM32L4xx_HAL_Driver/Src/stm32l4xx_hal_uart_ex.c ****         (++) Baud Rate
 105:Drivers/STM32L4xx_HAL_Driver/Src/stm32l4xx_hal_uart_ex.c ****         (++) Word Length
 106:Drivers/STM32L4xx_HAL_Driver/Src/stm32l4xx_hal_uart_ex.c ****         (++) Stop Bit
 107:Drivers/STM32L4xx_HAL_Driver/Src/stm32l4xx_hal_uart_ex.c ****         (++) Parity: If the parity is enabled, then the MSB bit of the data written
 108:Drivers/STM32L4xx_HAL_Driver/Src/stm32l4xx_hal_uart_ex.c ****              in the data register is transmitted but is changed by the parity bit.
 109:Drivers/STM32L4xx_HAL_Driver/Src/stm32l4xx_hal_uart_ex.c ****         (++) Hardware flow control
 110:Drivers/STM32L4xx_HAL_Driver/Src/stm32l4xx_hal_uart_ex.c ****         (++) Receiver/transmitter modes
 111:Drivers/STM32L4xx_HAL_Driver/Src/stm32l4xx_hal_uart_ex.c ****         (++) Over Sampling Method
 112:Drivers/STM32L4xx_HAL_Driver/Src/stm32l4xx_hal_uart_ex.c ****         (++) One-Bit Sampling Method
 113:Drivers/STM32L4xx_HAL_Driver/Src/stm32l4xx_hal_uart_ex.c ****       (+) For the asynchronous mode, the following advanced features can be configured as well:
 114:Drivers/STM32L4xx_HAL_Driver/Src/stm32l4xx_hal_uart_ex.c ****         (++) TX and/or RX pin level inversion
 115:Drivers/STM32L4xx_HAL_Driver/Src/stm32l4xx_hal_uart_ex.c ****         (++) data logical level inversion
 116:Drivers/STM32L4xx_HAL_Driver/Src/stm32l4xx_hal_uart_ex.c ****         (++) RX and TX pins swap
 117:Drivers/STM32L4xx_HAL_Driver/Src/stm32l4xx_hal_uart_ex.c ****         (++) RX overrun detection disabling
 118:Drivers/STM32L4xx_HAL_Driver/Src/stm32l4xx_hal_uart_ex.c ****         (++) DMA disabling on RX error
 119:Drivers/STM32L4xx_HAL_Driver/Src/stm32l4xx_hal_uart_ex.c ****         (++) MSB first on communication line
 120:Drivers/STM32L4xx_HAL_Driver/Src/stm32l4xx_hal_uart_ex.c ****         (++) auto Baud rate detection
 121:Drivers/STM32L4xx_HAL_Driver/Src/stm32l4xx_hal_uart_ex.c ****     [..]
 122:Drivers/STM32L4xx_HAL_Driver/Src/stm32l4xx_hal_uart_ex.c ****     The HAL_RS485Ex_Init() API follows the UART RS485 mode configuration
 123:Drivers/STM32L4xx_HAL_Driver/Src/stm32l4xx_hal_uart_ex.c ****      procedures (details for the procedures are available in reference manual).
 124:Drivers/STM32L4xx_HAL_Driver/Src/stm32l4xx_hal_uart_ex.c **** 
 125:Drivers/STM32L4xx_HAL_Driver/Src/stm32l4xx_hal_uart_ex.c **** @endverbatim
 126:Drivers/STM32L4xx_HAL_Driver/Src/stm32l4xx_hal_uart_ex.c **** 
 127:Drivers/STM32L4xx_HAL_Driver/Src/stm32l4xx_hal_uart_ex.c ****   Depending on the frame length defined by the M1 and M0 bits (7-bit,
 128:Drivers/STM32L4xx_HAL_Driver/Src/stm32l4xx_hal_uart_ex.c ****   8-bit or 9-bit), the possible UART formats are listed in the
 129:Drivers/STM32L4xx_HAL_Driver/Src/stm32l4xx_hal_uart_ex.c ****   following table.
 130:Drivers/STM32L4xx_HAL_Driver/Src/stm32l4xx_hal_uart_ex.c **** 
 131:Drivers/STM32L4xx_HAL_Driver/Src/stm32l4xx_hal_uart_ex.c ****     Table 1. UART frame format.
 132:Drivers/STM32L4xx_HAL_Driver/Src/stm32l4xx_hal_uart_ex.c ****     +-----------------------------------------------------------------------+
 133:Drivers/STM32L4xx_HAL_Driver/Src/stm32l4xx_hal_uart_ex.c ****     |  M1 bit |  M0 bit |  PCE bit  |             UART frame                |
 134:Drivers/STM32L4xx_HAL_Driver/Src/stm32l4xx_hal_uart_ex.c ****     |---------|---------|-----------|---------------------------------------|
 135:Drivers/STM32L4xx_HAL_Driver/Src/stm32l4xx_hal_uart_ex.c ****     |    0    |    0    |    0      |    | SB |    8 bit data   | STB |     |
 136:Drivers/STM32L4xx_HAL_Driver/Src/stm32l4xx_hal_uart_ex.c ****     |---------|---------|-----------|---------------------------------------|
 137:Drivers/STM32L4xx_HAL_Driver/Src/stm32l4xx_hal_uart_ex.c ****     |    0    |    0    |    1      |    | SB | 7 bit data | PB | STB |     |
 138:Drivers/STM32L4xx_HAL_Driver/Src/stm32l4xx_hal_uart_ex.c ****     |---------|---------|-----------|---------------------------------------|
 139:Drivers/STM32L4xx_HAL_Driver/Src/stm32l4xx_hal_uart_ex.c ****     |    0    |    1    |    0      |    | SB |    9 bit data   | STB |     |
 140:Drivers/STM32L4xx_HAL_Driver/Src/stm32l4xx_hal_uart_ex.c ****     |---------|---------|-----------|---------------------------------------|
 141:Drivers/STM32L4xx_HAL_Driver/Src/stm32l4xx_hal_uart_ex.c ****     |    0    |    1    |    1      |    | SB | 8 bit data | PB | STB |     |
 142:Drivers/STM32L4xx_HAL_Driver/Src/stm32l4xx_hal_uart_ex.c ****     |---------|---------|-----------|---------------------------------------|
 143:Drivers/STM32L4xx_HAL_Driver/Src/stm32l4xx_hal_uart_ex.c ****     |    1    |    0    |    0      |    | SB |    7 bit data   | STB |     |
 144:Drivers/STM32L4xx_HAL_Driver/Src/stm32l4xx_hal_uart_ex.c ****     |---------|---------|-----------|---------------------------------------|
ARM GAS  C:\Users\ep_ygh\AppData\Local\Temp\ccr8O3zb.s 			page 4


 145:Drivers/STM32L4xx_HAL_Driver/Src/stm32l4xx_hal_uart_ex.c ****     |    1    |    0    |    1      |    | SB | 6 bit data | PB | STB |     |
 146:Drivers/STM32L4xx_HAL_Driver/Src/stm32l4xx_hal_uart_ex.c ****     +-----------------------------------------------------------------------+
 147:Drivers/STM32L4xx_HAL_Driver/Src/stm32l4xx_hal_uart_ex.c **** 
 148:Drivers/STM32L4xx_HAL_Driver/Src/stm32l4xx_hal_uart_ex.c ****   * @{
 149:Drivers/STM32L4xx_HAL_Driver/Src/stm32l4xx_hal_uart_ex.c ****   */
 150:Drivers/STM32L4xx_HAL_Driver/Src/stm32l4xx_hal_uart_ex.c **** 
 151:Drivers/STM32L4xx_HAL_Driver/Src/stm32l4xx_hal_uart_ex.c **** /**
 152:Drivers/STM32L4xx_HAL_Driver/Src/stm32l4xx_hal_uart_ex.c ****   * @brief Initialize the RS485 Driver enable feature according to the specified
 153:Drivers/STM32L4xx_HAL_Driver/Src/stm32l4xx_hal_uart_ex.c ****   *         parameters in the UART_InitTypeDef and creates the associated handle.
 154:Drivers/STM32L4xx_HAL_Driver/Src/stm32l4xx_hal_uart_ex.c ****   * @param huart            UART handle.
 155:Drivers/STM32L4xx_HAL_Driver/Src/stm32l4xx_hal_uart_ex.c ****   * @param Polarity         Select the driver enable polarity.
 156:Drivers/STM32L4xx_HAL_Driver/Src/stm32l4xx_hal_uart_ex.c ****   *          This parameter can be one of the following values:
 157:Drivers/STM32L4xx_HAL_Driver/Src/stm32l4xx_hal_uart_ex.c ****   *          @arg @ref UART_DE_POLARITY_HIGH DE signal is active high
 158:Drivers/STM32L4xx_HAL_Driver/Src/stm32l4xx_hal_uart_ex.c ****   *          @arg @ref UART_DE_POLARITY_LOW  DE signal is active low
 159:Drivers/STM32L4xx_HAL_Driver/Src/stm32l4xx_hal_uart_ex.c ****   * @param AssertionTime    Driver Enable assertion time:
 160:Drivers/STM32L4xx_HAL_Driver/Src/stm32l4xx_hal_uart_ex.c ****   *       5-bit value defining the time between the activation of the DE (Driver Enable)
 161:Drivers/STM32L4xx_HAL_Driver/Src/stm32l4xx_hal_uart_ex.c ****   *       signal and the beginning of the start bit. It is expressed in sample time
 162:Drivers/STM32L4xx_HAL_Driver/Src/stm32l4xx_hal_uart_ex.c ****   *       units (1/8 or 1/16 bit time, depending on the oversampling rate)
 163:Drivers/STM32L4xx_HAL_Driver/Src/stm32l4xx_hal_uart_ex.c ****   * @param DeassertionTime  Driver Enable deassertion time:
 164:Drivers/STM32L4xx_HAL_Driver/Src/stm32l4xx_hal_uart_ex.c ****   *       5-bit value defining the time between the end of the last stop bit, in a
 165:Drivers/STM32L4xx_HAL_Driver/Src/stm32l4xx_hal_uart_ex.c ****   *       transmitted message, and the de-activation of the DE (Driver Enable) signal.
 166:Drivers/STM32L4xx_HAL_Driver/Src/stm32l4xx_hal_uart_ex.c ****   *       It is expressed in sample time units (1/8 or 1/16 bit time, depending on the
 167:Drivers/STM32L4xx_HAL_Driver/Src/stm32l4xx_hal_uart_ex.c ****   *       oversampling rate).
 168:Drivers/STM32L4xx_HAL_Driver/Src/stm32l4xx_hal_uart_ex.c ****   * @retval HAL status
 169:Drivers/STM32L4xx_HAL_Driver/Src/stm32l4xx_hal_uart_ex.c ****   */
 170:Drivers/STM32L4xx_HAL_Driver/Src/stm32l4xx_hal_uart_ex.c **** HAL_StatusTypeDef HAL_RS485Ex_Init(UART_HandleTypeDef *huart, uint32_t Polarity, uint32_t Assertion
 171:Drivers/STM32L4xx_HAL_Driver/Src/stm32l4xx_hal_uart_ex.c ****                                    uint32_t DeassertionTime)
 172:Drivers/STM32L4xx_HAL_Driver/Src/stm32l4xx_hal_uart_ex.c **** {
  29              		.loc 1 172 1
  30              		.cfi_startproc
  31              		@ args = 0, pretend = 0, frame = 24
  32              		@ frame_needed = 1, uses_anonymous_args = 0
  33 0000 80B5     		push	{r7, lr}
  34              	.LCFI0:
  35              		.cfi_def_cfa_offset 8
  36              		.cfi_offset 7, -8
  37              		.cfi_offset 14, -4
  38 0002 86B0     		sub	sp, sp, #24
  39              	.LCFI1:
  40              		.cfi_def_cfa_offset 32
  41 0004 00AF     		add	r7, sp, #0
  42              	.LCFI2:
  43              		.cfi_def_cfa_register 7
  44 0006 F860     		str	r0, [r7, #12]
  45 0008 B960     		str	r1, [r7, #8]
  46 000a 7A60     		str	r2, [r7, #4]
  47 000c 3B60     		str	r3, [r7]
 173:Drivers/STM32L4xx_HAL_Driver/Src/stm32l4xx_hal_uart_ex.c ****   uint32_t temp;
 174:Drivers/STM32L4xx_HAL_Driver/Src/stm32l4xx_hal_uart_ex.c **** 
 175:Drivers/STM32L4xx_HAL_Driver/Src/stm32l4xx_hal_uart_ex.c ****   /* Check the UART handle allocation */
 176:Drivers/STM32L4xx_HAL_Driver/Src/stm32l4xx_hal_uart_ex.c ****   if (huart == NULL)
  48              		.loc 1 176 6
  49 000e FB68     		ldr	r3, [r7, #12]
  50 0010 002B     		cmp	r3, #0
  51 0012 01D1     		bne	.L2
 177:Drivers/STM32L4xx_HAL_Driver/Src/stm32l4xx_hal_uart_ex.c ****   {
 178:Drivers/STM32L4xx_HAL_Driver/Src/stm32l4xx_hal_uart_ex.c ****     return HAL_ERROR;
ARM GAS  C:\Users\ep_ygh\AppData\Local\Temp\ccr8O3zb.s 			page 5


  52              		.loc 1 178 12
  53 0014 0123     		movs	r3, #1
  54 0016 56E0     		b	.L3
  55              	.L2:
 179:Drivers/STM32L4xx_HAL_Driver/Src/stm32l4xx_hal_uart_ex.c ****   }
 180:Drivers/STM32L4xx_HAL_Driver/Src/stm32l4xx_hal_uart_ex.c ****   /* Check the Driver Enable UART instance */
 181:Drivers/STM32L4xx_HAL_Driver/Src/stm32l4xx_hal_uart_ex.c ****   assert_param(IS_UART_DRIVER_ENABLE_INSTANCE(huart->Instance));
 182:Drivers/STM32L4xx_HAL_Driver/Src/stm32l4xx_hal_uart_ex.c **** 
 183:Drivers/STM32L4xx_HAL_Driver/Src/stm32l4xx_hal_uart_ex.c ****   /* Check the Driver Enable polarity */
 184:Drivers/STM32L4xx_HAL_Driver/Src/stm32l4xx_hal_uart_ex.c ****   assert_param(IS_UART_DE_POLARITY(Polarity));
 185:Drivers/STM32L4xx_HAL_Driver/Src/stm32l4xx_hal_uart_ex.c **** 
 186:Drivers/STM32L4xx_HAL_Driver/Src/stm32l4xx_hal_uart_ex.c ****   /* Check the Driver Enable assertion time */
 187:Drivers/STM32L4xx_HAL_Driver/Src/stm32l4xx_hal_uart_ex.c ****   assert_param(IS_UART_ASSERTIONTIME(AssertionTime));
 188:Drivers/STM32L4xx_HAL_Driver/Src/stm32l4xx_hal_uart_ex.c **** 
 189:Drivers/STM32L4xx_HAL_Driver/Src/stm32l4xx_hal_uart_ex.c ****   /* Check the Driver Enable deassertion time */
 190:Drivers/STM32L4xx_HAL_Driver/Src/stm32l4xx_hal_uart_ex.c ****   assert_param(IS_UART_DEASSERTIONTIME(DeassertionTime));
 191:Drivers/STM32L4xx_HAL_Driver/Src/stm32l4xx_hal_uart_ex.c **** 
 192:Drivers/STM32L4xx_HAL_Driver/Src/stm32l4xx_hal_uart_ex.c ****   if (huart->gState == HAL_UART_STATE_RESET)
  56              		.loc 1 192 12
  57 0018 FB68     		ldr	r3, [r7, #12]
  58 001a DB6F     		ldr	r3, [r3, #124]
  59              		.loc 1 192 6
  60 001c 002B     		cmp	r3, #0
  61 001e 06D1     		bne	.L4
 193:Drivers/STM32L4xx_HAL_Driver/Src/stm32l4xx_hal_uart_ex.c ****   {
 194:Drivers/STM32L4xx_HAL_Driver/Src/stm32l4xx_hal_uart_ex.c ****     /* Allocate lock resource and initialize it */
 195:Drivers/STM32L4xx_HAL_Driver/Src/stm32l4xx_hal_uart_ex.c ****     huart->Lock = HAL_UNLOCKED;
  62              		.loc 1 195 17
  63 0020 FB68     		ldr	r3, [r7, #12]
  64 0022 0022     		movs	r2, #0
  65 0024 83F87820 		strb	r2, [r3, #120]
 196:Drivers/STM32L4xx_HAL_Driver/Src/stm32l4xx_hal_uart_ex.c **** 
 197:Drivers/STM32L4xx_HAL_Driver/Src/stm32l4xx_hal_uart_ex.c **** #if (USE_HAL_UART_REGISTER_CALLBACKS == 1)
 198:Drivers/STM32L4xx_HAL_Driver/Src/stm32l4xx_hal_uart_ex.c ****     UART_InitCallbacksToDefault(huart);
 199:Drivers/STM32L4xx_HAL_Driver/Src/stm32l4xx_hal_uart_ex.c **** 
 200:Drivers/STM32L4xx_HAL_Driver/Src/stm32l4xx_hal_uart_ex.c ****     if (huart->MspInitCallback == NULL)
 201:Drivers/STM32L4xx_HAL_Driver/Src/stm32l4xx_hal_uart_ex.c ****     {
 202:Drivers/STM32L4xx_HAL_Driver/Src/stm32l4xx_hal_uart_ex.c ****       huart->MspInitCallback = HAL_UART_MspInit;
 203:Drivers/STM32L4xx_HAL_Driver/Src/stm32l4xx_hal_uart_ex.c ****     }
 204:Drivers/STM32L4xx_HAL_Driver/Src/stm32l4xx_hal_uart_ex.c **** 
 205:Drivers/STM32L4xx_HAL_Driver/Src/stm32l4xx_hal_uart_ex.c ****     /* Init the low level hardware */
 206:Drivers/STM32L4xx_HAL_Driver/Src/stm32l4xx_hal_uart_ex.c ****     huart->MspInitCallback(huart);
 207:Drivers/STM32L4xx_HAL_Driver/Src/stm32l4xx_hal_uart_ex.c **** #else
 208:Drivers/STM32L4xx_HAL_Driver/Src/stm32l4xx_hal_uart_ex.c ****     /* Init the low level hardware : GPIO, CLOCK, CORTEX */
 209:Drivers/STM32L4xx_HAL_Driver/Src/stm32l4xx_hal_uart_ex.c ****     HAL_UART_MspInit(huart);
  66              		.loc 1 209 5
  67 0028 F868     		ldr	r0, [r7, #12]
  68 002a FFF7FEFF 		bl	HAL_UART_MspInit
  69              	.L4:
 210:Drivers/STM32L4xx_HAL_Driver/Src/stm32l4xx_hal_uart_ex.c **** #endif /* (USE_HAL_UART_REGISTER_CALLBACKS) */
 211:Drivers/STM32L4xx_HAL_Driver/Src/stm32l4xx_hal_uart_ex.c ****   }
 212:Drivers/STM32L4xx_HAL_Driver/Src/stm32l4xx_hal_uart_ex.c **** 
 213:Drivers/STM32L4xx_HAL_Driver/Src/stm32l4xx_hal_uart_ex.c ****   huart->gState = HAL_UART_STATE_BUSY;
  70              		.loc 1 213 17
  71 002e FB68     		ldr	r3, [r7, #12]
  72 0030 2422     		movs	r2, #36
  73 0032 DA67     		str	r2, [r3, #124]
ARM GAS  C:\Users\ep_ygh\AppData\Local\Temp\ccr8O3zb.s 			page 6


 214:Drivers/STM32L4xx_HAL_Driver/Src/stm32l4xx_hal_uart_ex.c **** 
 215:Drivers/STM32L4xx_HAL_Driver/Src/stm32l4xx_hal_uart_ex.c ****   /* Disable the Peripheral */
 216:Drivers/STM32L4xx_HAL_Driver/Src/stm32l4xx_hal_uart_ex.c ****   __HAL_UART_DISABLE(huart);
  74              		.loc 1 216 3
  75 0034 FB68     		ldr	r3, [r7, #12]
  76 0036 1B68     		ldr	r3, [r3]
  77 0038 1A68     		ldr	r2, [r3]
  78 003a FB68     		ldr	r3, [r7, #12]
  79 003c 1B68     		ldr	r3, [r3]
  80 003e 22F00102 		bic	r2, r2, #1
  81 0042 1A60     		str	r2, [r3]
 217:Drivers/STM32L4xx_HAL_Driver/Src/stm32l4xx_hal_uart_ex.c **** 
 218:Drivers/STM32L4xx_HAL_Driver/Src/stm32l4xx_hal_uart_ex.c ****   /* Perform advanced settings configuration */
 219:Drivers/STM32L4xx_HAL_Driver/Src/stm32l4xx_hal_uart_ex.c ****   /* For some items, configuration requires to be done prior TE and RE bits are set */
 220:Drivers/STM32L4xx_HAL_Driver/Src/stm32l4xx_hal_uart_ex.c ****   if (huart->AdvancedInit.AdvFeatureInit != UART_ADVFEATURE_NO_INIT)
  82              		.loc 1 220 26
  83 0044 FB68     		ldr	r3, [r7, #12]
  84 0046 5B6A     		ldr	r3, [r3, #36]
  85              		.loc 1 220 6
  86 0048 002B     		cmp	r3, #0
  87 004a 02D0     		beq	.L5
 221:Drivers/STM32L4xx_HAL_Driver/Src/stm32l4xx_hal_uart_ex.c ****   {
 222:Drivers/STM32L4xx_HAL_Driver/Src/stm32l4xx_hal_uart_ex.c ****     UART_AdvFeatureConfig(huart);
  88              		.loc 1 222 5
  89 004c F868     		ldr	r0, [r7, #12]
  90 004e FFF7FEFF 		bl	UART_AdvFeatureConfig
  91              	.L5:
 223:Drivers/STM32L4xx_HAL_Driver/Src/stm32l4xx_hal_uart_ex.c ****   }
 224:Drivers/STM32L4xx_HAL_Driver/Src/stm32l4xx_hal_uart_ex.c **** 
 225:Drivers/STM32L4xx_HAL_Driver/Src/stm32l4xx_hal_uart_ex.c ****   /* Set the UART Communication parameters */
 226:Drivers/STM32L4xx_HAL_Driver/Src/stm32l4xx_hal_uart_ex.c ****   if (UART_SetConfig(huart) == HAL_ERROR)
  92              		.loc 1 226 7
  93 0052 F868     		ldr	r0, [r7, #12]
  94 0054 FFF7FEFF 		bl	UART_SetConfig
  95 0058 0346     		mov	r3, r0
  96              		.loc 1 226 6
  97 005a 012B     		cmp	r3, #1
  98 005c 01D1     		bne	.L6
 227:Drivers/STM32L4xx_HAL_Driver/Src/stm32l4xx_hal_uart_ex.c ****   {
 228:Drivers/STM32L4xx_HAL_Driver/Src/stm32l4xx_hal_uart_ex.c ****     return HAL_ERROR;
  99              		.loc 1 228 12
 100 005e 0123     		movs	r3, #1
 101 0060 31E0     		b	.L3
 102              	.L6:
 229:Drivers/STM32L4xx_HAL_Driver/Src/stm32l4xx_hal_uart_ex.c ****   }
 230:Drivers/STM32L4xx_HAL_Driver/Src/stm32l4xx_hal_uart_ex.c **** 
 231:Drivers/STM32L4xx_HAL_Driver/Src/stm32l4xx_hal_uart_ex.c ****   /* Enable the Driver Enable mode by setting the DEM bit in the CR3 register */
 232:Drivers/STM32L4xx_HAL_Driver/Src/stm32l4xx_hal_uart_ex.c ****   SET_BIT(huart->Instance->CR3, USART_CR3_DEM);
 103              		.loc 1 232 3
 104 0062 FB68     		ldr	r3, [r7, #12]
 105 0064 1B68     		ldr	r3, [r3]
 106 0066 9A68     		ldr	r2, [r3, #8]
 107 0068 FB68     		ldr	r3, [r7, #12]
 108 006a 1B68     		ldr	r3, [r3]
 109 006c 42F48042 		orr	r2, r2, #16384
 110 0070 9A60     		str	r2, [r3, #8]
 233:Drivers/STM32L4xx_HAL_Driver/Src/stm32l4xx_hal_uart_ex.c **** 
ARM GAS  C:\Users\ep_ygh\AppData\Local\Temp\ccr8O3zb.s 			page 7


 234:Drivers/STM32L4xx_HAL_Driver/Src/stm32l4xx_hal_uart_ex.c ****   /* Set the Driver Enable polarity */
 235:Drivers/STM32L4xx_HAL_Driver/Src/stm32l4xx_hal_uart_ex.c ****   MODIFY_REG(huart->Instance->CR3, USART_CR3_DEP, Polarity);
 111              		.loc 1 235 3
 112 0072 FB68     		ldr	r3, [r7, #12]
 113 0074 1B68     		ldr	r3, [r3]
 114 0076 9B68     		ldr	r3, [r3, #8]
 115 0078 23F40041 		bic	r1, r3, #32768
 116 007c FB68     		ldr	r3, [r7, #12]
 117 007e 1B68     		ldr	r3, [r3]
 118 0080 BA68     		ldr	r2, [r7, #8]
 119 0082 0A43     		orrs	r2, r2, r1
 120 0084 9A60     		str	r2, [r3, #8]
 236:Drivers/STM32L4xx_HAL_Driver/Src/stm32l4xx_hal_uart_ex.c **** 
 237:Drivers/STM32L4xx_HAL_Driver/Src/stm32l4xx_hal_uart_ex.c ****   /* Set the Driver Enable assertion and deassertion times */
 238:Drivers/STM32L4xx_HAL_Driver/Src/stm32l4xx_hal_uart_ex.c ****   temp = (AssertionTime << UART_CR1_DEAT_ADDRESS_LSB_POS);
 121              		.loc 1 238 8
 122 0086 7B68     		ldr	r3, [r7, #4]
 123 0088 5B05     		lsls	r3, r3, #21
 124 008a 7B61     		str	r3, [r7, #20]
 239:Drivers/STM32L4xx_HAL_Driver/Src/stm32l4xx_hal_uart_ex.c ****   temp |= (DeassertionTime << UART_CR1_DEDT_ADDRESS_LSB_POS);
 125              		.loc 1 239 28
 126 008c 3B68     		ldr	r3, [r7]
 127 008e 1B04     		lsls	r3, r3, #16
 128              		.loc 1 239 8
 129 0090 7A69     		ldr	r2, [r7, #20]
 130 0092 1343     		orrs	r3, r3, r2
 131 0094 7B61     		str	r3, [r7, #20]
 240:Drivers/STM32L4xx_HAL_Driver/Src/stm32l4xx_hal_uart_ex.c ****   MODIFY_REG(huart->Instance->CR1, (USART_CR1_DEDT | USART_CR1_DEAT), temp);
 132              		.loc 1 240 3
 133 0096 FB68     		ldr	r3, [r7, #12]
 134 0098 1B68     		ldr	r3, [r3]
 135 009a 1B68     		ldr	r3, [r3]
 136 009c 23F07F73 		bic	r3, r3, #66846720
 137 00a0 23F44033 		bic	r3, r3, #196608
 138 00a4 FA68     		ldr	r2, [r7, #12]
 139 00a6 1268     		ldr	r2, [r2]
 140 00a8 7969     		ldr	r1, [r7, #20]
 141 00aa 0B43     		orrs	r3, r3, r1
 142 00ac 1360     		str	r3, [r2]
 241:Drivers/STM32L4xx_HAL_Driver/Src/stm32l4xx_hal_uart_ex.c **** 
 242:Drivers/STM32L4xx_HAL_Driver/Src/stm32l4xx_hal_uart_ex.c ****   /* Enable the Peripheral */
 243:Drivers/STM32L4xx_HAL_Driver/Src/stm32l4xx_hal_uart_ex.c ****   __HAL_UART_ENABLE(huart);
 143              		.loc 1 243 3
 144 00ae FB68     		ldr	r3, [r7, #12]
 145 00b0 1B68     		ldr	r3, [r3]
 146 00b2 1A68     		ldr	r2, [r3]
 147 00b4 FB68     		ldr	r3, [r7, #12]
 148 00b6 1B68     		ldr	r3, [r3]
 149 00b8 42F00102 		orr	r2, r2, #1
 150 00bc 1A60     		str	r2, [r3]
 244:Drivers/STM32L4xx_HAL_Driver/Src/stm32l4xx_hal_uart_ex.c **** 
 245:Drivers/STM32L4xx_HAL_Driver/Src/stm32l4xx_hal_uart_ex.c ****   /* TEACK and/or REACK to check before moving huart->gState and huart->RxState to Ready */
 246:Drivers/STM32L4xx_HAL_Driver/Src/stm32l4xx_hal_uart_ex.c ****   return (UART_CheckIdleState(huart));
 151              		.loc 1 246 11
 152 00be F868     		ldr	r0, [r7, #12]
 153 00c0 FFF7FEFF 		bl	UART_CheckIdleState
 154 00c4 0346     		mov	r3, r0
ARM GAS  C:\Users\ep_ygh\AppData\Local\Temp\ccr8O3zb.s 			page 8


 155              	.L3:
 247:Drivers/STM32L4xx_HAL_Driver/Src/stm32l4xx_hal_uart_ex.c **** }
 156              		.loc 1 247 1
 157 00c6 1846     		mov	r0, r3
 158 00c8 1837     		adds	r7, r7, #24
 159              	.LCFI3:
 160              		.cfi_def_cfa_offset 8
 161 00ca BD46     		mov	sp, r7
 162              	.LCFI4:
 163              		.cfi_def_cfa_register 13
 164              		@ sp needed
 165 00cc 80BD     		pop	{r7, pc}
 166              		.cfi_endproc
 167              	.LFE317:
 169              		.section	.text.HAL_UARTEx_WakeupCallback,"ax",%progbits
 170              		.align	1
 171              		.weak	HAL_UARTEx_WakeupCallback
 172              		.syntax unified
 173              		.thumb
 174              		.thumb_func
 176              	HAL_UARTEx_WakeupCallback:
 177              	.LFB318:
 248:Drivers/STM32L4xx_HAL_Driver/Src/stm32l4xx_hal_uart_ex.c **** 
 249:Drivers/STM32L4xx_HAL_Driver/Src/stm32l4xx_hal_uart_ex.c **** /**
 250:Drivers/STM32L4xx_HAL_Driver/Src/stm32l4xx_hal_uart_ex.c ****   * @}
 251:Drivers/STM32L4xx_HAL_Driver/Src/stm32l4xx_hal_uart_ex.c ****   */
 252:Drivers/STM32L4xx_HAL_Driver/Src/stm32l4xx_hal_uart_ex.c **** 
 253:Drivers/STM32L4xx_HAL_Driver/Src/stm32l4xx_hal_uart_ex.c **** /** @defgroup UARTEx_Exported_Functions_Group2 IO operation functions
 254:Drivers/STM32L4xx_HAL_Driver/Src/stm32l4xx_hal_uart_ex.c ****   *  @brief Extended functions
 255:Drivers/STM32L4xx_HAL_Driver/Src/stm32l4xx_hal_uart_ex.c ****   *
 256:Drivers/STM32L4xx_HAL_Driver/Src/stm32l4xx_hal_uart_ex.c **** @verbatim
 257:Drivers/STM32L4xx_HAL_Driver/Src/stm32l4xx_hal_uart_ex.c ****  ===============================================================================
 258:Drivers/STM32L4xx_HAL_Driver/Src/stm32l4xx_hal_uart_ex.c ****                       ##### IO operation functions #####
 259:Drivers/STM32L4xx_HAL_Driver/Src/stm32l4xx_hal_uart_ex.c ****  ===============================================================================
 260:Drivers/STM32L4xx_HAL_Driver/Src/stm32l4xx_hal_uart_ex.c ****     This subsection provides a set of Wakeup and FIFO mode related callback functions.
 261:Drivers/STM32L4xx_HAL_Driver/Src/stm32l4xx_hal_uart_ex.c **** 
 262:Drivers/STM32L4xx_HAL_Driver/Src/stm32l4xx_hal_uart_ex.c ****     (#) Wakeup from Stop mode Callback:
 263:Drivers/STM32L4xx_HAL_Driver/Src/stm32l4xx_hal_uart_ex.c ****         (+) HAL_UARTEx_WakeupCallback()
 264:Drivers/STM32L4xx_HAL_Driver/Src/stm32l4xx_hal_uart_ex.c **** 
 265:Drivers/STM32L4xx_HAL_Driver/Src/stm32l4xx_hal_uart_ex.c ****     (#) TX/RX Fifos Callbacks:
 266:Drivers/STM32L4xx_HAL_Driver/Src/stm32l4xx_hal_uart_ex.c ****         (+) HAL_UARTEx_RxFifoFullCallback()
 267:Drivers/STM32L4xx_HAL_Driver/Src/stm32l4xx_hal_uart_ex.c ****         (+) HAL_UARTEx_TxFifoEmptyCallback()
 268:Drivers/STM32L4xx_HAL_Driver/Src/stm32l4xx_hal_uart_ex.c **** 
 269:Drivers/STM32L4xx_HAL_Driver/Src/stm32l4xx_hal_uart_ex.c **** @endverbatim
 270:Drivers/STM32L4xx_HAL_Driver/Src/stm32l4xx_hal_uart_ex.c ****   * @{
 271:Drivers/STM32L4xx_HAL_Driver/Src/stm32l4xx_hal_uart_ex.c ****   */
 272:Drivers/STM32L4xx_HAL_Driver/Src/stm32l4xx_hal_uart_ex.c **** 
 273:Drivers/STM32L4xx_HAL_Driver/Src/stm32l4xx_hal_uart_ex.c **** /**
 274:Drivers/STM32L4xx_HAL_Driver/Src/stm32l4xx_hal_uart_ex.c ****   * @brief UART wakeup from Stop mode callback.
 275:Drivers/STM32L4xx_HAL_Driver/Src/stm32l4xx_hal_uart_ex.c ****   * @param huart UART handle.
 276:Drivers/STM32L4xx_HAL_Driver/Src/stm32l4xx_hal_uart_ex.c ****   * @retval None
 277:Drivers/STM32L4xx_HAL_Driver/Src/stm32l4xx_hal_uart_ex.c ****   */
 278:Drivers/STM32L4xx_HAL_Driver/Src/stm32l4xx_hal_uart_ex.c **** __weak void HAL_UARTEx_WakeupCallback(UART_HandleTypeDef *huart)
 279:Drivers/STM32L4xx_HAL_Driver/Src/stm32l4xx_hal_uart_ex.c **** {
 178              		.loc 1 279 1
 179              		.cfi_startproc
 180              		@ args = 0, pretend = 0, frame = 8
ARM GAS  C:\Users\ep_ygh\AppData\Local\Temp\ccr8O3zb.s 			page 9


 181              		@ frame_needed = 1, uses_anonymous_args = 0
 182              		@ link register save eliminated.
 183 0000 80B4     		push	{r7}
 184              	.LCFI5:
 185              		.cfi_def_cfa_offset 4
 186              		.cfi_offset 7, -4
 187 0002 83B0     		sub	sp, sp, #12
 188              	.LCFI6:
 189              		.cfi_def_cfa_offset 16
 190 0004 00AF     		add	r7, sp, #0
 191              	.LCFI7:
 192              		.cfi_def_cfa_register 7
 193 0006 7860     		str	r0, [r7, #4]
 280:Drivers/STM32L4xx_HAL_Driver/Src/stm32l4xx_hal_uart_ex.c ****   /* Prevent unused argument(s) compilation warning */
 281:Drivers/STM32L4xx_HAL_Driver/Src/stm32l4xx_hal_uart_ex.c ****   UNUSED(huart);
 282:Drivers/STM32L4xx_HAL_Driver/Src/stm32l4xx_hal_uart_ex.c **** 
 283:Drivers/STM32L4xx_HAL_Driver/Src/stm32l4xx_hal_uart_ex.c ****   /* NOTE : This function should not be modified, when the callback is needed,
 284:Drivers/STM32L4xx_HAL_Driver/Src/stm32l4xx_hal_uart_ex.c ****             the HAL_UARTEx_WakeupCallback can be implemented in the user file.
 285:Drivers/STM32L4xx_HAL_Driver/Src/stm32l4xx_hal_uart_ex.c ****    */
 286:Drivers/STM32L4xx_HAL_Driver/Src/stm32l4xx_hal_uart_ex.c **** }
 194              		.loc 1 286 1
 195 0008 00BF     		nop
 196 000a 0C37     		adds	r7, r7, #12
 197              	.LCFI8:
 198              		.cfi_def_cfa_offset 4
 199 000c BD46     		mov	sp, r7
 200              	.LCFI9:
 201              		.cfi_def_cfa_register 13
 202              		@ sp needed
 203 000e 5DF8047B 		ldr	r7, [sp], #4
 204              	.LCFI10:
 205              		.cfi_restore 7
 206              		.cfi_def_cfa_offset 0
 207 0012 7047     		bx	lr
 208              		.cfi_endproc
 209              	.LFE318:
 211              		.section	.text.HAL_UARTEx_EnableClockStopMode,"ax",%progbits
 212              		.align	1
 213              		.global	HAL_UARTEx_EnableClockStopMode
 214              		.syntax unified
 215              		.thumb
 216              		.thumb_func
 218              	HAL_UARTEx_EnableClockStopMode:
 219              	.LFB319:
 287:Drivers/STM32L4xx_HAL_Driver/Src/stm32l4xx_hal_uart_ex.c **** 
 288:Drivers/STM32L4xx_HAL_Driver/Src/stm32l4xx_hal_uart_ex.c **** #if defined(USART_CR1_FIFOEN)
 289:Drivers/STM32L4xx_HAL_Driver/Src/stm32l4xx_hal_uart_ex.c **** /**
 290:Drivers/STM32L4xx_HAL_Driver/Src/stm32l4xx_hal_uart_ex.c ****   * @brief  UART RX Fifo full callback.
 291:Drivers/STM32L4xx_HAL_Driver/Src/stm32l4xx_hal_uart_ex.c ****   * @param  huart UART handle.
 292:Drivers/STM32L4xx_HAL_Driver/Src/stm32l4xx_hal_uart_ex.c ****   * @retval None
 293:Drivers/STM32L4xx_HAL_Driver/Src/stm32l4xx_hal_uart_ex.c ****   */
 294:Drivers/STM32L4xx_HAL_Driver/Src/stm32l4xx_hal_uart_ex.c **** __weak void HAL_UARTEx_RxFifoFullCallback(UART_HandleTypeDef *huart)
 295:Drivers/STM32L4xx_HAL_Driver/Src/stm32l4xx_hal_uart_ex.c **** {
 296:Drivers/STM32L4xx_HAL_Driver/Src/stm32l4xx_hal_uart_ex.c ****   /* Prevent unused argument(s) compilation warning */
 297:Drivers/STM32L4xx_HAL_Driver/Src/stm32l4xx_hal_uart_ex.c ****   UNUSED(huart);
 298:Drivers/STM32L4xx_HAL_Driver/Src/stm32l4xx_hal_uart_ex.c **** 
 299:Drivers/STM32L4xx_HAL_Driver/Src/stm32l4xx_hal_uart_ex.c ****   /* NOTE : This function should not be modified, when the callback is needed,
ARM GAS  C:\Users\ep_ygh\AppData\Local\Temp\ccr8O3zb.s 			page 10


 300:Drivers/STM32L4xx_HAL_Driver/Src/stm32l4xx_hal_uart_ex.c ****             the HAL_UARTEx_RxFifoFullCallback can be implemented in the user file.
 301:Drivers/STM32L4xx_HAL_Driver/Src/stm32l4xx_hal_uart_ex.c ****    */
 302:Drivers/STM32L4xx_HAL_Driver/Src/stm32l4xx_hal_uart_ex.c **** }
 303:Drivers/STM32L4xx_HAL_Driver/Src/stm32l4xx_hal_uart_ex.c **** 
 304:Drivers/STM32L4xx_HAL_Driver/Src/stm32l4xx_hal_uart_ex.c **** /**
 305:Drivers/STM32L4xx_HAL_Driver/Src/stm32l4xx_hal_uart_ex.c ****   * @brief  UART TX Fifo empty callback.
 306:Drivers/STM32L4xx_HAL_Driver/Src/stm32l4xx_hal_uart_ex.c ****   * @param  huart UART handle.
 307:Drivers/STM32L4xx_HAL_Driver/Src/stm32l4xx_hal_uart_ex.c ****   * @retval None
 308:Drivers/STM32L4xx_HAL_Driver/Src/stm32l4xx_hal_uart_ex.c ****   */
 309:Drivers/STM32L4xx_HAL_Driver/Src/stm32l4xx_hal_uart_ex.c **** __weak void HAL_UARTEx_TxFifoEmptyCallback(UART_HandleTypeDef *huart)
 310:Drivers/STM32L4xx_HAL_Driver/Src/stm32l4xx_hal_uart_ex.c **** {
 311:Drivers/STM32L4xx_HAL_Driver/Src/stm32l4xx_hal_uart_ex.c ****   /* Prevent unused argument(s) compilation warning */
 312:Drivers/STM32L4xx_HAL_Driver/Src/stm32l4xx_hal_uart_ex.c ****   UNUSED(huart);
 313:Drivers/STM32L4xx_HAL_Driver/Src/stm32l4xx_hal_uart_ex.c **** 
 314:Drivers/STM32L4xx_HAL_Driver/Src/stm32l4xx_hal_uart_ex.c ****   /* NOTE : This function should not be modified, when the callback is needed,
 315:Drivers/STM32L4xx_HAL_Driver/Src/stm32l4xx_hal_uart_ex.c ****             the HAL_UARTEx_TxFifoEmptyCallback can be implemented in the user file.
 316:Drivers/STM32L4xx_HAL_Driver/Src/stm32l4xx_hal_uart_ex.c ****    */
 317:Drivers/STM32L4xx_HAL_Driver/Src/stm32l4xx_hal_uart_ex.c **** }
 318:Drivers/STM32L4xx_HAL_Driver/Src/stm32l4xx_hal_uart_ex.c **** #endif /* USART_CR1_FIFOEN */
 319:Drivers/STM32L4xx_HAL_Driver/Src/stm32l4xx_hal_uart_ex.c **** 
 320:Drivers/STM32L4xx_HAL_Driver/Src/stm32l4xx_hal_uart_ex.c **** /**
 321:Drivers/STM32L4xx_HAL_Driver/Src/stm32l4xx_hal_uart_ex.c ****   * @}
 322:Drivers/STM32L4xx_HAL_Driver/Src/stm32l4xx_hal_uart_ex.c ****   */
 323:Drivers/STM32L4xx_HAL_Driver/Src/stm32l4xx_hal_uart_ex.c **** 
 324:Drivers/STM32L4xx_HAL_Driver/Src/stm32l4xx_hal_uart_ex.c **** /** @defgroup UARTEx_Exported_Functions_Group3 Peripheral Control functions
 325:Drivers/STM32L4xx_HAL_Driver/Src/stm32l4xx_hal_uart_ex.c ****   * @brief    Extended Peripheral Control functions
 326:Drivers/STM32L4xx_HAL_Driver/Src/stm32l4xx_hal_uart_ex.c ****   *
 327:Drivers/STM32L4xx_HAL_Driver/Src/stm32l4xx_hal_uart_ex.c **** @verbatim
 328:Drivers/STM32L4xx_HAL_Driver/Src/stm32l4xx_hal_uart_ex.c ****  ===============================================================================
 329:Drivers/STM32L4xx_HAL_Driver/Src/stm32l4xx_hal_uart_ex.c ****                       ##### Peripheral Control functions #####
 330:Drivers/STM32L4xx_HAL_Driver/Src/stm32l4xx_hal_uart_ex.c ****  ===============================================================================
 331:Drivers/STM32L4xx_HAL_Driver/Src/stm32l4xx_hal_uart_ex.c ****     [..] This section provides the following functions:
 332:Drivers/STM32L4xx_HAL_Driver/Src/stm32l4xx_hal_uart_ex.c ****      (+) HAL_UARTEx_EnableClockStopMode() API enables the UART clock (HSI or LSE only) during stop 
 333:Drivers/STM32L4xx_HAL_Driver/Src/stm32l4xx_hal_uart_ex.c ****      (+) HAL_UARTEx_DisableClockStopMode() API disables the above functionality
 334:Drivers/STM32L4xx_HAL_Driver/Src/stm32l4xx_hal_uart_ex.c ****      (+) HAL_MultiProcessorEx_AddressLength_Set() API optionally sets the UART node address
 335:Drivers/STM32L4xx_HAL_Driver/Src/stm32l4xx_hal_uart_ex.c ****          detection length to more than 4 bits for multiprocessor address mark wake up.
 336:Drivers/STM32L4xx_HAL_Driver/Src/stm32l4xx_hal_uart_ex.c ****      (+) HAL_UARTEx_StopModeWakeUpSourceConfig() API defines the wake-up from stop mode
 337:Drivers/STM32L4xx_HAL_Driver/Src/stm32l4xx_hal_uart_ex.c ****          trigger: address match, Start Bit detection or RXNE bit status.
 338:Drivers/STM32L4xx_HAL_Driver/Src/stm32l4xx_hal_uart_ex.c ****      (+) HAL_UARTEx_EnableStopMode() API enables the UART to wake up the MCU from stop mode
 339:Drivers/STM32L4xx_HAL_Driver/Src/stm32l4xx_hal_uart_ex.c ****      (+) HAL_UARTEx_DisableStopMode() API disables the above functionality
 340:Drivers/STM32L4xx_HAL_Driver/Src/stm32l4xx_hal_uart_ex.c ****      (+) HAL_UARTEx_EnableFifoMode() API enables the FIFO mode
 341:Drivers/STM32L4xx_HAL_Driver/Src/stm32l4xx_hal_uart_ex.c ****      (+) HAL_UARTEx_DisableFifoMode() API disables the FIFO mode
 342:Drivers/STM32L4xx_HAL_Driver/Src/stm32l4xx_hal_uart_ex.c ****      (+) HAL_UARTEx_SetTxFifoThreshold() API sets the TX FIFO threshold
 343:Drivers/STM32L4xx_HAL_Driver/Src/stm32l4xx_hal_uart_ex.c ****      (+) HAL_UARTEx_SetRxFifoThreshold() API sets the RX FIFO threshold
 344:Drivers/STM32L4xx_HAL_Driver/Src/stm32l4xx_hal_uart_ex.c **** 
 345:Drivers/STM32L4xx_HAL_Driver/Src/stm32l4xx_hal_uart_ex.c ****     [..] This subsection also provides a set of additional functions providing enhanced reception
 346:Drivers/STM32L4xx_HAL_Driver/Src/stm32l4xx_hal_uart_ex.c ****     services to user. (For example, these functions allow application to handle use cases
 347:Drivers/STM32L4xx_HAL_Driver/Src/stm32l4xx_hal_uart_ex.c ****     where number of data to be received is unknown).
 348:Drivers/STM32L4xx_HAL_Driver/Src/stm32l4xx_hal_uart_ex.c **** 
 349:Drivers/STM32L4xx_HAL_Driver/Src/stm32l4xx_hal_uart_ex.c ****     (#) Compared to standard reception services which only consider number of received
 350:Drivers/STM32L4xx_HAL_Driver/Src/stm32l4xx_hal_uart_ex.c ****         data elements as reception completion criteria, these functions also consider additional ev
 351:Drivers/STM32L4xx_HAL_Driver/Src/stm32l4xx_hal_uart_ex.c ****         as triggers for updating reception status to caller :
 352:Drivers/STM32L4xx_HAL_Driver/Src/stm32l4xx_hal_uart_ex.c ****        (+) Detection of inactivity period (RX line has not been active for a given period).
 353:Drivers/STM32L4xx_HAL_Driver/Src/stm32l4xx_hal_uart_ex.c ****           (++) RX inactivity detected by IDLE event, i.e. RX line has been in idle state (normally 
 354:Drivers/STM32L4xx_HAL_Driver/Src/stm32l4xx_hal_uart_ex.c ****                for 1 frame time, after last received byte.
 355:Drivers/STM32L4xx_HAL_Driver/Src/stm32l4xx_hal_uart_ex.c ****           (++) RX inactivity detected by RTO, i.e. line has been in idle state
 356:Drivers/STM32L4xx_HAL_Driver/Src/stm32l4xx_hal_uart_ex.c ****                for a programmable time, after last received byte.
ARM GAS  C:\Users\ep_ygh\AppData\Local\Temp\ccr8O3zb.s 			page 11


 357:Drivers/STM32L4xx_HAL_Driver/Src/stm32l4xx_hal_uart_ex.c ****        (+) Detection that a specific character has been received.
 358:Drivers/STM32L4xx_HAL_Driver/Src/stm32l4xx_hal_uart_ex.c **** 
 359:Drivers/STM32L4xx_HAL_Driver/Src/stm32l4xx_hal_uart_ex.c ****     (#) There are two mode of transfer:
 360:Drivers/STM32L4xx_HAL_Driver/Src/stm32l4xx_hal_uart_ex.c ****        (+) Blocking mode: The reception is performed in polling mode, until either expected number 
 361:Drivers/STM32L4xx_HAL_Driver/Src/stm32l4xx_hal_uart_ex.c ****            or till IDLE event occurs. Reception is handled only during function execution.
 362:Drivers/STM32L4xx_HAL_Driver/Src/stm32l4xx_hal_uart_ex.c ****            When function exits, no data reception could occur. HAL status and number of actually re
 363:Drivers/STM32L4xx_HAL_Driver/Src/stm32l4xx_hal_uart_ex.c ****            are returned by function after finishing transfer.
 364:Drivers/STM32L4xx_HAL_Driver/Src/stm32l4xx_hal_uart_ex.c ****        (+) Non-Blocking mode: The reception is performed using Interrupts or DMA.
 365:Drivers/STM32L4xx_HAL_Driver/Src/stm32l4xx_hal_uart_ex.c ****            These API's return the HAL status.
 366:Drivers/STM32L4xx_HAL_Driver/Src/stm32l4xx_hal_uart_ex.c ****            The end of the data processing will be indicated through the
 367:Drivers/STM32L4xx_HAL_Driver/Src/stm32l4xx_hal_uart_ex.c ****            dedicated UART IRQ when using Interrupt mode or the DMA IRQ when using DMA mode.
 368:Drivers/STM32L4xx_HAL_Driver/Src/stm32l4xx_hal_uart_ex.c ****            The HAL_UARTEx_RxEventCallback() user callback will be executed during Receive process
 369:Drivers/STM32L4xx_HAL_Driver/Src/stm32l4xx_hal_uart_ex.c ****            The HAL_UART_ErrorCallback()user callback will be executed when a reception error is det
 370:Drivers/STM32L4xx_HAL_Driver/Src/stm32l4xx_hal_uart_ex.c **** 
 371:Drivers/STM32L4xx_HAL_Driver/Src/stm32l4xx_hal_uart_ex.c ****     (#) Blocking mode API:
 372:Drivers/STM32L4xx_HAL_Driver/Src/stm32l4xx_hal_uart_ex.c ****         (+) HAL_UARTEx_ReceiveToIdle()
 373:Drivers/STM32L4xx_HAL_Driver/Src/stm32l4xx_hal_uart_ex.c **** 
 374:Drivers/STM32L4xx_HAL_Driver/Src/stm32l4xx_hal_uart_ex.c ****     (#) Non-Blocking mode API with Interrupt:
 375:Drivers/STM32L4xx_HAL_Driver/Src/stm32l4xx_hal_uart_ex.c ****         (+) HAL_UARTEx_ReceiveToIdle_IT()
 376:Drivers/STM32L4xx_HAL_Driver/Src/stm32l4xx_hal_uart_ex.c **** 
 377:Drivers/STM32L4xx_HAL_Driver/Src/stm32l4xx_hal_uart_ex.c ****     (#) Non-Blocking mode API with DMA:
 378:Drivers/STM32L4xx_HAL_Driver/Src/stm32l4xx_hal_uart_ex.c ****         (+) HAL_UARTEx_ReceiveToIdle_DMA()
 379:Drivers/STM32L4xx_HAL_Driver/Src/stm32l4xx_hal_uart_ex.c **** 
 380:Drivers/STM32L4xx_HAL_Driver/Src/stm32l4xx_hal_uart_ex.c **** @endverbatim
 381:Drivers/STM32L4xx_HAL_Driver/Src/stm32l4xx_hal_uart_ex.c ****   * @{
 382:Drivers/STM32L4xx_HAL_Driver/Src/stm32l4xx_hal_uart_ex.c ****   */
 383:Drivers/STM32L4xx_HAL_Driver/Src/stm32l4xx_hal_uart_ex.c **** 
 384:Drivers/STM32L4xx_HAL_Driver/Src/stm32l4xx_hal_uart_ex.c **** #if defined(USART_CR3_UCESM)
 385:Drivers/STM32L4xx_HAL_Driver/Src/stm32l4xx_hal_uart_ex.c **** /**
 386:Drivers/STM32L4xx_HAL_Driver/Src/stm32l4xx_hal_uart_ex.c ****   * @brief  Keep UART Clock enabled when in Stop Mode.
 387:Drivers/STM32L4xx_HAL_Driver/Src/stm32l4xx_hal_uart_ex.c ****   * @note   When the USART clock source is configured to be LSE or HSI, it is possible to keep enab
 388:Drivers/STM32L4xx_HAL_Driver/Src/stm32l4xx_hal_uart_ex.c ****   *         this clock during STOP mode by setting the UCESM bit in USART_CR3 control register.
 389:Drivers/STM32L4xx_HAL_Driver/Src/stm32l4xx_hal_uart_ex.c ****   * @note   When LPUART is used to wakeup from stop with LSE is selected as LPUART clock source,
 390:Drivers/STM32L4xx_HAL_Driver/Src/stm32l4xx_hal_uart_ex.c ****   *         and desired baud rate is 9600 baud, the bit UCESM bit in LPUART_CR3 control register mu
 391:Drivers/STM32L4xx_HAL_Driver/Src/stm32l4xx_hal_uart_ex.c ****   * @param  huart UART handle.
 392:Drivers/STM32L4xx_HAL_Driver/Src/stm32l4xx_hal_uart_ex.c ****   * @retval HAL status
 393:Drivers/STM32L4xx_HAL_Driver/Src/stm32l4xx_hal_uart_ex.c ****   */
 394:Drivers/STM32L4xx_HAL_Driver/Src/stm32l4xx_hal_uart_ex.c **** HAL_StatusTypeDef HAL_UARTEx_EnableClockStopMode(UART_HandleTypeDef *huart)
 395:Drivers/STM32L4xx_HAL_Driver/Src/stm32l4xx_hal_uart_ex.c **** {
 220              		.loc 1 395 1
 221              		.cfi_startproc
 222              		@ args = 0, pretend = 0, frame = 32
 223              		@ frame_needed = 1, uses_anonymous_args = 0
 224              		@ link register save eliminated.
 225 0000 80B4     		push	{r7}
 226              	.LCFI11:
 227              		.cfi_def_cfa_offset 4
 228              		.cfi_offset 7, -4
 229 0002 89B0     		sub	sp, sp, #36
 230              	.LCFI12:
 231              		.cfi_def_cfa_offset 40
 232 0004 00AF     		add	r7, sp, #0
 233              	.LCFI13:
 234              		.cfi_def_cfa_register 7
 235 0006 7860     		str	r0, [r7, #4]
 396:Drivers/STM32L4xx_HAL_Driver/Src/stm32l4xx_hal_uart_ex.c ****   /* Process Locked */
 397:Drivers/STM32L4xx_HAL_Driver/Src/stm32l4xx_hal_uart_ex.c ****   __HAL_LOCK(huart);
ARM GAS  C:\Users\ep_ygh\AppData\Local\Temp\ccr8O3zb.s 			page 12


 236              		.loc 1 397 3
 237 0008 7B68     		ldr	r3, [r7, #4]
 238 000a 93F87830 		ldrb	r3, [r3, #120]	@ zero_extendqisi2
 239 000e 012B     		cmp	r3, #1
 240 0010 01D1     		bne	.L9
 241              		.loc 1 397 3 is_stmt 0 discriminator 1
 242 0012 0223     		movs	r3, #2
 243 0014 22E0     		b	.L10
 244              	.L9:
 245              		.loc 1 397 3 discriminator 2
 246 0016 7B68     		ldr	r3, [r7, #4]
 247 0018 0122     		movs	r2, #1
 248 001a 83F87820 		strb	r2, [r3, #120]
 249              	.L13:
 250              	.LBB32:
 398:Drivers/STM32L4xx_HAL_Driver/Src/stm32l4xx_hal_uart_ex.c **** 
 399:Drivers/STM32L4xx_HAL_Driver/Src/stm32l4xx_hal_uart_ex.c ****   /* Set UCESM bit */
 400:Drivers/STM32L4xx_HAL_Driver/Src/stm32l4xx_hal_uart_ex.c ****   ATOMIC_SET_BIT(huart->Instance->CR3, USART_CR3_UCESM);
 251              		.loc 1 400 3 is_stmt 1 discriminator 1
 252 001e 7B68     		ldr	r3, [r7, #4]
 253 0020 1B68     		ldr	r3, [r3]
 254 0022 0833     		adds	r3, r3, #8
 255 0024 FB60     		str	r3, [r7, #12]
 256              	.LBB33:
 257              	.LBB34:
 258              		.file 2 "Drivers/CMSIS/Include/cmsis_gcc.h"
   1:Drivers/CMSIS/Include/cmsis_gcc.h **** /**************************************************************************//**
   2:Drivers/CMSIS/Include/cmsis_gcc.h ****  * @file     cmsis_gcc.h
   3:Drivers/CMSIS/Include/cmsis_gcc.h ****  * @brief    CMSIS compiler GCC header file
   4:Drivers/CMSIS/Include/cmsis_gcc.h ****  * @version  V5.2.0
   5:Drivers/CMSIS/Include/cmsis_gcc.h ****  * @date     08. May 2019
   6:Drivers/CMSIS/Include/cmsis_gcc.h ****  ******************************************************************************/
   7:Drivers/CMSIS/Include/cmsis_gcc.h **** /*
   8:Drivers/CMSIS/Include/cmsis_gcc.h ****  * Copyright (c) 2009-2019 Arm Limited. All rights reserved.
   9:Drivers/CMSIS/Include/cmsis_gcc.h ****  *
  10:Drivers/CMSIS/Include/cmsis_gcc.h ****  * SPDX-License-Identifier: Apache-2.0
  11:Drivers/CMSIS/Include/cmsis_gcc.h ****  *
  12:Drivers/CMSIS/Include/cmsis_gcc.h ****  * Licensed under the Apache License, Version 2.0 (the License); you may
  13:Drivers/CMSIS/Include/cmsis_gcc.h ****  * not use this file except in compliance with the License.
  14:Drivers/CMSIS/Include/cmsis_gcc.h ****  * You may obtain a copy of the License at
  15:Drivers/CMSIS/Include/cmsis_gcc.h ****  *
  16:Drivers/CMSIS/Include/cmsis_gcc.h ****  * www.apache.org/licenses/LICENSE-2.0
  17:Drivers/CMSIS/Include/cmsis_gcc.h ****  *
  18:Drivers/CMSIS/Include/cmsis_gcc.h ****  * Unless required by applicable law or agreed to in writing, software
  19:Drivers/CMSIS/Include/cmsis_gcc.h ****  * distributed under the License is distributed on an AS IS BASIS, WITHOUT
  20:Drivers/CMSIS/Include/cmsis_gcc.h ****  * WARRANTIES OR CONDITIONS OF ANY KIND, either express or implied.
  21:Drivers/CMSIS/Include/cmsis_gcc.h ****  * See the License for the specific language governing permissions and
  22:Drivers/CMSIS/Include/cmsis_gcc.h ****  * limitations under the License.
  23:Drivers/CMSIS/Include/cmsis_gcc.h ****  */
  24:Drivers/CMSIS/Include/cmsis_gcc.h **** 
  25:Drivers/CMSIS/Include/cmsis_gcc.h **** #ifndef __CMSIS_GCC_H
  26:Drivers/CMSIS/Include/cmsis_gcc.h **** #define __CMSIS_GCC_H
  27:Drivers/CMSIS/Include/cmsis_gcc.h **** 
  28:Drivers/CMSIS/Include/cmsis_gcc.h **** /* ignore some GCC warnings */
  29:Drivers/CMSIS/Include/cmsis_gcc.h **** #pragma GCC diagnostic push
  30:Drivers/CMSIS/Include/cmsis_gcc.h **** #pragma GCC diagnostic ignored "-Wsign-conversion"
  31:Drivers/CMSIS/Include/cmsis_gcc.h **** #pragma GCC diagnostic ignored "-Wconversion"
ARM GAS  C:\Users\ep_ygh\AppData\Local\Temp\ccr8O3zb.s 			page 13


  32:Drivers/CMSIS/Include/cmsis_gcc.h **** #pragma GCC diagnostic ignored "-Wunused-parameter"
  33:Drivers/CMSIS/Include/cmsis_gcc.h **** 
  34:Drivers/CMSIS/Include/cmsis_gcc.h **** /* Fallback for __has_builtin */
  35:Drivers/CMSIS/Include/cmsis_gcc.h **** #ifndef __has_builtin
  36:Drivers/CMSIS/Include/cmsis_gcc.h ****   #define __has_builtin(x) (0)
  37:Drivers/CMSIS/Include/cmsis_gcc.h **** #endif
  38:Drivers/CMSIS/Include/cmsis_gcc.h **** 
  39:Drivers/CMSIS/Include/cmsis_gcc.h **** /* CMSIS compiler specific defines */
  40:Drivers/CMSIS/Include/cmsis_gcc.h **** #ifndef   __ASM
  41:Drivers/CMSIS/Include/cmsis_gcc.h ****   #define __ASM                                  __asm
  42:Drivers/CMSIS/Include/cmsis_gcc.h **** #endif
  43:Drivers/CMSIS/Include/cmsis_gcc.h **** #ifndef   __INLINE
  44:Drivers/CMSIS/Include/cmsis_gcc.h ****   #define __INLINE                               inline
  45:Drivers/CMSIS/Include/cmsis_gcc.h **** #endif
  46:Drivers/CMSIS/Include/cmsis_gcc.h **** #ifndef   __STATIC_INLINE
  47:Drivers/CMSIS/Include/cmsis_gcc.h ****   #define __STATIC_INLINE                        static inline
  48:Drivers/CMSIS/Include/cmsis_gcc.h **** #endif
  49:Drivers/CMSIS/Include/cmsis_gcc.h **** #ifndef   __STATIC_FORCEINLINE                 
  50:Drivers/CMSIS/Include/cmsis_gcc.h ****   #define __STATIC_FORCEINLINE                   __attribute__((always_inline)) static inline
  51:Drivers/CMSIS/Include/cmsis_gcc.h **** #endif                                           
  52:Drivers/CMSIS/Include/cmsis_gcc.h **** #ifndef   __NO_RETURN
  53:Drivers/CMSIS/Include/cmsis_gcc.h ****   #define __NO_RETURN                            __attribute__((__noreturn__))
  54:Drivers/CMSIS/Include/cmsis_gcc.h **** #endif
  55:Drivers/CMSIS/Include/cmsis_gcc.h **** #ifndef   __USED
  56:Drivers/CMSIS/Include/cmsis_gcc.h ****   #define __USED                                 __attribute__((used))
  57:Drivers/CMSIS/Include/cmsis_gcc.h **** #endif
  58:Drivers/CMSIS/Include/cmsis_gcc.h **** #ifndef   __WEAK
  59:Drivers/CMSIS/Include/cmsis_gcc.h ****   #define __WEAK                                 __attribute__((weak))
  60:Drivers/CMSIS/Include/cmsis_gcc.h **** #endif
  61:Drivers/CMSIS/Include/cmsis_gcc.h **** #ifndef   __PACKED
  62:Drivers/CMSIS/Include/cmsis_gcc.h ****   #define __PACKED                               __attribute__((packed, aligned(1)))
  63:Drivers/CMSIS/Include/cmsis_gcc.h **** #endif
  64:Drivers/CMSIS/Include/cmsis_gcc.h **** #ifndef   __PACKED_STRUCT
  65:Drivers/CMSIS/Include/cmsis_gcc.h ****   #define __PACKED_STRUCT                        struct __attribute__((packed, aligned(1)))
  66:Drivers/CMSIS/Include/cmsis_gcc.h **** #endif
  67:Drivers/CMSIS/Include/cmsis_gcc.h **** #ifndef   __PACKED_UNION
  68:Drivers/CMSIS/Include/cmsis_gcc.h ****   #define __PACKED_UNION                         union __attribute__((packed, aligned(1)))
  69:Drivers/CMSIS/Include/cmsis_gcc.h **** #endif
  70:Drivers/CMSIS/Include/cmsis_gcc.h **** #ifndef   __UNALIGNED_UINT32        /* deprecated */
  71:Drivers/CMSIS/Include/cmsis_gcc.h ****   #pragma GCC diagnostic push
  72:Drivers/CMSIS/Include/cmsis_gcc.h ****   #pragma GCC diagnostic ignored "-Wpacked"
  73:Drivers/CMSIS/Include/cmsis_gcc.h ****   #pragma GCC diagnostic ignored "-Wattributes"
  74:Drivers/CMSIS/Include/cmsis_gcc.h ****   struct __attribute__((packed)) T_UINT32 { uint32_t v; };
  75:Drivers/CMSIS/Include/cmsis_gcc.h ****   #pragma GCC diagnostic pop
  76:Drivers/CMSIS/Include/cmsis_gcc.h ****   #define __UNALIGNED_UINT32(x)                  (((struct T_UINT32 *)(x))->v)
  77:Drivers/CMSIS/Include/cmsis_gcc.h **** #endif
  78:Drivers/CMSIS/Include/cmsis_gcc.h **** #ifndef   __UNALIGNED_UINT16_WRITE
  79:Drivers/CMSIS/Include/cmsis_gcc.h ****   #pragma GCC diagnostic push
  80:Drivers/CMSIS/Include/cmsis_gcc.h ****   #pragma GCC diagnostic ignored "-Wpacked"
  81:Drivers/CMSIS/Include/cmsis_gcc.h ****   #pragma GCC diagnostic ignored "-Wattributes"
  82:Drivers/CMSIS/Include/cmsis_gcc.h ****   __PACKED_STRUCT T_UINT16_WRITE { uint16_t v; };
  83:Drivers/CMSIS/Include/cmsis_gcc.h ****   #pragma GCC diagnostic pop
  84:Drivers/CMSIS/Include/cmsis_gcc.h ****   #define __UNALIGNED_UINT16_WRITE(addr, val)    (void)((((struct T_UINT16_WRITE *)(void *)(addr))-
  85:Drivers/CMSIS/Include/cmsis_gcc.h **** #endif
  86:Drivers/CMSIS/Include/cmsis_gcc.h **** #ifndef   __UNALIGNED_UINT16_READ
  87:Drivers/CMSIS/Include/cmsis_gcc.h ****   #pragma GCC diagnostic push
  88:Drivers/CMSIS/Include/cmsis_gcc.h ****   #pragma GCC diagnostic ignored "-Wpacked"
ARM GAS  C:\Users\ep_ygh\AppData\Local\Temp\ccr8O3zb.s 			page 14


  89:Drivers/CMSIS/Include/cmsis_gcc.h ****   #pragma GCC diagnostic ignored "-Wattributes"
  90:Drivers/CMSIS/Include/cmsis_gcc.h ****   __PACKED_STRUCT T_UINT16_READ { uint16_t v; };
  91:Drivers/CMSIS/Include/cmsis_gcc.h ****   #pragma GCC diagnostic pop
  92:Drivers/CMSIS/Include/cmsis_gcc.h ****   #define __UNALIGNED_UINT16_READ(addr)          (((const struct T_UINT16_READ *)(const void *)(add
  93:Drivers/CMSIS/Include/cmsis_gcc.h **** #endif
  94:Drivers/CMSIS/Include/cmsis_gcc.h **** #ifndef   __UNALIGNED_UINT32_WRITE
  95:Drivers/CMSIS/Include/cmsis_gcc.h ****   #pragma GCC diagnostic push
  96:Drivers/CMSIS/Include/cmsis_gcc.h ****   #pragma GCC diagnostic ignored "-Wpacked"
  97:Drivers/CMSIS/Include/cmsis_gcc.h ****   #pragma GCC diagnostic ignored "-Wattributes"
  98:Drivers/CMSIS/Include/cmsis_gcc.h ****   __PACKED_STRUCT T_UINT32_WRITE { uint32_t v; };
  99:Drivers/CMSIS/Include/cmsis_gcc.h ****   #pragma GCC diagnostic pop
 100:Drivers/CMSIS/Include/cmsis_gcc.h ****   #define __UNALIGNED_UINT32_WRITE(addr, val)    (void)((((struct T_UINT32_WRITE *)(void *)(addr))-
 101:Drivers/CMSIS/Include/cmsis_gcc.h **** #endif
 102:Drivers/CMSIS/Include/cmsis_gcc.h **** #ifndef   __UNALIGNED_UINT32_READ
 103:Drivers/CMSIS/Include/cmsis_gcc.h ****   #pragma GCC diagnostic push
 104:Drivers/CMSIS/Include/cmsis_gcc.h ****   #pragma GCC diagnostic ignored "-Wpacked"
 105:Drivers/CMSIS/Include/cmsis_gcc.h ****   #pragma GCC diagnostic ignored "-Wattributes"
 106:Drivers/CMSIS/Include/cmsis_gcc.h ****   __PACKED_STRUCT T_UINT32_READ { uint32_t v; };
 107:Drivers/CMSIS/Include/cmsis_gcc.h ****   #pragma GCC diagnostic pop
 108:Drivers/CMSIS/Include/cmsis_gcc.h ****   #define __UNALIGNED_UINT32_READ(addr)          (((const struct T_UINT32_READ *)(const void *)(add
 109:Drivers/CMSIS/Include/cmsis_gcc.h **** #endif
 110:Drivers/CMSIS/Include/cmsis_gcc.h **** #ifndef   __ALIGNED
 111:Drivers/CMSIS/Include/cmsis_gcc.h ****   #define __ALIGNED(x)                           __attribute__((aligned(x)))
 112:Drivers/CMSIS/Include/cmsis_gcc.h **** #endif
 113:Drivers/CMSIS/Include/cmsis_gcc.h **** #ifndef   __RESTRICT
 114:Drivers/CMSIS/Include/cmsis_gcc.h ****   #define __RESTRICT                             __restrict
 115:Drivers/CMSIS/Include/cmsis_gcc.h **** #endif
 116:Drivers/CMSIS/Include/cmsis_gcc.h **** #ifndef   __COMPILER_BARRIER
 117:Drivers/CMSIS/Include/cmsis_gcc.h ****   #define __COMPILER_BARRIER()                   __ASM volatile("":::"memory")
 118:Drivers/CMSIS/Include/cmsis_gcc.h **** #endif
 119:Drivers/CMSIS/Include/cmsis_gcc.h **** 
 120:Drivers/CMSIS/Include/cmsis_gcc.h **** /* #########################  Startup and Lowlevel Init  ######################## */
 121:Drivers/CMSIS/Include/cmsis_gcc.h **** 
 122:Drivers/CMSIS/Include/cmsis_gcc.h **** #ifndef __PROGRAM_START
 123:Drivers/CMSIS/Include/cmsis_gcc.h **** 
 124:Drivers/CMSIS/Include/cmsis_gcc.h **** /**
 125:Drivers/CMSIS/Include/cmsis_gcc.h ****   \brief   Initializes data and bss sections
 126:Drivers/CMSIS/Include/cmsis_gcc.h ****   \details This default implementations initialized all data and additional bss
 127:Drivers/CMSIS/Include/cmsis_gcc.h ****            sections relying on .copy.table and .zero.table specified properly
 128:Drivers/CMSIS/Include/cmsis_gcc.h ****            in the used linker script.
 129:Drivers/CMSIS/Include/cmsis_gcc.h ****   
 130:Drivers/CMSIS/Include/cmsis_gcc.h ****  */
 131:Drivers/CMSIS/Include/cmsis_gcc.h **** __STATIC_FORCEINLINE __NO_RETURN void __cmsis_start(void)
 132:Drivers/CMSIS/Include/cmsis_gcc.h **** {
 133:Drivers/CMSIS/Include/cmsis_gcc.h ****   extern void _start(void) __NO_RETURN;
 134:Drivers/CMSIS/Include/cmsis_gcc.h ****   
 135:Drivers/CMSIS/Include/cmsis_gcc.h ****   typedef struct {
 136:Drivers/CMSIS/Include/cmsis_gcc.h ****     uint32_t const* src;
 137:Drivers/CMSIS/Include/cmsis_gcc.h ****     uint32_t* dest;
 138:Drivers/CMSIS/Include/cmsis_gcc.h ****     uint32_t  wlen;
 139:Drivers/CMSIS/Include/cmsis_gcc.h ****   } __copy_table_t;
 140:Drivers/CMSIS/Include/cmsis_gcc.h ****   
 141:Drivers/CMSIS/Include/cmsis_gcc.h ****   typedef struct {
 142:Drivers/CMSIS/Include/cmsis_gcc.h ****     uint32_t* dest;
 143:Drivers/CMSIS/Include/cmsis_gcc.h ****     uint32_t  wlen;
 144:Drivers/CMSIS/Include/cmsis_gcc.h ****   } __zero_table_t;
 145:Drivers/CMSIS/Include/cmsis_gcc.h ****   
ARM GAS  C:\Users\ep_ygh\AppData\Local\Temp\ccr8O3zb.s 			page 15


 146:Drivers/CMSIS/Include/cmsis_gcc.h ****   extern const __copy_table_t __copy_table_start__;
 147:Drivers/CMSIS/Include/cmsis_gcc.h ****   extern const __copy_table_t __copy_table_end__;
 148:Drivers/CMSIS/Include/cmsis_gcc.h ****   extern const __zero_table_t __zero_table_start__;
 149:Drivers/CMSIS/Include/cmsis_gcc.h ****   extern const __zero_table_t __zero_table_end__;
 150:Drivers/CMSIS/Include/cmsis_gcc.h **** 
 151:Drivers/CMSIS/Include/cmsis_gcc.h ****   for (__copy_table_t const* pTable = &__copy_table_start__; pTable < &__copy_table_end__; ++pTable
 152:Drivers/CMSIS/Include/cmsis_gcc.h ****     for(uint32_t i=0u; i<pTable->wlen; ++i) {
 153:Drivers/CMSIS/Include/cmsis_gcc.h ****       pTable->dest[i] = pTable->src[i];
 154:Drivers/CMSIS/Include/cmsis_gcc.h ****     }
 155:Drivers/CMSIS/Include/cmsis_gcc.h ****   }
 156:Drivers/CMSIS/Include/cmsis_gcc.h ****  
 157:Drivers/CMSIS/Include/cmsis_gcc.h ****   for (__zero_table_t const* pTable = &__zero_table_start__; pTable < &__zero_table_end__; ++pTable
 158:Drivers/CMSIS/Include/cmsis_gcc.h ****     for(uint32_t i=0u; i<pTable->wlen; ++i) {
 159:Drivers/CMSIS/Include/cmsis_gcc.h ****       pTable->dest[i] = 0u;
 160:Drivers/CMSIS/Include/cmsis_gcc.h ****     }
 161:Drivers/CMSIS/Include/cmsis_gcc.h ****   }
 162:Drivers/CMSIS/Include/cmsis_gcc.h ****  
 163:Drivers/CMSIS/Include/cmsis_gcc.h ****   _start();
 164:Drivers/CMSIS/Include/cmsis_gcc.h **** }
 165:Drivers/CMSIS/Include/cmsis_gcc.h ****   
 166:Drivers/CMSIS/Include/cmsis_gcc.h **** #define __PROGRAM_START           __cmsis_start
 167:Drivers/CMSIS/Include/cmsis_gcc.h **** #endif
 168:Drivers/CMSIS/Include/cmsis_gcc.h **** 
 169:Drivers/CMSIS/Include/cmsis_gcc.h **** #ifndef __INITIAL_SP
 170:Drivers/CMSIS/Include/cmsis_gcc.h **** #define __INITIAL_SP              __StackTop
 171:Drivers/CMSIS/Include/cmsis_gcc.h **** #endif
 172:Drivers/CMSIS/Include/cmsis_gcc.h **** 
 173:Drivers/CMSIS/Include/cmsis_gcc.h **** #ifndef __STACK_LIMIT
 174:Drivers/CMSIS/Include/cmsis_gcc.h **** #define __STACK_LIMIT             __StackLimit
 175:Drivers/CMSIS/Include/cmsis_gcc.h **** #endif
 176:Drivers/CMSIS/Include/cmsis_gcc.h **** 
 177:Drivers/CMSIS/Include/cmsis_gcc.h **** #ifndef __VECTOR_TABLE
 178:Drivers/CMSIS/Include/cmsis_gcc.h **** #define __VECTOR_TABLE            __Vectors
 179:Drivers/CMSIS/Include/cmsis_gcc.h **** #endif
 180:Drivers/CMSIS/Include/cmsis_gcc.h **** 
 181:Drivers/CMSIS/Include/cmsis_gcc.h **** #ifndef __VECTOR_TABLE_ATTRIBUTE
 182:Drivers/CMSIS/Include/cmsis_gcc.h **** #define __VECTOR_TABLE_ATTRIBUTE  __attribute((used, section(".vectors")))
 183:Drivers/CMSIS/Include/cmsis_gcc.h **** #endif
 184:Drivers/CMSIS/Include/cmsis_gcc.h **** 
 185:Drivers/CMSIS/Include/cmsis_gcc.h **** /* ###########################  Core Function Access  ########################### */
 186:Drivers/CMSIS/Include/cmsis_gcc.h **** /** \ingroup  CMSIS_Core_FunctionInterface
 187:Drivers/CMSIS/Include/cmsis_gcc.h ****     \defgroup CMSIS_Core_RegAccFunctions CMSIS Core Register Access Functions
 188:Drivers/CMSIS/Include/cmsis_gcc.h ****   @{
 189:Drivers/CMSIS/Include/cmsis_gcc.h ****  */
 190:Drivers/CMSIS/Include/cmsis_gcc.h **** 
 191:Drivers/CMSIS/Include/cmsis_gcc.h **** /**
 192:Drivers/CMSIS/Include/cmsis_gcc.h ****   \brief   Enable IRQ Interrupts
 193:Drivers/CMSIS/Include/cmsis_gcc.h ****   \details Enables IRQ interrupts by clearing the I-bit in the CPSR.
 194:Drivers/CMSIS/Include/cmsis_gcc.h ****            Can only be executed in Privileged modes.
 195:Drivers/CMSIS/Include/cmsis_gcc.h ****  */
 196:Drivers/CMSIS/Include/cmsis_gcc.h **** __STATIC_FORCEINLINE void __enable_irq(void)
 197:Drivers/CMSIS/Include/cmsis_gcc.h **** {
 198:Drivers/CMSIS/Include/cmsis_gcc.h ****   __ASM volatile ("cpsie i" : : : "memory");
 199:Drivers/CMSIS/Include/cmsis_gcc.h **** }
 200:Drivers/CMSIS/Include/cmsis_gcc.h **** 
 201:Drivers/CMSIS/Include/cmsis_gcc.h **** 
 202:Drivers/CMSIS/Include/cmsis_gcc.h **** /**
ARM GAS  C:\Users\ep_ygh\AppData\Local\Temp\ccr8O3zb.s 			page 16


 203:Drivers/CMSIS/Include/cmsis_gcc.h ****   \brief   Disable IRQ Interrupts
 204:Drivers/CMSIS/Include/cmsis_gcc.h ****   \details Disables IRQ interrupts by setting the I-bit in the CPSR.
 205:Drivers/CMSIS/Include/cmsis_gcc.h ****            Can only be executed in Privileged modes.
 206:Drivers/CMSIS/Include/cmsis_gcc.h ****  */
 207:Drivers/CMSIS/Include/cmsis_gcc.h **** __STATIC_FORCEINLINE void __disable_irq(void)
 208:Drivers/CMSIS/Include/cmsis_gcc.h **** {
 209:Drivers/CMSIS/Include/cmsis_gcc.h ****   __ASM volatile ("cpsid i" : : : "memory");
 210:Drivers/CMSIS/Include/cmsis_gcc.h **** }
 211:Drivers/CMSIS/Include/cmsis_gcc.h **** 
 212:Drivers/CMSIS/Include/cmsis_gcc.h **** 
 213:Drivers/CMSIS/Include/cmsis_gcc.h **** /**
 214:Drivers/CMSIS/Include/cmsis_gcc.h ****   \brief   Get Control Register
 215:Drivers/CMSIS/Include/cmsis_gcc.h ****   \details Returns the content of the Control Register.
 216:Drivers/CMSIS/Include/cmsis_gcc.h ****   \return               Control Register value
 217:Drivers/CMSIS/Include/cmsis_gcc.h ****  */
 218:Drivers/CMSIS/Include/cmsis_gcc.h **** __STATIC_FORCEINLINE uint32_t __get_CONTROL(void)
 219:Drivers/CMSIS/Include/cmsis_gcc.h **** {
 220:Drivers/CMSIS/Include/cmsis_gcc.h ****   uint32_t result;
 221:Drivers/CMSIS/Include/cmsis_gcc.h **** 
 222:Drivers/CMSIS/Include/cmsis_gcc.h ****   __ASM volatile ("MRS %0, control" : "=r" (result) );
 223:Drivers/CMSIS/Include/cmsis_gcc.h ****   return(result);
 224:Drivers/CMSIS/Include/cmsis_gcc.h **** }
 225:Drivers/CMSIS/Include/cmsis_gcc.h **** 
 226:Drivers/CMSIS/Include/cmsis_gcc.h **** 
 227:Drivers/CMSIS/Include/cmsis_gcc.h **** #if (defined (__ARM_FEATURE_CMSE ) && (__ARM_FEATURE_CMSE == 3))
 228:Drivers/CMSIS/Include/cmsis_gcc.h **** /**
 229:Drivers/CMSIS/Include/cmsis_gcc.h ****   \brief   Get Control Register (non-secure)
 230:Drivers/CMSIS/Include/cmsis_gcc.h ****   \details Returns the content of the non-secure Control Register when in secure mode.
 231:Drivers/CMSIS/Include/cmsis_gcc.h ****   \return               non-secure Control Register value
 232:Drivers/CMSIS/Include/cmsis_gcc.h ****  */
 233:Drivers/CMSIS/Include/cmsis_gcc.h **** __STATIC_FORCEINLINE uint32_t __TZ_get_CONTROL_NS(void)
 234:Drivers/CMSIS/Include/cmsis_gcc.h **** {
 235:Drivers/CMSIS/Include/cmsis_gcc.h ****   uint32_t result;
 236:Drivers/CMSIS/Include/cmsis_gcc.h **** 
 237:Drivers/CMSIS/Include/cmsis_gcc.h ****   __ASM volatile ("MRS %0, control_ns" : "=r" (result) );
 238:Drivers/CMSIS/Include/cmsis_gcc.h ****   return(result);
 239:Drivers/CMSIS/Include/cmsis_gcc.h **** }
 240:Drivers/CMSIS/Include/cmsis_gcc.h **** #endif
 241:Drivers/CMSIS/Include/cmsis_gcc.h **** 
 242:Drivers/CMSIS/Include/cmsis_gcc.h **** 
 243:Drivers/CMSIS/Include/cmsis_gcc.h **** /**
 244:Drivers/CMSIS/Include/cmsis_gcc.h ****   \brief   Set Control Register
 245:Drivers/CMSIS/Include/cmsis_gcc.h ****   \details Writes the given value to the Control Register.
 246:Drivers/CMSIS/Include/cmsis_gcc.h ****   \param [in]    control  Control Register value to set
 247:Drivers/CMSIS/Include/cmsis_gcc.h ****  */
 248:Drivers/CMSIS/Include/cmsis_gcc.h **** __STATIC_FORCEINLINE void __set_CONTROL(uint32_t control)
 249:Drivers/CMSIS/Include/cmsis_gcc.h **** {
 250:Drivers/CMSIS/Include/cmsis_gcc.h ****   __ASM volatile ("MSR control, %0" : : "r" (control) : "memory");
 251:Drivers/CMSIS/Include/cmsis_gcc.h **** }
 252:Drivers/CMSIS/Include/cmsis_gcc.h **** 
 253:Drivers/CMSIS/Include/cmsis_gcc.h **** 
 254:Drivers/CMSIS/Include/cmsis_gcc.h **** #if (defined (__ARM_FEATURE_CMSE ) && (__ARM_FEATURE_CMSE == 3))
 255:Drivers/CMSIS/Include/cmsis_gcc.h **** /**
 256:Drivers/CMSIS/Include/cmsis_gcc.h ****   \brief   Set Control Register (non-secure)
 257:Drivers/CMSIS/Include/cmsis_gcc.h ****   \details Writes the given value to the non-secure Control Register when in secure state.
 258:Drivers/CMSIS/Include/cmsis_gcc.h ****   \param [in]    control  Control Register value to set
 259:Drivers/CMSIS/Include/cmsis_gcc.h ****  */
ARM GAS  C:\Users\ep_ygh\AppData\Local\Temp\ccr8O3zb.s 			page 17


 260:Drivers/CMSIS/Include/cmsis_gcc.h **** __STATIC_FORCEINLINE void __TZ_set_CONTROL_NS(uint32_t control)
 261:Drivers/CMSIS/Include/cmsis_gcc.h **** {
 262:Drivers/CMSIS/Include/cmsis_gcc.h ****   __ASM volatile ("MSR control_ns, %0" : : "r" (control) : "memory");
 263:Drivers/CMSIS/Include/cmsis_gcc.h **** }
 264:Drivers/CMSIS/Include/cmsis_gcc.h **** #endif
 265:Drivers/CMSIS/Include/cmsis_gcc.h **** 
 266:Drivers/CMSIS/Include/cmsis_gcc.h **** 
 267:Drivers/CMSIS/Include/cmsis_gcc.h **** /**
 268:Drivers/CMSIS/Include/cmsis_gcc.h ****   \brief   Get IPSR Register
 269:Drivers/CMSIS/Include/cmsis_gcc.h ****   \details Returns the content of the IPSR Register.
 270:Drivers/CMSIS/Include/cmsis_gcc.h ****   \return               IPSR Register value
 271:Drivers/CMSIS/Include/cmsis_gcc.h ****  */
 272:Drivers/CMSIS/Include/cmsis_gcc.h **** __STATIC_FORCEINLINE uint32_t __get_IPSR(void)
 273:Drivers/CMSIS/Include/cmsis_gcc.h **** {
 274:Drivers/CMSIS/Include/cmsis_gcc.h ****   uint32_t result;
 275:Drivers/CMSIS/Include/cmsis_gcc.h **** 
 276:Drivers/CMSIS/Include/cmsis_gcc.h ****   __ASM volatile ("MRS %0, ipsr" : "=r" (result) );
 277:Drivers/CMSIS/Include/cmsis_gcc.h ****   return(result);
 278:Drivers/CMSIS/Include/cmsis_gcc.h **** }
 279:Drivers/CMSIS/Include/cmsis_gcc.h **** 
 280:Drivers/CMSIS/Include/cmsis_gcc.h **** 
 281:Drivers/CMSIS/Include/cmsis_gcc.h **** /**
 282:Drivers/CMSIS/Include/cmsis_gcc.h ****   \brief   Get APSR Register
 283:Drivers/CMSIS/Include/cmsis_gcc.h ****   \details Returns the content of the APSR Register.
 284:Drivers/CMSIS/Include/cmsis_gcc.h ****   \return               APSR Register value
 285:Drivers/CMSIS/Include/cmsis_gcc.h ****  */
 286:Drivers/CMSIS/Include/cmsis_gcc.h **** __STATIC_FORCEINLINE uint32_t __get_APSR(void)
 287:Drivers/CMSIS/Include/cmsis_gcc.h **** {
 288:Drivers/CMSIS/Include/cmsis_gcc.h ****   uint32_t result;
 289:Drivers/CMSIS/Include/cmsis_gcc.h **** 
 290:Drivers/CMSIS/Include/cmsis_gcc.h ****   __ASM volatile ("MRS %0, apsr" : "=r" (result) );
 291:Drivers/CMSIS/Include/cmsis_gcc.h ****   return(result);
 292:Drivers/CMSIS/Include/cmsis_gcc.h **** }
 293:Drivers/CMSIS/Include/cmsis_gcc.h **** 
 294:Drivers/CMSIS/Include/cmsis_gcc.h **** 
 295:Drivers/CMSIS/Include/cmsis_gcc.h **** /**
 296:Drivers/CMSIS/Include/cmsis_gcc.h ****   \brief   Get xPSR Register
 297:Drivers/CMSIS/Include/cmsis_gcc.h ****   \details Returns the content of the xPSR Register.
 298:Drivers/CMSIS/Include/cmsis_gcc.h ****   \return               xPSR Register value
 299:Drivers/CMSIS/Include/cmsis_gcc.h ****  */
 300:Drivers/CMSIS/Include/cmsis_gcc.h **** __STATIC_FORCEINLINE uint32_t __get_xPSR(void)
 301:Drivers/CMSIS/Include/cmsis_gcc.h **** {
 302:Drivers/CMSIS/Include/cmsis_gcc.h ****   uint32_t result;
 303:Drivers/CMSIS/Include/cmsis_gcc.h **** 
 304:Drivers/CMSIS/Include/cmsis_gcc.h ****   __ASM volatile ("MRS %0, xpsr" : "=r" (result) );
 305:Drivers/CMSIS/Include/cmsis_gcc.h ****   return(result);
 306:Drivers/CMSIS/Include/cmsis_gcc.h **** }
 307:Drivers/CMSIS/Include/cmsis_gcc.h **** 
 308:Drivers/CMSIS/Include/cmsis_gcc.h **** 
 309:Drivers/CMSIS/Include/cmsis_gcc.h **** /**
 310:Drivers/CMSIS/Include/cmsis_gcc.h ****   \brief   Get Process Stack Pointer
 311:Drivers/CMSIS/Include/cmsis_gcc.h ****   \details Returns the current value of the Process Stack Pointer (PSP).
 312:Drivers/CMSIS/Include/cmsis_gcc.h ****   \return               PSP Register value
 313:Drivers/CMSIS/Include/cmsis_gcc.h ****  */
 314:Drivers/CMSIS/Include/cmsis_gcc.h **** __STATIC_FORCEINLINE uint32_t __get_PSP(void)
 315:Drivers/CMSIS/Include/cmsis_gcc.h **** {
 316:Drivers/CMSIS/Include/cmsis_gcc.h ****   uint32_t result;
ARM GAS  C:\Users\ep_ygh\AppData\Local\Temp\ccr8O3zb.s 			page 18


 317:Drivers/CMSIS/Include/cmsis_gcc.h **** 
 318:Drivers/CMSIS/Include/cmsis_gcc.h ****   __ASM volatile ("MRS %0, psp"  : "=r" (result) );
 319:Drivers/CMSIS/Include/cmsis_gcc.h ****   return(result);
 320:Drivers/CMSIS/Include/cmsis_gcc.h **** }
 321:Drivers/CMSIS/Include/cmsis_gcc.h **** 
 322:Drivers/CMSIS/Include/cmsis_gcc.h **** 
 323:Drivers/CMSIS/Include/cmsis_gcc.h **** #if (defined (__ARM_FEATURE_CMSE ) && (__ARM_FEATURE_CMSE == 3))
 324:Drivers/CMSIS/Include/cmsis_gcc.h **** /**
 325:Drivers/CMSIS/Include/cmsis_gcc.h ****   \brief   Get Process Stack Pointer (non-secure)
 326:Drivers/CMSIS/Include/cmsis_gcc.h ****   \details Returns the current value of the non-secure Process Stack Pointer (PSP) when in secure s
 327:Drivers/CMSIS/Include/cmsis_gcc.h ****   \return               PSP Register value
 328:Drivers/CMSIS/Include/cmsis_gcc.h ****  */
 329:Drivers/CMSIS/Include/cmsis_gcc.h **** __STATIC_FORCEINLINE uint32_t __TZ_get_PSP_NS(void)
 330:Drivers/CMSIS/Include/cmsis_gcc.h **** {
 331:Drivers/CMSIS/Include/cmsis_gcc.h ****   uint32_t result;
 332:Drivers/CMSIS/Include/cmsis_gcc.h **** 
 333:Drivers/CMSIS/Include/cmsis_gcc.h ****   __ASM volatile ("MRS %0, psp_ns"  : "=r" (result) );
 334:Drivers/CMSIS/Include/cmsis_gcc.h ****   return(result);
 335:Drivers/CMSIS/Include/cmsis_gcc.h **** }
 336:Drivers/CMSIS/Include/cmsis_gcc.h **** #endif
 337:Drivers/CMSIS/Include/cmsis_gcc.h **** 
 338:Drivers/CMSIS/Include/cmsis_gcc.h **** 
 339:Drivers/CMSIS/Include/cmsis_gcc.h **** /**
 340:Drivers/CMSIS/Include/cmsis_gcc.h ****   \brief   Set Process Stack Pointer
 341:Drivers/CMSIS/Include/cmsis_gcc.h ****   \details Assigns the given value to the Process Stack Pointer (PSP).
 342:Drivers/CMSIS/Include/cmsis_gcc.h ****   \param [in]    topOfProcStack  Process Stack Pointer value to set
 343:Drivers/CMSIS/Include/cmsis_gcc.h ****  */
 344:Drivers/CMSIS/Include/cmsis_gcc.h **** __STATIC_FORCEINLINE void __set_PSP(uint32_t topOfProcStack)
 345:Drivers/CMSIS/Include/cmsis_gcc.h **** {
 346:Drivers/CMSIS/Include/cmsis_gcc.h ****   __ASM volatile ("MSR psp, %0" : : "r" (topOfProcStack) : );
 347:Drivers/CMSIS/Include/cmsis_gcc.h **** }
 348:Drivers/CMSIS/Include/cmsis_gcc.h **** 
 349:Drivers/CMSIS/Include/cmsis_gcc.h **** 
 350:Drivers/CMSIS/Include/cmsis_gcc.h **** #if (defined (__ARM_FEATURE_CMSE ) && (__ARM_FEATURE_CMSE == 3))
 351:Drivers/CMSIS/Include/cmsis_gcc.h **** /**
 352:Drivers/CMSIS/Include/cmsis_gcc.h ****   \brief   Set Process Stack Pointer (non-secure)
 353:Drivers/CMSIS/Include/cmsis_gcc.h ****   \details Assigns the given value to the non-secure Process Stack Pointer (PSP) when in secure sta
 354:Drivers/CMSIS/Include/cmsis_gcc.h ****   \param [in]    topOfProcStack  Process Stack Pointer value to set
 355:Drivers/CMSIS/Include/cmsis_gcc.h ****  */
 356:Drivers/CMSIS/Include/cmsis_gcc.h **** __STATIC_FORCEINLINE void __TZ_set_PSP_NS(uint32_t topOfProcStack)
 357:Drivers/CMSIS/Include/cmsis_gcc.h **** {
 358:Drivers/CMSIS/Include/cmsis_gcc.h ****   __ASM volatile ("MSR psp_ns, %0" : : "r" (topOfProcStack) : );
 359:Drivers/CMSIS/Include/cmsis_gcc.h **** }
 360:Drivers/CMSIS/Include/cmsis_gcc.h **** #endif
 361:Drivers/CMSIS/Include/cmsis_gcc.h **** 
 362:Drivers/CMSIS/Include/cmsis_gcc.h **** 
 363:Drivers/CMSIS/Include/cmsis_gcc.h **** /**
 364:Drivers/CMSIS/Include/cmsis_gcc.h ****   \brief   Get Main Stack Pointer
 365:Drivers/CMSIS/Include/cmsis_gcc.h ****   \details Returns the current value of the Main Stack Pointer (MSP).
 366:Drivers/CMSIS/Include/cmsis_gcc.h ****   \return               MSP Register value
 367:Drivers/CMSIS/Include/cmsis_gcc.h ****  */
 368:Drivers/CMSIS/Include/cmsis_gcc.h **** __STATIC_FORCEINLINE uint32_t __get_MSP(void)
 369:Drivers/CMSIS/Include/cmsis_gcc.h **** {
 370:Drivers/CMSIS/Include/cmsis_gcc.h ****   uint32_t result;
 371:Drivers/CMSIS/Include/cmsis_gcc.h **** 
 372:Drivers/CMSIS/Include/cmsis_gcc.h ****   __ASM volatile ("MRS %0, msp" : "=r" (result) );
 373:Drivers/CMSIS/Include/cmsis_gcc.h ****   return(result);
ARM GAS  C:\Users\ep_ygh\AppData\Local\Temp\ccr8O3zb.s 			page 19


 374:Drivers/CMSIS/Include/cmsis_gcc.h **** }
 375:Drivers/CMSIS/Include/cmsis_gcc.h **** 
 376:Drivers/CMSIS/Include/cmsis_gcc.h **** 
 377:Drivers/CMSIS/Include/cmsis_gcc.h **** #if (defined (__ARM_FEATURE_CMSE ) && (__ARM_FEATURE_CMSE == 3))
 378:Drivers/CMSIS/Include/cmsis_gcc.h **** /**
 379:Drivers/CMSIS/Include/cmsis_gcc.h ****   \brief   Get Main Stack Pointer (non-secure)
 380:Drivers/CMSIS/Include/cmsis_gcc.h ****   \details Returns the current value of the non-secure Main Stack Pointer (MSP) when in secure stat
 381:Drivers/CMSIS/Include/cmsis_gcc.h ****   \return               MSP Register value
 382:Drivers/CMSIS/Include/cmsis_gcc.h ****  */
 383:Drivers/CMSIS/Include/cmsis_gcc.h **** __STATIC_FORCEINLINE uint32_t __TZ_get_MSP_NS(void)
 384:Drivers/CMSIS/Include/cmsis_gcc.h **** {
 385:Drivers/CMSIS/Include/cmsis_gcc.h ****   uint32_t result;
 386:Drivers/CMSIS/Include/cmsis_gcc.h **** 
 387:Drivers/CMSIS/Include/cmsis_gcc.h ****   __ASM volatile ("MRS %0, msp_ns" : "=r" (result) );
 388:Drivers/CMSIS/Include/cmsis_gcc.h ****   return(result);
 389:Drivers/CMSIS/Include/cmsis_gcc.h **** }
 390:Drivers/CMSIS/Include/cmsis_gcc.h **** #endif
 391:Drivers/CMSIS/Include/cmsis_gcc.h **** 
 392:Drivers/CMSIS/Include/cmsis_gcc.h **** 
 393:Drivers/CMSIS/Include/cmsis_gcc.h **** /**
 394:Drivers/CMSIS/Include/cmsis_gcc.h ****   \brief   Set Main Stack Pointer
 395:Drivers/CMSIS/Include/cmsis_gcc.h ****   \details Assigns the given value to the Main Stack Pointer (MSP).
 396:Drivers/CMSIS/Include/cmsis_gcc.h ****   \param [in]    topOfMainStack  Main Stack Pointer value to set
 397:Drivers/CMSIS/Include/cmsis_gcc.h ****  */
 398:Drivers/CMSIS/Include/cmsis_gcc.h **** __STATIC_FORCEINLINE void __set_MSP(uint32_t topOfMainStack)
 399:Drivers/CMSIS/Include/cmsis_gcc.h **** {
 400:Drivers/CMSIS/Include/cmsis_gcc.h ****   __ASM volatile ("MSR msp, %0" : : "r" (topOfMainStack) : );
 401:Drivers/CMSIS/Include/cmsis_gcc.h **** }
 402:Drivers/CMSIS/Include/cmsis_gcc.h **** 
 403:Drivers/CMSIS/Include/cmsis_gcc.h **** 
 404:Drivers/CMSIS/Include/cmsis_gcc.h **** #if (defined (__ARM_FEATURE_CMSE ) && (__ARM_FEATURE_CMSE == 3))
 405:Drivers/CMSIS/Include/cmsis_gcc.h **** /**
 406:Drivers/CMSIS/Include/cmsis_gcc.h ****   \brief   Set Main Stack Pointer (non-secure)
 407:Drivers/CMSIS/Include/cmsis_gcc.h ****   \details Assigns the given value to the non-secure Main Stack Pointer (MSP) when in secure state.
 408:Drivers/CMSIS/Include/cmsis_gcc.h ****   \param [in]    topOfMainStack  Main Stack Pointer value to set
 409:Drivers/CMSIS/Include/cmsis_gcc.h ****  */
 410:Drivers/CMSIS/Include/cmsis_gcc.h **** __STATIC_FORCEINLINE void __TZ_set_MSP_NS(uint32_t topOfMainStack)
 411:Drivers/CMSIS/Include/cmsis_gcc.h **** {
 412:Drivers/CMSIS/Include/cmsis_gcc.h ****   __ASM volatile ("MSR msp_ns, %0" : : "r" (topOfMainStack) : );
 413:Drivers/CMSIS/Include/cmsis_gcc.h **** }
 414:Drivers/CMSIS/Include/cmsis_gcc.h **** #endif
 415:Drivers/CMSIS/Include/cmsis_gcc.h **** 
 416:Drivers/CMSIS/Include/cmsis_gcc.h **** 
 417:Drivers/CMSIS/Include/cmsis_gcc.h **** #if (defined (__ARM_FEATURE_CMSE ) && (__ARM_FEATURE_CMSE == 3))
 418:Drivers/CMSIS/Include/cmsis_gcc.h **** /**
 419:Drivers/CMSIS/Include/cmsis_gcc.h ****   \brief   Get Stack Pointer (non-secure)
 420:Drivers/CMSIS/Include/cmsis_gcc.h ****   \details Returns the current value of the non-secure Stack Pointer (SP) when in secure state.
 421:Drivers/CMSIS/Include/cmsis_gcc.h ****   \return               SP Register value
 422:Drivers/CMSIS/Include/cmsis_gcc.h ****  */
 423:Drivers/CMSIS/Include/cmsis_gcc.h **** __STATIC_FORCEINLINE uint32_t __TZ_get_SP_NS(void)
 424:Drivers/CMSIS/Include/cmsis_gcc.h **** {
 425:Drivers/CMSIS/Include/cmsis_gcc.h ****   uint32_t result;
 426:Drivers/CMSIS/Include/cmsis_gcc.h **** 
 427:Drivers/CMSIS/Include/cmsis_gcc.h ****   __ASM volatile ("MRS %0, sp_ns" : "=r" (result) );
 428:Drivers/CMSIS/Include/cmsis_gcc.h ****   return(result);
 429:Drivers/CMSIS/Include/cmsis_gcc.h **** }
 430:Drivers/CMSIS/Include/cmsis_gcc.h **** 
ARM GAS  C:\Users\ep_ygh\AppData\Local\Temp\ccr8O3zb.s 			page 20


 431:Drivers/CMSIS/Include/cmsis_gcc.h **** 
 432:Drivers/CMSIS/Include/cmsis_gcc.h **** /**
 433:Drivers/CMSIS/Include/cmsis_gcc.h ****   \brief   Set Stack Pointer (non-secure)
 434:Drivers/CMSIS/Include/cmsis_gcc.h ****   \details Assigns the given value to the non-secure Stack Pointer (SP) when in secure state.
 435:Drivers/CMSIS/Include/cmsis_gcc.h ****   \param [in]    topOfStack  Stack Pointer value to set
 436:Drivers/CMSIS/Include/cmsis_gcc.h ****  */
 437:Drivers/CMSIS/Include/cmsis_gcc.h **** __STATIC_FORCEINLINE void __TZ_set_SP_NS(uint32_t topOfStack)
 438:Drivers/CMSIS/Include/cmsis_gcc.h **** {
 439:Drivers/CMSIS/Include/cmsis_gcc.h ****   __ASM volatile ("MSR sp_ns, %0" : : "r" (topOfStack) : );
 440:Drivers/CMSIS/Include/cmsis_gcc.h **** }
 441:Drivers/CMSIS/Include/cmsis_gcc.h **** #endif
 442:Drivers/CMSIS/Include/cmsis_gcc.h **** 
 443:Drivers/CMSIS/Include/cmsis_gcc.h **** 
 444:Drivers/CMSIS/Include/cmsis_gcc.h **** /**
 445:Drivers/CMSIS/Include/cmsis_gcc.h ****   \brief   Get Priority Mask
 446:Drivers/CMSIS/Include/cmsis_gcc.h ****   \details Returns the current state of the priority mask bit from the Priority Mask Register.
 447:Drivers/CMSIS/Include/cmsis_gcc.h ****   \return               Priority Mask value
 448:Drivers/CMSIS/Include/cmsis_gcc.h ****  */
 449:Drivers/CMSIS/Include/cmsis_gcc.h **** __STATIC_FORCEINLINE uint32_t __get_PRIMASK(void)
 450:Drivers/CMSIS/Include/cmsis_gcc.h **** {
 451:Drivers/CMSIS/Include/cmsis_gcc.h ****   uint32_t result;
 452:Drivers/CMSIS/Include/cmsis_gcc.h **** 
 453:Drivers/CMSIS/Include/cmsis_gcc.h ****   __ASM volatile ("MRS %0, primask" : "=r" (result) :: "memory");
 454:Drivers/CMSIS/Include/cmsis_gcc.h ****   return(result);
 455:Drivers/CMSIS/Include/cmsis_gcc.h **** }
 456:Drivers/CMSIS/Include/cmsis_gcc.h **** 
 457:Drivers/CMSIS/Include/cmsis_gcc.h **** 
 458:Drivers/CMSIS/Include/cmsis_gcc.h **** #if (defined (__ARM_FEATURE_CMSE ) && (__ARM_FEATURE_CMSE == 3))
 459:Drivers/CMSIS/Include/cmsis_gcc.h **** /**
 460:Drivers/CMSIS/Include/cmsis_gcc.h ****   \brief   Get Priority Mask (non-secure)
 461:Drivers/CMSIS/Include/cmsis_gcc.h ****   \details Returns the current state of the non-secure priority mask bit from the Priority Mask Reg
 462:Drivers/CMSIS/Include/cmsis_gcc.h ****   \return               Priority Mask value
 463:Drivers/CMSIS/Include/cmsis_gcc.h ****  */
 464:Drivers/CMSIS/Include/cmsis_gcc.h **** __STATIC_FORCEINLINE uint32_t __TZ_get_PRIMASK_NS(void)
 465:Drivers/CMSIS/Include/cmsis_gcc.h **** {
 466:Drivers/CMSIS/Include/cmsis_gcc.h ****   uint32_t result;
 467:Drivers/CMSIS/Include/cmsis_gcc.h **** 
 468:Drivers/CMSIS/Include/cmsis_gcc.h ****   __ASM volatile ("MRS %0, primask_ns" : "=r" (result) :: "memory");
 469:Drivers/CMSIS/Include/cmsis_gcc.h ****   return(result);
 470:Drivers/CMSIS/Include/cmsis_gcc.h **** }
 471:Drivers/CMSIS/Include/cmsis_gcc.h **** #endif
 472:Drivers/CMSIS/Include/cmsis_gcc.h **** 
 473:Drivers/CMSIS/Include/cmsis_gcc.h **** 
 474:Drivers/CMSIS/Include/cmsis_gcc.h **** /**
 475:Drivers/CMSIS/Include/cmsis_gcc.h ****   \brief   Set Priority Mask
 476:Drivers/CMSIS/Include/cmsis_gcc.h ****   \details Assigns the given value to the Priority Mask Register.
 477:Drivers/CMSIS/Include/cmsis_gcc.h ****   \param [in]    priMask  Priority Mask
 478:Drivers/CMSIS/Include/cmsis_gcc.h ****  */
 479:Drivers/CMSIS/Include/cmsis_gcc.h **** __STATIC_FORCEINLINE void __set_PRIMASK(uint32_t priMask)
 480:Drivers/CMSIS/Include/cmsis_gcc.h **** {
 481:Drivers/CMSIS/Include/cmsis_gcc.h ****   __ASM volatile ("MSR primask, %0" : : "r" (priMask) : "memory");
 482:Drivers/CMSIS/Include/cmsis_gcc.h **** }
 483:Drivers/CMSIS/Include/cmsis_gcc.h **** 
 484:Drivers/CMSIS/Include/cmsis_gcc.h **** 
 485:Drivers/CMSIS/Include/cmsis_gcc.h **** #if (defined (__ARM_FEATURE_CMSE ) && (__ARM_FEATURE_CMSE == 3))
 486:Drivers/CMSIS/Include/cmsis_gcc.h **** /**
 487:Drivers/CMSIS/Include/cmsis_gcc.h ****   \brief   Set Priority Mask (non-secure)
ARM GAS  C:\Users\ep_ygh\AppData\Local\Temp\ccr8O3zb.s 			page 21


 488:Drivers/CMSIS/Include/cmsis_gcc.h ****   \details Assigns the given value to the non-secure Priority Mask Register when in secure state.
 489:Drivers/CMSIS/Include/cmsis_gcc.h ****   \param [in]    priMask  Priority Mask
 490:Drivers/CMSIS/Include/cmsis_gcc.h ****  */
 491:Drivers/CMSIS/Include/cmsis_gcc.h **** __STATIC_FORCEINLINE void __TZ_set_PRIMASK_NS(uint32_t priMask)
 492:Drivers/CMSIS/Include/cmsis_gcc.h **** {
 493:Drivers/CMSIS/Include/cmsis_gcc.h ****   __ASM volatile ("MSR primask_ns, %0" : : "r" (priMask) : "memory");
 494:Drivers/CMSIS/Include/cmsis_gcc.h **** }
 495:Drivers/CMSIS/Include/cmsis_gcc.h **** #endif
 496:Drivers/CMSIS/Include/cmsis_gcc.h **** 
 497:Drivers/CMSIS/Include/cmsis_gcc.h **** 
 498:Drivers/CMSIS/Include/cmsis_gcc.h **** #if ((defined (__ARM_ARCH_7M__      ) && (__ARM_ARCH_7M__      == 1)) || \
 499:Drivers/CMSIS/Include/cmsis_gcc.h ****      (defined (__ARM_ARCH_7EM__     ) && (__ARM_ARCH_7EM__     == 1)) || \
 500:Drivers/CMSIS/Include/cmsis_gcc.h ****      (defined (__ARM_ARCH_8M_MAIN__ ) && (__ARM_ARCH_8M_MAIN__ == 1))    )
 501:Drivers/CMSIS/Include/cmsis_gcc.h **** /**
 502:Drivers/CMSIS/Include/cmsis_gcc.h ****   \brief   Enable FIQ
 503:Drivers/CMSIS/Include/cmsis_gcc.h ****   \details Enables FIQ interrupts by clearing the F-bit in the CPSR.
 504:Drivers/CMSIS/Include/cmsis_gcc.h ****            Can only be executed in Privileged modes.
 505:Drivers/CMSIS/Include/cmsis_gcc.h ****  */
 506:Drivers/CMSIS/Include/cmsis_gcc.h **** __STATIC_FORCEINLINE void __enable_fault_irq(void)
 507:Drivers/CMSIS/Include/cmsis_gcc.h **** {
 508:Drivers/CMSIS/Include/cmsis_gcc.h ****   __ASM volatile ("cpsie f" : : : "memory");
 509:Drivers/CMSIS/Include/cmsis_gcc.h **** }
 510:Drivers/CMSIS/Include/cmsis_gcc.h **** 
 511:Drivers/CMSIS/Include/cmsis_gcc.h **** 
 512:Drivers/CMSIS/Include/cmsis_gcc.h **** /**
 513:Drivers/CMSIS/Include/cmsis_gcc.h ****   \brief   Disable FIQ
 514:Drivers/CMSIS/Include/cmsis_gcc.h ****   \details Disables FIQ interrupts by setting the F-bit in the CPSR.
 515:Drivers/CMSIS/Include/cmsis_gcc.h ****            Can only be executed in Privileged modes.
 516:Drivers/CMSIS/Include/cmsis_gcc.h ****  */
 517:Drivers/CMSIS/Include/cmsis_gcc.h **** __STATIC_FORCEINLINE void __disable_fault_irq(void)
 518:Drivers/CMSIS/Include/cmsis_gcc.h **** {
 519:Drivers/CMSIS/Include/cmsis_gcc.h ****   __ASM volatile ("cpsid f" : : : "memory");
 520:Drivers/CMSIS/Include/cmsis_gcc.h **** }
 521:Drivers/CMSIS/Include/cmsis_gcc.h **** 
 522:Drivers/CMSIS/Include/cmsis_gcc.h **** 
 523:Drivers/CMSIS/Include/cmsis_gcc.h **** /**
 524:Drivers/CMSIS/Include/cmsis_gcc.h ****   \brief   Get Base Priority
 525:Drivers/CMSIS/Include/cmsis_gcc.h ****   \details Returns the current value of the Base Priority register.
 526:Drivers/CMSIS/Include/cmsis_gcc.h ****   \return               Base Priority register value
 527:Drivers/CMSIS/Include/cmsis_gcc.h ****  */
 528:Drivers/CMSIS/Include/cmsis_gcc.h **** __STATIC_FORCEINLINE uint32_t __get_BASEPRI(void)
 529:Drivers/CMSIS/Include/cmsis_gcc.h **** {
 530:Drivers/CMSIS/Include/cmsis_gcc.h ****   uint32_t result;
 531:Drivers/CMSIS/Include/cmsis_gcc.h **** 
 532:Drivers/CMSIS/Include/cmsis_gcc.h ****   __ASM volatile ("MRS %0, basepri" : "=r" (result) );
 533:Drivers/CMSIS/Include/cmsis_gcc.h ****   return(result);
 534:Drivers/CMSIS/Include/cmsis_gcc.h **** }
 535:Drivers/CMSIS/Include/cmsis_gcc.h **** 
 536:Drivers/CMSIS/Include/cmsis_gcc.h **** 
 537:Drivers/CMSIS/Include/cmsis_gcc.h **** #if (defined (__ARM_FEATURE_CMSE ) && (__ARM_FEATURE_CMSE == 3))
 538:Drivers/CMSIS/Include/cmsis_gcc.h **** /**
 539:Drivers/CMSIS/Include/cmsis_gcc.h ****   \brief   Get Base Priority (non-secure)
 540:Drivers/CMSIS/Include/cmsis_gcc.h ****   \details Returns the current value of the non-secure Base Priority register when in secure state.
 541:Drivers/CMSIS/Include/cmsis_gcc.h ****   \return               Base Priority register value
 542:Drivers/CMSIS/Include/cmsis_gcc.h ****  */
 543:Drivers/CMSIS/Include/cmsis_gcc.h **** __STATIC_FORCEINLINE uint32_t __TZ_get_BASEPRI_NS(void)
 544:Drivers/CMSIS/Include/cmsis_gcc.h **** {
ARM GAS  C:\Users\ep_ygh\AppData\Local\Temp\ccr8O3zb.s 			page 22


 545:Drivers/CMSIS/Include/cmsis_gcc.h ****   uint32_t result;
 546:Drivers/CMSIS/Include/cmsis_gcc.h **** 
 547:Drivers/CMSIS/Include/cmsis_gcc.h ****   __ASM volatile ("MRS %0, basepri_ns" : "=r" (result) );
 548:Drivers/CMSIS/Include/cmsis_gcc.h ****   return(result);
 549:Drivers/CMSIS/Include/cmsis_gcc.h **** }
 550:Drivers/CMSIS/Include/cmsis_gcc.h **** #endif
 551:Drivers/CMSIS/Include/cmsis_gcc.h **** 
 552:Drivers/CMSIS/Include/cmsis_gcc.h **** 
 553:Drivers/CMSIS/Include/cmsis_gcc.h **** /**
 554:Drivers/CMSIS/Include/cmsis_gcc.h ****   \brief   Set Base Priority
 555:Drivers/CMSIS/Include/cmsis_gcc.h ****   \details Assigns the given value to the Base Priority register.
 556:Drivers/CMSIS/Include/cmsis_gcc.h ****   \param [in]    basePri  Base Priority value to set
 557:Drivers/CMSIS/Include/cmsis_gcc.h ****  */
 558:Drivers/CMSIS/Include/cmsis_gcc.h **** __STATIC_FORCEINLINE void __set_BASEPRI(uint32_t basePri)
 559:Drivers/CMSIS/Include/cmsis_gcc.h **** {
 560:Drivers/CMSIS/Include/cmsis_gcc.h ****   __ASM volatile ("MSR basepri, %0" : : "r" (basePri) : "memory");
 561:Drivers/CMSIS/Include/cmsis_gcc.h **** }
 562:Drivers/CMSIS/Include/cmsis_gcc.h **** 
 563:Drivers/CMSIS/Include/cmsis_gcc.h **** 
 564:Drivers/CMSIS/Include/cmsis_gcc.h **** #if (defined (__ARM_FEATURE_CMSE ) && (__ARM_FEATURE_CMSE == 3))
 565:Drivers/CMSIS/Include/cmsis_gcc.h **** /**
 566:Drivers/CMSIS/Include/cmsis_gcc.h ****   \brief   Set Base Priority (non-secure)
 567:Drivers/CMSIS/Include/cmsis_gcc.h ****   \details Assigns the given value to the non-secure Base Priority register when in secure state.
 568:Drivers/CMSIS/Include/cmsis_gcc.h ****   \param [in]    basePri  Base Priority value to set
 569:Drivers/CMSIS/Include/cmsis_gcc.h ****  */
 570:Drivers/CMSIS/Include/cmsis_gcc.h **** __STATIC_FORCEINLINE void __TZ_set_BASEPRI_NS(uint32_t basePri)
 571:Drivers/CMSIS/Include/cmsis_gcc.h **** {
 572:Drivers/CMSIS/Include/cmsis_gcc.h ****   __ASM volatile ("MSR basepri_ns, %0" : : "r" (basePri) : "memory");
 573:Drivers/CMSIS/Include/cmsis_gcc.h **** }
 574:Drivers/CMSIS/Include/cmsis_gcc.h **** #endif
 575:Drivers/CMSIS/Include/cmsis_gcc.h **** 
 576:Drivers/CMSIS/Include/cmsis_gcc.h **** 
 577:Drivers/CMSIS/Include/cmsis_gcc.h **** /**
 578:Drivers/CMSIS/Include/cmsis_gcc.h ****   \brief   Set Base Priority with condition
 579:Drivers/CMSIS/Include/cmsis_gcc.h ****   \details Assigns the given value to the Base Priority register only if BASEPRI masking is disable
 580:Drivers/CMSIS/Include/cmsis_gcc.h ****            or the new value increases the BASEPRI priority level.
 581:Drivers/CMSIS/Include/cmsis_gcc.h ****   \param [in]    basePri  Base Priority value to set
 582:Drivers/CMSIS/Include/cmsis_gcc.h ****  */
 583:Drivers/CMSIS/Include/cmsis_gcc.h **** __STATIC_FORCEINLINE void __set_BASEPRI_MAX(uint32_t basePri)
 584:Drivers/CMSIS/Include/cmsis_gcc.h **** {
 585:Drivers/CMSIS/Include/cmsis_gcc.h ****   __ASM volatile ("MSR basepri_max, %0" : : "r" (basePri) : "memory");
 586:Drivers/CMSIS/Include/cmsis_gcc.h **** }
 587:Drivers/CMSIS/Include/cmsis_gcc.h **** 
 588:Drivers/CMSIS/Include/cmsis_gcc.h **** 
 589:Drivers/CMSIS/Include/cmsis_gcc.h **** /**
 590:Drivers/CMSIS/Include/cmsis_gcc.h ****   \brief   Get Fault Mask
 591:Drivers/CMSIS/Include/cmsis_gcc.h ****   \details Returns the current value of the Fault Mask register.
 592:Drivers/CMSIS/Include/cmsis_gcc.h ****   \return               Fault Mask register value
 593:Drivers/CMSIS/Include/cmsis_gcc.h ****  */
 594:Drivers/CMSIS/Include/cmsis_gcc.h **** __STATIC_FORCEINLINE uint32_t __get_FAULTMASK(void)
 595:Drivers/CMSIS/Include/cmsis_gcc.h **** {
 596:Drivers/CMSIS/Include/cmsis_gcc.h ****   uint32_t result;
 597:Drivers/CMSIS/Include/cmsis_gcc.h **** 
 598:Drivers/CMSIS/Include/cmsis_gcc.h ****   __ASM volatile ("MRS %0, faultmask" : "=r" (result) );
 599:Drivers/CMSIS/Include/cmsis_gcc.h ****   return(result);
 600:Drivers/CMSIS/Include/cmsis_gcc.h **** }
 601:Drivers/CMSIS/Include/cmsis_gcc.h **** 
ARM GAS  C:\Users\ep_ygh\AppData\Local\Temp\ccr8O3zb.s 			page 23


 602:Drivers/CMSIS/Include/cmsis_gcc.h **** 
 603:Drivers/CMSIS/Include/cmsis_gcc.h **** #if (defined (__ARM_FEATURE_CMSE ) && (__ARM_FEATURE_CMSE == 3))
 604:Drivers/CMSIS/Include/cmsis_gcc.h **** /**
 605:Drivers/CMSIS/Include/cmsis_gcc.h ****   \brief   Get Fault Mask (non-secure)
 606:Drivers/CMSIS/Include/cmsis_gcc.h ****   \details Returns the current value of the non-secure Fault Mask register when in secure state.
 607:Drivers/CMSIS/Include/cmsis_gcc.h ****   \return               Fault Mask register value
 608:Drivers/CMSIS/Include/cmsis_gcc.h ****  */
 609:Drivers/CMSIS/Include/cmsis_gcc.h **** __STATIC_FORCEINLINE uint32_t __TZ_get_FAULTMASK_NS(void)
 610:Drivers/CMSIS/Include/cmsis_gcc.h **** {
 611:Drivers/CMSIS/Include/cmsis_gcc.h ****   uint32_t result;
 612:Drivers/CMSIS/Include/cmsis_gcc.h **** 
 613:Drivers/CMSIS/Include/cmsis_gcc.h ****   __ASM volatile ("MRS %0, faultmask_ns" : "=r" (result) );
 614:Drivers/CMSIS/Include/cmsis_gcc.h ****   return(result);
 615:Drivers/CMSIS/Include/cmsis_gcc.h **** }
 616:Drivers/CMSIS/Include/cmsis_gcc.h **** #endif
 617:Drivers/CMSIS/Include/cmsis_gcc.h **** 
 618:Drivers/CMSIS/Include/cmsis_gcc.h **** 
 619:Drivers/CMSIS/Include/cmsis_gcc.h **** /**
 620:Drivers/CMSIS/Include/cmsis_gcc.h ****   \brief   Set Fault Mask
 621:Drivers/CMSIS/Include/cmsis_gcc.h ****   \details Assigns the given value to the Fault Mask register.
 622:Drivers/CMSIS/Include/cmsis_gcc.h ****   \param [in]    faultMask  Fault Mask value to set
 623:Drivers/CMSIS/Include/cmsis_gcc.h ****  */
 624:Drivers/CMSIS/Include/cmsis_gcc.h **** __STATIC_FORCEINLINE void __set_FAULTMASK(uint32_t faultMask)
 625:Drivers/CMSIS/Include/cmsis_gcc.h **** {
 626:Drivers/CMSIS/Include/cmsis_gcc.h ****   __ASM volatile ("MSR faultmask, %0" : : "r" (faultMask) : "memory");
 627:Drivers/CMSIS/Include/cmsis_gcc.h **** }
 628:Drivers/CMSIS/Include/cmsis_gcc.h **** 
 629:Drivers/CMSIS/Include/cmsis_gcc.h **** 
 630:Drivers/CMSIS/Include/cmsis_gcc.h **** #if (defined (__ARM_FEATURE_CMSE ) && (__ARM_FEATURE_CMSE == 3))
 631:Drivers/CMSIS/Include/cmsis_gcc.h **** /**
 632:Drivers/CMSIS/Include/cmsis_gcc.h ****   \brief   Set Fault Mask (non-secure)
 633:Drivers/CMSIS/Include/cmsis_gcc.h ****   \details Assigns the given value to the non-secure Fault Mask register when in secure state.
 634:Drivers/CMSIS/Include/cmsis_gcc.h ****   \param [in]    faultMask  Fault Mask value to set
 635:Drivers/CMSIS/Include/cmsis_gcc.h ****  */
 636:Drivers/CMSIS/Include/cmsis_gcc.h **** __STATIC_FORCEINLINE void __TZ_set_FAULTMASK_NS(uint32_t faultMask)
 637:Drivers/CMSIS/Include/cmsis_gcc.h **** {
 638:Drivers/CMSIS/Include/cmsis_gcc.h ****   __ASM volatile ("MSR faultmask_ns, %0" : : "r" (faultMask) : "memory");
 639:Drivers/CMSIS/Include/cmsis_gcc.h **** }
 640:Drivers/CMSIS/Include/cmsis_gcc.h **** #endif
 641:Drivers/CMSIS/Include/cmsis_gcc.h **** 
 642:Drivers/CMSIS/Include/cmsis_gcc.h **** #endif /* ((defined (__ARM_ARCH_7M__      ) && (__ARM_ARCH_7M__      == 1)) || \
 643:Drivers/CMSIS/Include/cmsis_gcc.h ****            (defined (__ARM_ARCH_7EM__     ) && (__ARM_ARCH_7EM__     == 1)) || \
 644:Drivers/CMSIS/Include/cmsis_gcc.h ****            (defined (__ARM_ARCH_8M_MAIN__ ) && (__ARM_ARCH_8M_MAIN__ == 1))    ) */
 645:Drivers/CMSIS/Include/cmsis_gcc.h **** 
 646:Drivers/CMSIS/Include/cmsis_gcc.h **** 
 647:Drivers/CMSIS/Include/cmsis_gcc.h **** #if ((defined (__ARM_ARCH_8M_MAIN__ ) && (__ARM_ARCH_8M_MAIN__ == 1)) || \
 648:Drivers/CMSIS/Include/cmsis_gcc.h ****      (defined (__ARM_ARCH_8M_BASE__ ) && (__ARM_ARCH_8M_BASE__ == 1))    )
 649:Drivers/CMSIS/Include/cmsis_gcc.h **** 
 650:Drivers/CMSIS/Include/cmsis_gcc.h **** /**
 651:Drivers/CMSIS/Include/cmsis_gcc.h ****   \brief   Get Process Stack Pointer Limit
 652:Drivers/CMSIS/Include/cmsis_gcc.h ****   Devices without ARMv8-M Main Extensions (i.e. Cortex-M23) lack the non-secure
 653:Drivers/CMSIS/Include/cmsis_gcc.h ****   Stack Pointer Limit register hence zero is returned always in non-secure
 654:Drivers/CMSIS/Include/cmsis_gcc.h ****   mode.
 655:Drivers/CMSIS/Include/cmsis_gcc.h ****   
 656:Drivers/CMSIS/Include/cmsis_gcc.h ****   \details Returns the current value of the Process Stack Pointer Limit (PSPLIM).
 657:Drivers/CMSIS/Include/cmsis_gcc.h ****   \return               PSPLIM Register value
 658:Drivers/CMSIS/Include/cmsis_gcc.h ****  */
ARM GAS  C:\Users\ep_ygh\AppData\Local\Temp\ccr8O3zb.s 			page 24


 659:Drivers/CMSIS/Include/cmsis_gcc.h **** __STATIC_FORCEINLINE uint32_t __get_PSPLIM(void)
 660:Drivers/CMSIS/Include/cmsis_gcc.h **** {
 661:Drivers/CMSIS/Include/cmsis_gcc.h **** #if (!(defined (__ARM_ARCH_8M_MAIN__ ) && (__ARM_ARCH_8M_MAIN__ == 1)) && \
 662:Drivers/CMSIS/Include/cmsis_gcc.h ****     (!defined (__ARM_FEATURE_CMSE) || (__ARM_FEATURE_CMSE < 3)))
 663:Drivers/CMSIS/Include/cmsis_gcc.h ****     // without main extensions, the non-secure PSPLIM is RAZ/WI
 664:Drivers/CMSIS/Include/cmsis_gcc.h ****   return 0U;
 665:Drivers/CMSIS/Include/cmsis_gcc.h **** #else
 666:Drivers/CMSIS/Include/cmsis_gcc.h ****   uint32_t result;
 667:Drivers/CMSIS/Include/cmsis_gcc.h ****   __ASM volatile ("MRS %0, psplim"  : "=r" (result) );
 668:Drivers/CMSIS/Include/cmsis_gcc.h ****   return result;
 669:Drivers/CMSIS/Include/cmsis_gcc.h **** #endif
 670:Drivers/CMSIS/Include/cmsis_gcc.h **** }
 671:Drivers/CMSIS/Include/cmsis_gcc.h **** 
 672:Drivers/CMSIS/Include/cmsis_gcc.h **** #if (defined (__ARM_FEATURE_CMSE) && (__ARM_FEATURE_CMSE == 3))
 673:Drivers/CMSIS/Include/cmsis_gcc.h **** /**
 674:Drivers/CMSIS/Include/cmsis_gcc.h ****   \brief   Get Process Stack Pointer Limit (non-secure)
 675:Drivers/CMSIS/Include/cmsis_gcc.h ****   Devices without ARMv8-M Main Extensions (i.e. Cortex-M23) lack the non-secure
 676:Drivers/CMSIS/Include/cmsis_gcc.h ****   Stack Pointer Limit register hence zero is returned always.
 677:Drivers/CMSIS/Include/cmsis_gcc.h **** 
 678:Drivers/CMSIS/Include/cmsis_gcc.h ****   \details Returns the current value of the non-secure Process Stack Pointer Limit (PSPLIM) when in
 679:Drivers/CMSIS/Include/cmsis_gcc.h ****   \return               PSPLIM Register value
 680:Drivers/CMSIS/Include/cmsis_gcc.h ****  */
 681:Drivers/CMSIS/Include/cmsis_gcc.h **** __STATIC_FORCEINLINE uint32_t __TZ_get_PSPLIM_NS(void)
 682:Drivers/CMSIS/Include/cmsis_gcc.h **** {
 683:Drivers/CMSIS/Include/cmsis_gcc.h **** #if (!(defined (__ARM_ARCH_8M_MAIN__ ) && (__ARM_ARCH_8M_MAIN__ == 1)))
 684:Drivers/CMSIS/Include/cmsis_gcc.h ****   // without main extensions, the non-secure PSPLIM is RAZ/WI
 685:Drivers/CMSIS/Include/cmsis_gcc.h ****   return 0U;
 686:Drivers/CMSIS/Include/cmsis_gcc.h **** #else
 687:Drivers/CMSIS/Include/cmsis_gcc.h ****   uint32_t result;
 688:Drivers/CMSIS/Include/cmsis_gcc.h ****   __ASM volatile ("MRS %0, psplim_ns"  : "=r" (result) );
 689:Drivers/CMSIS/Include/cmsis_gcc.h ****   return result;
 690:Drivers/CMSIS/Include/cmsis_gcc.h **** #endif
 691:Drivers/CMSIS/Include/cmsis_gcc.h **** }
 692:Drivers/CMSIS/Include/cmsis_gcc.h **** #endif
 693:Drivers/CMSIS/Include/cmsis_gcc.h **** 
 694:Drivers/CMSIS/Include/cmsis_gcc.h **** 
 695:Drivers/CMSIS/Include/cmsis_gcc.h **** /**
 696:Drivers/CMSIS/Include/cmsis_gcc.h ****   \brief   Set Process Stack Pointer Limit
 697:Drivers/CMSIS/Include/cmsis_gcc.h ****   Devices without ARMv8-M Main Extensions (i.e. Cortex-M23) lack the non-secure
 698:Drivers/CMSIS/Include/cmsis_gcc.h ****   Stack Pointer Limit register hence the write is silently ignored in non-secure
 699:Drivers/CMSIS/Include/cmsis_gcc.h ****   mode.
 700:Drivers/CMSIS/Include/cmsis_gcc.h ****   
 701:Drivers/CMSIS/Include/cmsis_gcc.h ****   \details Assigns the given value to the Process Stack Pointer Limit (PSPLIM).
 702:Drivers/CMSIS/Include/cmsis_gcc.h ****   \param [in]    ProcStackPtrLimit  Process Stack Pointer Limit value to set
 703:Drivers/CMSIS/Include/cmsis_gcc.h ****  */
 704:Drivers/CMSIS/Include/cmsis_gcc.h **** __STATIC_FORCEINLINE void __set_PSPLIM(uint32_t ProcStackPtrLimit)
 705:Drivers/CMSIS/Include/cmsis_gcc.h **** {
 706:Drivers/CMSIS/Include/cmsis_gcc.h **** #if (!(defined (__ARM_ARCH_8M_MAIN__ ) && (__ARM_ARCH_8M_MAIN__ == 1)) && \
 707:Drivers/CMSIS/Include/cmsis_gcc.h ****     (!defined (__ARM_FEATURE_CMSE) || (__ARM_FEATURE_CMSE < 3)))
 708:Drivers/CMSIS/Include/cmsis_gcc.h ****   // without main extensions, the non-secure PSPLIM is RAZ/WI
 709:Drivers/CMSIS/Include/cmsis_gcc.h ****   (void)ProcStackPtrLimit;
 710:Drivers/CMSIS/Include/cmsis_gcc.h **** #else
 711:Drivers/CMSIS/Include/cmsis_gcc.h ****   __ASM volatile ("MSR psplim, %0" : : "r" (ProcStackPtrLimit));
 712:Drivers/CMSIS/Include/cmsis_gcc.h **** #endif
 713:Drivers/CMSIS/Include/cmsis_gcc.h **** }
 714:Drivers/CMSIS/Include/cmsis_gcc.h **** 
 715:Drivers/CMSIS/Include/cmsis_gcc.h **** 
ARM GAS  C:\Users\ep_ygh\AppData\Local\Temp\ccr8O3zb.s 			page 25


 716:Drivers/CMSIS/Include/cmsis_gcc.h **** #if (defined (__ARM_FEATURE_CMSE  ) && (__ARM_FEATURE_CMSE   == 3))
 717:Drivers/CMSIS/Include/cmsis_gcc.h **** /**
 718:Drivers/CMSIS/Include/cmsis_gcc.h ****   \brief   Set Process Stack Pointer (non-secure)
 719:Drivers/CMSIS/Include/cmsis_gcc.h ****   Devices without ARMv8-M Main Extensions (i.e. Cortex-M23) lack the non-secure
 720:Drivers/CMSIS/Include/cmsis_gcc.h ****   Stack Pointer Limit register hence the write is silently ignored.
 721:Drivers/CMSIS/Include/cmsis_gcc.h **** 
 722:Drivers/CMSIS/Include/cmsis_gcc.h ****   \details Assigns the given value to the non-secure Process Stack Pointer Limit (PSPLIM) when in s
 723:Drivers/CMSIS/Include/cmsis_gcc.h ****   \param [in]    ProcStackPtrLimit  Process Stack Pointer Limit value to set
 724:Drivers/CMSIS/Include/cmsis_gcc.h ****  */
 725:Drivers/CMSIS/Include/cmsis_gcc.h **** __STATIC_FORCEINLINE void __TZ_set_PSPLIM_NS(uint32_t ProcStackPtrLimit)
 726:Drivers/CMSIS/Include/cmsis_gcc.h **** {
 727:Drivers/CMSIS/Include/cmsis_gcc.h **** #if (!(defined (__ARM_ARCH_8M_MAIN__ ) && (__ARM_ARCH_8M_MAIN__ == 1)))
 728:Drivers/CMSIS/Include/cmsis_gcc.h ****   // without main extensions, the non-secure PSPLIM is RAZ/WI
 729:Drivers/CMSIS/Include/cmsis_gcc.h ****   (void)ProcStackPtrLimit;
 730:Drivers/CMSIS/Include/cmsis_gcc.h **** #else
 731:Drivers/CMSIS/Include/cmsis_gcc.h ****   __ASM volatile ("MSR psplim_ns, %0\n" : : "r" (ProcStackPtrLimit));
 732:Drivers/CMSIS/Include/cmsis_gcc.h **** #endif
 733:Drivers/CMSIS/Include/cmsis_gcc.h **** }
 734:Drivers/CMSIS/Include/cmsis_gcc.h **** #endif
 735:Drivers/CMSIS/Include/cmsis_gcc.h **** 
 736:Drivers/CMSIS/Include/cmsis_gcc.h **** 
 737:Drivers/CMSIS/Include/cmsis_gcc.h **** /**
 738:Drivers/CMSIS/Include/cmsis_gcc.h ****   \brief   Get Main Stack Pointer Limit
 739:Drivers/CMSIS/Include/cmsis_gcc.h ****   Devices without ARMv8-M Main Extensions (i.e. Cortex-M23) lack the non-secure
 740:Drivers/CMSIS/Include/cmsis_gcc.h ****   Stack Pointer Limit register hence zero is returned always in non-secure
 741:Drivers/CMSIS/Include/cmsis_gcc.h ****   mode.
 742:Drivers/CMSIS/Include/cmsis_gcc.h **** 
 743:Drivers/CMSIS/Include/cmsis_gcc.h ****   \details Returns the current value of the Main Stack Pointer Limit (MSPLIM).
 744:Drivers/CMSIS/Include/cmsis_gcc.h ****   \return               MSPLIM Register value
 745:Drivers/CMSIS/Include/cmsis_gcc.h ****  */
 746:Drivers/CMSIS/Include/cmsis_gcc.h **** __STATIC_FORCEINLINE uint32_t __get_MSPLIM(void)
 747:Drivers/CMSIS/Include/cmsis_gcc.h **** {
 748:Drivers/CMSIS/Include/cmsis_gcc.h **** #if (!(defined (__ARM_ARCH_8M_MAIN__ ) && (__ARM_ARCH_8M_MAIN__ == 1)) && \
 749:Drivers/CMSIS/Include/cmsis_gcc.h ****     (!defined (__ARM_FEATURE_CMSE) || (__ARM_FEATURE_CMSE < 3)))
 750:Drivers/CMSIS/Include/cmsis_gcc.h ****   // without main extensions, the non-secure MSPLIM is RAZ/WI
 751:Drivers/CMSIS/Include/cmsis_gcc.h ****   return 0U;
 752:Drivers/CMSIS/Include/cmsis_gcc.h **** #else
 753:Drivers/CMSIS/Include/cmsis_gcc.h ****   uint32_t result;
 754:Drivers/CMSIS/Include/cmsis_gcc.h ****   __ASM volatile ("MRS %0, msplim" : "=r" (result) );
 755:Drivers/CMSIS/Include/cmsis_gcc.h ****   return result;
 756:Drivers/CMSIS/Include/cmsis_gcc.h **** #endif
 757:Drivers/CMSIS/Include/cmsis_gcc.h **** }
 758:Drivers/CMSIS/Include/cmsis_gcc.h **** 
 759:Drivers/CMSIS/Include/cmsis_gcc.h **** 
 760:Drivers/CMSIS/Include/cmsis_gcc.h **** #if (defined (__ARM_FEATURE_CMSE  ) && (__ARM_FEATURE_CMSE   == 3))
 761:Drivers/CMSIS/Include/cmsis_gcc.h **** /**
 762:Drivers/CMSIS/Include/cmsis_gcc.h ****   \brief   Get Main Stack Pointer Limit (non-secure)
 763:Drivers/CMSIS/Include/cmsis_gcc.h ****   Devices without ARMv8-M Main Extensions (i.e. Cortex-M23) lack the non-secure
 764:Drivers/CMSIS/Include/cmsis_gcc.h ****   Stack Pointer Limit register hence zero is returned always.
 765:Drivers/CMSIS/Include/cmsis_gcc.h **** 
 766:Drivers/CMSIS/Include/cmsis_gcc.h ****   \details Returns the current value of the non-secure Main Stack Pointer Limit(MSPLIM) when in sec
 767:Drivers/CMSIS/Include/cmsis_gcc.h ****   \return               MSPLIM Register value
 768:Drivers/CMSIS/Include/cmsis_gcc.h ****  */
 769:Drivers/CMSIS/Include/cmsis_gcc.h **** __STATIC_FORCEINLINE uint32_t __TZ_get_MSPLIM_NS(void)
 770:Drivers/CMSIS/Include/cmsis_gcc.h **** {
 771:Drivers/CMSIS/Include/cmsis_gcc.h **** #if (!(defined (__ARM_ARCH_8M_MAIN__ ) && (__ARM_ARCH_8M_MAIN__ == 1)))
 772:Drivers/CMSIS/Include/cmsis_gcc.h ****   // without main extensions, the non-secure MSPLIM is RAZ/WI
ARM GAS  C:\Users\ep_ygh\AppData\Local\Temp\ccr8O3zb.s 			page 26


 773:Drivers/CMSIS/Include/cmsis_gcc.h ****   return 0U;
 774:Drivers/CMSIS/Include/cmsis_gcc.h **** #else
 775:Drivers/CMSIS/Include/cmsis_gcc.h ****   uint32_t result;
 776:Drivers/CMSIS/Include/cmsis_gcc.h ****   __ASM volatile ("MRS %0, msplim_ns" : "=r" (result) );
 777:Drivers/CMSIS/Include/cmsis_gcc.h ****   return result;
 778:Drivers/CMSIS/Include/cmsis_gcc.h **** #endif
 779:Drivers/CMSIS/Include/cmsis_gcc.h **** }
 780:Drivers/CMSIS/Include/cmsis_gcc.h **** #endif
 781:Drivers/CMSIS/Include/cmsis_gcc.h **** 
 782:Drivers/CMSIS/Include/cmsis_gcc.h **** 
 783:Drivers/CMSIS/Include/cmsis_gcc.h **** /**
 784:Drivers/CMSIS/Include/cmsis_gcc.h ****   \brief   Set Main Stack Pointer Limit
 785:Drivers/CMSIS/Include/cmsis_gcc.h ****   Devices without ARMv8-M Main Extensions (i.e. Cortex-M23) lack the non-secure
 786:Drivers/CMSIS/Include/cmsis_gcc.h ****   Stack Pointer Limit register hence the write is silently ignored in non-secure
 787:Drivers/CMSIS/Include/cmsis_gcc.h ****   mode.
 788:Drivers/CMSIS/Include/cmsis_gcc.h **** 
 789:Drivers/CMSIS/Include/cmsis_gcc.h ****   \details Assigns the given value to the Main Stack Pointer Limit (MSPLIM).
 790:Drivers/CMSIS/Include/cmsis_gcc.h ****   \param [in]    MainStackPtrLimit  Main Stack Pointer Limit value to set
 791:Drivers/CMSIS/Include/cmsis_gcc.h ****  */
 792:Drivers/CMSIS/Include/cmsis_gcc.h **** __STATIC_FORCEINLINE void __set_MSPLIM(uint32_t MainStackPtrLimit)
 793:Drivers/CMSIS/Include/cmsis_gcc.h **** {
 794:Drivers/CMSIS/Include/cmsis_gcc.h **** #if (!(defined (__ARM_ARCH_8M_MAIN__ ) && (__ARM_ARCH_8M_MAIN__ == 1)) && \
 795:Drivers/CMSIS/Include/cmsis_gcc.h ****     (!defined (__ARM_FEATURE_CMSE) || (__ARM_FEATURE_CMSE < 3)))
 796:Drivers/CMSIS/Include/cmsis_gcc.h ****   // without main extensions, the non-secure MSPLIM is RAZ/WI
 797:Drivers/CMSIS/Include/cmsis_gcc.h ****   (void)MainStackPtrLimit;
 798:Drivers/CMSIS/Include/cmsis_gcc.h **** #else
 799:Drivers/CMSIS/Include/cmsis_gcc.h ****   __ASM volatile ("MSR msplim, %0" : : "r" (MainStackPtrLimit));
 800:Drivers/CMSIS/Include/cmsis_gcc.h **** #endif
 801:Drivers/CMSIS/Include/cmsis_gcc.h **** }
 802:Drivers/CMSIS/Include/cmsis_gcc.h **** 
 803:Drivers/CMSIS/Include/cmsis_gcc.h **** 
 804:Drivers/CMSIS/Include/cmsis_gcc.h **** #if (defined (__ARM_FEATURE_CMSE  ) && (__ARM_FEATURE_CMSE   == 3))
 805:Drivers/CMSIS/Include/cmsis_gcc.h **** /**
 806:Drivers/CMSIS/Include/cmsis_gcc.h ****   \brief   Set Main Stack Pointer Limit (non-secure)
 807:Drivers/CMSIS/Include/cmsis_gcc.h ****   Devices without ARMv8-M Main Extensions (i.e. Cortex-M23) lack the non-secure
 808:Drivers/CMSIS/Include/cmsis_gcc.h ****   Stack Pointer Limit register hence the write is silently ignored.
 809:Drivers/CMSIS/Include/cmsis_gcc.h **** 
 810:Drivers/CMSIS/Include/cmsis_gcc.h ****   \details Assigns the given value to the non-secure Main Stack Pointer Limit (MSPLIM) when in secu
 811:Drivers/CMSIS/Include/cmsis_gcc.h ****   \param [in]    MainStackPtrLimit  Main Stack Pointer value to set
 812:Drivers/CMSIS/Include/cmsis_gcc.h ****  */
 813:Drivers/CMSIS/Include/cmsis_gcc.h **** __STATIC_FORCEINLINE void __TZ_set_MSPLIM_NS(uint32_t MainStackPtrLimit)
 814:Drivers/CMSIS/Include/cmsis_gcc.h **** {
 815:Drivers/CMSIS/Include/cmsis_gcc.h **** #if (!(defined (__ARM_ARCH_8M_MAIN__ ) && (__ARM_ARCH_8M_MAIN__ == 1)))
 816:Drivers/CMSIS/Include/cmsis_gcc.h ****   // without main extensions, the non-secure MSPLIM is RAZ/WI
 817:Drivers/CMSIS/Include/cmsis_gcc.h ****   (void)MainStackPtrLimit;
 818:Drivers/CMSIS/Include/cmsis_gcc.h **** #else
 819:Drivers/CMSIS/Include/cmsis_gcc.h ****   __ASM volatile ("MSR msplim_ns, %0" : : "r" (MainStackPtrLimit));
 820:Drivers/CMSIS/Include/cmsis_gcc.h **** #endif
 821:Drivers/CMSIS/Include/cmsis_gcc.h **** }
 822:Drivers/CMSIS/Include/cmsis_gcc.h **** #endif
 823:Drivers/CMSIS/Include/cmsis_gcc.h **** 
 824:Drivers/CMSIS/Include/cmsis_gcc.h **** #endif /* ((defined (__ARM_ARCH_8M_MAIN__ ) && (__ARM_ARCH_8M_MAIN__ == 1)) || \
 825:Drivers/CMSIS/Include/cmsis_gcc.h ****            (defined (__ARM_ARCH_8M_BASE__ ) && (__ARM_ARCH_8M_BASE__ == 1))    ) */
 826:Drivers/CMSIS/Include/cmsis_gcc.h **** 
 827:Drivers/CMSIS/Include/cmsis_gcc.h **** 
 828:Drivers/CMSIS/Include/cmsis_gcc.h **** /**
 829:Drivers/CMSIS/Include/cmsis_gcc.h ****   \brief   Get FPSCR
ARM GAS  C:\Users\ep_ygh\AppData\Local\Temp\ccr8O3zb.s 			page 27


 830:Drivers/CMSIS/Include/cmsis_gcc.h ****   \details Returns the current value of the Floating Point Status/Control register.
 831:Drivers/CMSIS/Include/cmsis_gcc.h ****   \return               Floating Point Status/Control register value
 832:Drivers/CMSIS/Include/cmsis_gcc.h ****  */
 833:Drivers/CMSIS/Include/cmsis_gcc.h **** __STATIC_FORCEINLINE uint32_t __get_FPSCR(void)
 834:Drivers/CMSIS/Include/cmsis_gcc.h **** {
 835:Drivers/CMSIS/Include/cmsis_gcc.h **** #if ((defined (__FPU_PRESENT) && (__FPU_PRESENT == 1U)) && \
 836:Drivers/CMSIS/Include/cmsis_gcc.h ****      (defined (__FPU_USED   ) && (__FPU_USED    == 1U))     )
 837:Drivers/CMSIS/Include/cmsis_gcc.h **** #if __has_builtin(__builtin_arm_get_fpscr) 
 838:Drivers/CMSIS/Include/cmsis_gcc.h **** // Re-enable using built-in when GCC has been fixed
 839:Drivers/CMSIS/Include/cmsis_gcc.h **** // || (__GNUC__ > 7) || (__GNUC__ == 7 && __GNUC_MINOR__ >= 2)
 840:Drivers/CMSIS/Include/cmsis_gcc.h ****   /* see https://gcc.gnu.org/ml/gcc-patches/2017-04/msg00443.html */
 841:Drivers/CMSIS/Include/cmsis_gcc.h ****   return __builtin_arm_get_fpscr();
 842:Drivers/CMSIS/Include/cmsis_gcc.h **** #else
 843:Drivers/CMSIS/Include/cmsis_gcc.h ****   uint32_t result;
 844:Drivers/CMSIS/Include/cmsis_gcc.h **** 
 845:Drivers/CMSIS/Include/cmsis_gcc.h ****   __ASM volatile ("VMRS %0, fpscr" : "=r" (result) );
 846:Drivers/CMSIS/Include/cmsis_gcc.h ****   return(result);
 847:Drivers/CMSIS/Include/cmsis_gcc.h **** #endif
 848:Drivers/CMSIS/Include/cmsis_gcc.h **** #else
 849:Drivers/CMSIS/Include/cmsis_gcc.h ****   return(0U);
 850:Drivers/CMSIS/Include/cmsis_gcc.h **** #endif
 851:Drivers/CMSIS/Include/cmsis_gcc.h **** }
 852:Drivers/CMSIS/Include/cmsis_gcc.h **** 
 853:Drivers/CMSIS/Include/cmsis_gcc.h **** 
 854:Drivers/CMSIS/Include/cmsis_gcc.h **** /**
 855:Drivers/CMSIS/Include/cmsis_gcc.h ****   \brief   Set FPSCR
 856:Drivers/CMSIS/Include/cmsis_gcc.h ****   \details Assigns the given value to the Floating Point Status/Control register.
 857:Drivers/CMSIS/Include/cmsis_gcc.h ****   \param [in]    fpscr  Floating Point Status/Control value to set
 858:Drivers/CMSIS/Include/cmsis_gcc.h ****  */
 859:Drivers/CMSIS/Include/cmsis_gcc.h **** __STATIC_FORCEINLINE void __set_FPSCR(uint32_t fpscr)
 860:Drivers/CMSIS/Include/cmsis_gcc.h **** {
 861:Drivers/CMSIS/Include/cmsis_gcc.h **** #if ((defined (__FPU_PRESENT) && (__FPU_PRESENT == 1U)) && \
 862:Drivers/CMSIS/Include/cmsis_gcc.h ****      (defined (__FPU_USED   ) && (__FPU_USED    == 1U))     )
 863:Drivers/CMSIS/Include/cmsis_gcc.h **** #if __has_builtin(__builtin_arm_set_fpscr)
 864:Drivers/CMSIS/Include/cmsis_gcc.h **** // Re-enable using built-in when GCC has been fixed
 865:Drivers/CMSIS/Include/cmsis_gcc.h **** // || (__GNUC__ > 7) || (__GNUC__ == 7 && __GNUC_MINOR__ >= 2)
 866:Drivers/CMSIS/Include/cmsis_gcc.h ****   /* see https://gcc.gnu.org/ml/gcc-patches/2017-04/msg00443.html */
 867:Drivers/CMSIS/Include/cmsis_gcc.h ****   __builtin_arm_set_fpscr(fpscr);
 868:Drivers/CMSIS/Include/cmsis_gcc.h **** #else
 869:Drivers/CMSIS/Include/cmsis_gcc.h ****   __ASM volatile ("VMSR fpscr, %0" : : "r" (fpscr) : "vfpcc", "memory");
 870:Drivers/CMSIS/Include/cmsis_gcc.h **** #endif
 871:Drivers/CMSIS/Include/cmsis_gcc.h **** #else
 872:Drivers/CMSIS/Include/cmsis_gcc.h ****   (void)fpscr;
 873:Drivers/CMSIS/Include/cmsis_gcc.h **** #endif
 874:Drivers/CMSIS/Include/cmsis_gcc.h **** }
 875:Drivers/CMSIS/Include/cmsis_gcc.h **** 
 876:Drivers/CMSIS/Include/cmsis_gcc.h **** 
 877:Drivers/CMSIS/Include/cmsis_gcc.h **** /*@} end of CMSIS_Core_RegAccFunctions */
 878:Drivers/CMSIS/Include/cmsis_gcc.h **** 
 879:Drivers/CMSIS/Include/cmsis_gcc.h **** 
 880:Drivers/CMSIS/Include/cmsis_gcc.h **** /* ##########################  Core Instruction Access  ######################### */
 881:Drivers/CMSIS/Include/cmsis_gcc.h **** /** \defgroup CMSIS_Core_InstructionInterface CMSIS Core Instruction Interface
 882:Drivers/CMSIS/Include/cmsis_gcc.h ****   Access to dedicated instructions
 883:Drivers/CMSIS/Include/cmsis_gcc.h ****   @{
 884:Drivers/CMSIS/Include/cmsis_gcc.h **** */
 885:Drivers/CMSIS/Include/cmsis_gcc.h **** 
 886:Drivers/CMSIS/Include/cmsis_gcc.h **** /* Define macros for porting to both thumb1 and thumb2.
ARM GAS  C:\Users\ep_ygh\AppData\Local\Temp\ccr8O3zb.s 			page 28


 887:Drivers/CMSIS/Include/cmsis_gcc.h ****  * For thumb1, use low register (r0-r7), specified by constraint "l"
 888:Drivers/CMSIS/Include/cmsis_gcc.h ****  * Otherwise, use general registers, specified by constraint "r" */
 889:Drivers/CMSIS/Include/cmsis_gcc.h **** #if defined (__thumb__) && !defined (__thumb2__)
 890:Drivers/CMSIS/Include/cmsis_gcc.h **** #define __CMSIS_GCC_OUT_REG(r) "=l" (r)
 891:Drivers/CMSIS/Include/cmsis_gcc.h **** #define __CMSIS_GCC_RW_REG(r) "+l" (r)
 892:Drivers/CMSIS/Include/cmsis_gcc.h **** #define __CMSIS_GCC_USE_REG(r) "l" (r)
 893:Drivers/CMSIS/Include/cmsis_gcc.h **** #else
 894:Drivers/CMSIS/Include/cmsis_gcc.h **** #define __CMSIS_GCC_OUT_REG(r) "=r" (r)
 895:Drivers/CMSIS/Include/cmsis_gcc.h **** #define __CMSIS_GCC_RW_REG(r) "+r" (r)
 896:Drivers/CMSIS/Include/cmsis_gcc.h **** #define __CMSIS_GCC_USE_REG(r) "r" (r)
 897:Drivers/CMSIS/Include/cmsis_gcc.h **** #endif
 898:Drivers/CMSIS/Include/cmsis_gcc.h **** 
 899:Drivers/CMSIS/Include/cmsis_gcc.h **** /**
 900:Drivers/CMSIS/Include/cmsis_gcc.h ****   \brief   No Operation
 901:Drivers/CMSIS/Include/cmsis_gcc.h ****   \details No Operation does nothing. This instruction can be used for code alignment purposes.
 902:Drivers/CMSIS/Include/cmsis_gcc.h ****  */
 903:Drivers/CMSIS/Include/cmsis_gcc.h **** #define __NOP()                             __ASM volatile ("nop")
 904:Drivers/CMSIS/Include/cmsis_gcc.h **** 
 905:Drivers/CMSIS/Include/cmsis_gcc.h **** /**
 906:Drivers/CMSIS/Include/cmsis_gcc.h ****   \brief   Wait For Interrupt
 907:Drivers/CMSIS/Include/cmsis_gcc.h ****   \details Wait For Interrupt is a hint instruction that suspends execution until one of a number o
 908:Drivers/CMSIS/Include/cmsis_gcc.h ****  */
 909:Drivers/CMSIS/Include/cmsis_gcc.h **** #define __WFI()                             __ASM volatile ("wfi")
 910:Drivers/CMSIS/Include/cmsis_gcc.h **** 
 911:Drivers/CMSIS/Include/cmsis_gcc.h **** 
 912:Drivers/CMSIS/Include/cmsis_gcc.h **** /**
 913:Drivers/CMSIS/Include/cmsis_gcc.h ****   \brief   Wait For Event
 914:Drivers/CMSIS/Include/cmsis_gcc.h ****   \details Wait For Event is a hint instruction that permits the processor to enter
 915:Drivers/CMSIS/Include/cmsis_gcc.h ****            a low-power state until one of a number of events occurs.
 916:Drivers/CMSIS/Include/cmsis_gcc.h ****  */
 917:Drivers/CMSIS/Include/cmsis_gcc.h **** #define __WFE()                             __ASM volatile ("wfe")
 918:Drivers/CMSIS/Include/cmsis_gcc.h **** 
 919:Drivers/CMSIS/Include/cmsis_gcc.h **** 
 920:Drivers/CMSIS/Include/cmsis_gcc.h **** /**
 921:Drivers/CMSIS/Include/cmsis_gcc.h ****   \brief   Send Event
 922:Drivers/CMSIS/Include/cmsis_gcc.h ****   \details Send Event is a hint instruction. It causes an event to be signaled to the CPU.
 923:Drivers/CMSIS/Include/cmsis_gcc.h ****  */
 924:Drivers/CMSIS/Include/cmsis_gcc.h **** #define __SEV()                             __ASM volatile ("sev")
 925:Drivers/CMSIS/Include/cmsis_gcc.h **** 
 926:Drivers/CMSIS/Include/cmsis_gcc.h **** 
 927:Drivers/CMSIS/Include/cmsis_gcc.h **** /**
 928:Drivers/CMSIS/Include/cmsis_gcc.h ****   \brief   Instruction Synchronization Barrier
 929:Drivers/CMSIS/Include/cmsis_gcc.h ****   \details Instruction Synchronization Barrier flushes the pipeline in the processor,
 930:Drivers/CMSIS/Include/cmsis_gcc.h ****            so that all instructions following the ISB are fetched from cache or memory,
 931:Drivers/CMSIS/Include/cmsis_gcc.h ****            after the instruction has been completed.
 932:Drivers/CMSIS/Include/cmsis_gcc.h ****  */
 933:Drivers/CMSIS/Include/cmsis_gcc.h **** __STATIC_FORCEINLINE void __ISB(void)
 934:Drivers/CMSIS/Include/cmsis_gcc.h **** {
 935:Drivers/CMSIS/Include/cmsis_gcc.h ****   __ASM volatile ("isb 0xF":::"memory");
 936:Drivers/CMSIS/Include/cmsis_gcc.h **** }
 937:Drivers/CMSIS/Include/cmsis_gcc.h **** 
 938:Drivers/CMSIS/Include/cmsis_gcc.h **** 
 939:Drivers/CMSIS/Include/cmsis_gcc.h **** /**
 940:Drivers/CMSIS/Include/cmsis_gcc.h ****   \brief   Data Synchronization Barrier
 941:Drivers/CMSIS/Include/cmsis_gcc.h ****   \details Acts as a special kind of Data Memory Barrier.
 942:Drivers/CMSIS/Include/cmsis_gcc.h ****            It completes when all explicit memory accesses before this instruction complete.
 943:Drivers/CMSIS/Include/cmsis_gcc.h ****  */
ARM GAS  C:\Users\ep_ygh\AppData\Local\Temp\ccr8O3zb.s 			page 29


 944:Drivers/CMSIS/Include/cmsis_gcc.h **** __STATIC_FORCEINLINE void __DSB(void)
 945:Drivers/CMSIS/Include/cmsis_gcc.h **** {
 946:Drivers/CMSIS/Include/cmsis_gcc.h ****   __ASM volatile ("dsb 0xF":::"memory");
 947:Drivers/CMSIS/Include/cmsis_gcc.h **** }
 948:Drivers/CMSIS/Include/cmsis_gcc.h **** 
 949:Drivers/CMSIS/Include/cmsis_gcc.h **** 
 950:Drivers/CMSIS/Include/cmsis_gcc.h **** /**
 951:Drivers/CMSIS/Include/cmsis_gcc.h ****   \brief   Data Memory Barrier
 952:Drivers/CMSIS/Include/cmsis_gcc.h ****   \details Ensures the apparent order of the explicit memory operations before
 953:Drivers/CMSIS/Include/cmsis_gcc.h ****            and after the instruction, without ensuring their completion.
 954:Drivers/CMSIS/Include/cmsis_gcc.h ****  */
 955:Drivers/CMSIS/Include/cmsis_gcc.h **** __STATIC_FORCEINLINE void __DMB(void)
 956:Drivers/CMSIS/Include/cmsis_gcc.h **** {
 957:Drivers/CMSIS/Include/cmsis_gcc.h ****   __ASM volatile ("dmb 0xF":::"memory");
 958:Drivers/CMSIS/Include/cmsis_gcc.h **** }
 959:Drivers/CMSIS/Include/cmsis_gcc.h **** 
 960:Drivers/CMSIS/Include/cmsis_gcc.h **** 
 961:Drivers/CMSIS/Include/cmsis_gcc.h **** /**
 962:Drivers/CMSIS/Include/cmsis_gcc.h ****   \brief   Reverse byte order (32 bit)
 963:Drivers/CMSIS/Include/cmsis_gcc.h ****   \details Reverses the byte order in unsigned integer value. For example, 0x12345678 becomes 0x785
 964:Drivers/CMSIS/Include/cmsis_gcc.h ****   \param [in]    value  Value to reverse
 965:Drivers/CMSIS/Include/cmsis_gcc.h ****   \return               Reversed value
 966:Drivers/CMSIS/Include/cmsis_gcc.h ****  */
 967:Drivers/CMSIS/Include/cmsis_gcc.h **** __STATIC_FORCEINLINE uint32_t __REV(uint32_t value)
 968:Drivers/CMSIS/Include/cmsis_gcc.h **** {
 969:Drivers/CMSIS/Include/cmsis_gcc.h **** #if (__GNUC__ > 4) || (__GNUC__ == 4 && __GNUC_MINOR__ >= 5)
 970:Drivers/CMSIS/Include/cmsis_gcc.h ****   return __builtin_bswap32(value);
 971:Drivers/CMSIS/Include/cmsis_gcc.h **** #else
 972:Drivers/CMSIS/Include/cmsis_gcc.h ****   uint32_t result;
 973:Drivers/CMSIS/Include/cmsis_gcc.h **** 
 974:Drivers/CMSIS/Include/cmsis_gcc.h ****   __ASM volatile ("rev %0, %1" : __CMSIS_GCC_OUT_REG (result) : __CMSIS_GCC_USE_REG (value) );
 975:Drivers/CMSIS/Include/cmsis_gcc.h ****   return result;
 976:Drivers/CMSIS/Include/cmsis_gcc.h **** #endif
 977:Drivers/CMSIS/Include/cmsis_gcc.h **** }
 978:Drivers/CMSIS/Include/cmsis_gcc.h **** 
 979:Drivers/CMSIS/Include/cmsis_gcc.h **** 
 980:Drivers/CMSIS/Include/cmsis_gcc.h **** /**
 981:Drivers/CMSIS/Include/cmsis_gcc.h ****   \brief   Reverse byte order (16 bit)
 982:Drivers/CMSIS/Include/cmsis_gcc.h ****   \details Reverses the byte order within each halfword of a word. For example, 0x12345678 becomes 
 983:Drivers/CMSIS/Include/cmsis_gcc.h ****   \param [in]    value  Value to reverse
 984:Drivers/CMSIS/Include/cmsis_gcc.h ****   \return               Reversed value
 985:Drivers/CMSIS/Include/cmsis_gcc.h ****  */
 986:Drivers/CMSIS/Include/cmsis_gcc.h **** __STATIC_FORCEINLINE uint32_t __REV16(uint32_t value)
 987:Drivers/CMSIS/Include/cmsis_gcc.h **** {
 988:Drivers/CMSIS/Include/cmsis_gcc.h ****   uint32_t result;
 989:Drivers/CMSIS/Include/cmsis_gcc.h **** 
 990:Drivers/CMSIS/Include/cmsis_gcc.h ****   __ASM volatile ("rev16 %0, %1" : __CMSIS_GCC_OUT_REG (result) : __CMSIS_GCC_USE_REG (value) );
 991:Drivers/CMSIS/Include/cmsis_gcc.h ****   return result;
 992:Drivers/CMSIS/Include/cmsis_gcc.h **** }
 993:Drivers/CMSIS/Include/cmsis_gcc.h **** 
 994:Drivers/CMSIS/Include/cmsis_gcc.h **** 
 995:Drivers/CMSIS/Include/cmsis_gcc.h **** /**
 996:Drivers/CMSIS/Include/cmsis_gcc.h ****   \brief   Reverse byte order (16 bit)
 997:Drivers/CMSIS/Include/cmsis_gcc.h ****   \details Reverses the byte order in a 16-bit value and returns the signed 16-bit result. For exam
 998:Drivers/CMSIS/Include/cmsis_gcc.h ****   \param [in]    value  Value to reverse
 999:Drivers/CMSIS/Include/cmsis_gcc.h ****   \return               Reversed value
1000:Drivers/CMSIS/Include/cmsis_gcc.h ****  */
ARM GAS  C:\Users\ep_ygh\AppData\Local\Temp\ccr8O3zb.s 			page 30


1001:Drivers/CMSIS/Include/cmsis_gcc.h **** __STATIC_FORCEINLINE int16_t __REVSH(int16_t value)
1002:Drivers/CMSIS/Include/cmsis_gcc.h **** {
1003:Drivers/CMSIS/Include/cmsis_gcc.h **** #if (__GNUC__ > 4) || (__GNUC__ == 4 && __GNUC_MINOR__ >= 8)
1004:Drivers/CMSIS/Include/cmsis_gcc.h ****   return (int16_t)__builtin_bswap16(value);
1005:Drivers/CMSIS/Include/cmsis_gcc.h **** #else
1006:Drivers/CMSIS/Include/cmsis_gcc.h ****   int16_t result;
1007:Drivers/CMSIS/Include/cmsis_gcc.h **** 
1008:Drivers/CMSIS/Include/cmsis_gcc.h ****   __ASM volatile ("revsh %0, %1" : __CMSIS_GCC_OUT_REG (result) : __CMSIS_GCC_USE_REG (value) );
1009:Drivers/CMSIS/Include/cmsis_gcc.h ****   return result;
1010:Drivers/CMSIS/Include/cmsis_gcc.h **** #endif
1011:Drivers/CMSIS/Include/cmsis_gcc.h **** }
1012:Drivers/CMSIS/Include/cmsis_gcc.h **** 
1013:Drivers/CMSIS/Include/cmsis_gcc.h **** 
1014:Drivers/CMSIS/Include/cmsis_gcc.h **** /**
1015:Drivers/CMSIS/Include/cmsis_gcc.h ****   \brief   Rotate Right in unsigned value (32 bit)
1016:Drivers/CMSIS/Include/cmsis_gcc.h ****   \details Rotate Right (immediate) provides the value of the contents of a register rotated by a v
1017:Drivers/CMSIS/Include/cmsis_gcc.h ****   \param [in]    op1  Value to rotate
1018:Drivers/CMSIS/Include/cmsis_gcc.h ****   \param [in]    op2  Number of Bits to rotate
1019:Drivers/CMSIS/Include/cmsis_gcc.h ****   \return               Rotated value
1020:Drivers/CMSIS/Include/cmsis_gcc.h ****  */
1021:Drivers/CMSIS/Include/cmsis_gcc.h **** __STATIC_FORCEINLINE uint32_t __ROR(uint32_t op1, uint32_t op2)
1022:Drivers/CMSIS/Include/cmsis_gcc.h **** {
1023:Drivers/CMSIS/Include/cmsis_gcc.h ****   op2 %= 32U;
1024:Drivers/CMSIS/Include/cmsis_gcc.h ****   if (op2 == 0U)
1025:Drivers/CMSIS/Include/cmsis_gcc.h ****   {
1026:Drivers/CMSIS/Include/cmsis_gcc.h ****     return op1;
1027:Drivers/CMSIS/Include/cmsis_gcc.h ****   }
1028:Drivers/CMSIS/Include/cmsis_gcc.h ****   return (op1 >> op2) | (op1 << (32U - op2));
1029:Drivers/CMSIS/Include/cmsis_gcc.h **** }
1030:Drivers/CMSIS/Include/cmsis_gcc.h **** 
1031:Drivers/CMSIS/Include/cmsis_gcc.h **** 
1032:Drivers/CMSIS/Include/cmsis_gcc.h **** /**
1033:Drivers/CMSIS/Include/cmsis_gcc.h ****   \brief   Breakpoint
1034:Drivers/CMSIS/Include/cmsis_gcc.h ****   \details Causes the processor to enter Debug state.
1035:Drivers/CMSIS/Include/cmsis_gcc.h ****            Debug tools can use this to investigate system state when the instruction at a particula
1036:Drivers/CMSIS/Include/cmsis_gcc.h ****   \param [in]    value  is ignored by the processor.
1037:Drivers/CMSIS/Include/cmsis_gcc.h ****                  If required, a debugger can use it to store additional information about the break
1038:Drivers/CMSIS/Include/cmsis_gcc.h ****  */
1039:Drivers/CMSIS/Include/cmsis_gcc.h **** #define __BKPT(value)                       __ASM volatile ("bkpt "#value)
1040:Drivers/CMSIS/Include/cmsis_gcc.h **** 
1041:Drivers/CMSIS/Include/cmsis_gcc.h **** 
1042:Drivers/CMSIS/Include/cmsis_gcc.h **** /**
1043:Drivers/CMSIS/Include/cmsis_gcc.h ****   \brief   Reverse bit order of value
1044:Drivers/CMSIS/Include/cmsis_gcc.h ****   \details Reverses the bit order of the given value.
1045:Drivers/CMSIS/Include/cmsis_gcc.h ****   \param [in]    value  Value to reverse
1046:Drivers/CMSIS/Include/cmsis_gcc.h ****   \return               Reversed value
1047:Drivers/CMSIS/Include/cmsis_gcc.h ****  */
1048:Drivers/CMSIS/Include/cmsis_gcc.h **** __STATIC_FORCEINLINE uint32_t __RBIT(uint32_t value)
1049:Drivers/CMSIS/Include/cmsis_gcc.h **** {
1050:Drivers/CMSIS/Include/cmsis_gcc.h ****   uint32_t result;
1051:Drivers/CMSIS/Include/cmsis_gcc.h **** 
1052:Drivers/CMSIS/Include/cmsis_gcc.h **** #if ((defined (__ARM_ARCH_7M__      ) && (__ARM_ARCH_7M__      == 1)) || \
1053:Drivers/CMSIS/Include/cmsis_gcc.h ****      (defined (__ARM_ARCH_7EM__     ) && (__ARM_ARCH_7EM__     == 1)) || \
1054:Drivers/CMSIS/Include/cmsis_gcc.h ****      (defined (__ARM_ARCH_8M_MAIN__ ) && (__ARM_ARCH_8M_MAIN__ == 1))    )
1055:Drivers/CMSIS/Include/cmsis_gcc.h ****    __ASM volatile ("rbit %0, %1" : "=r" (result) : "r" (value) );
1056:Drivers/CMSIS/Include/cmsis_gcc.h **** #else
1057:Drivers/CMSIS/Include/cmsis_gcc.h ****   uint32_t s = (4U /*sizeof(v)*/ * 8U) - 1U; /* extra shift needed at end */
ARM GAS  C:\Users\ep_ygh\AppData\Local\Temp\ccr8O3zb.s 			page 31


1058:Drivers/CMSIS/Include/cmsis_gcc.h **** 
1059:Drivers/CMSIS/Include/cmsis_gcc.h ****   result = value;                      /* r will be reversed bits of v; first get LSB of v */
1060:Drivers/CMSIS/Include/cmsis_gcc.h ****   for (value >>= 1U; value != 0U; value >>= 1U)
1061:Drivers/CMSIS/Include/cmsis_gcc.h ****   {
1062:Drivers/CMSIS/Include/cmsis_gcc.h ****     result <<= 1U;
1063:Drivers/CMSIS/Include/cmsis_gcc.h ****     result |= value & 1U;
1064:Drivers/CMSIS/Include/cmsis_gcc.h ****     s--;
1065:Drivers/CMSIS/Include/cmsis_gcc.h ****   }
1066:Drivers/CMSIS/Include/cmsis_gcc.h ****   result <<= s;                        /* shift when v's highest bits are zero */
1067:Drivers/CMSIS/Include/cmsis_gcc.h **** #endif
1068:Drivers/CMSIS/Include/cmsis_gcc.h ****   return result;
1069:Drivers/CMSIS/Include/cmsis_gcc.h **** }
1070:Drivers/CMSIS/Include/cmsis_gcc.h **** 
1071:Drivers/CMSIS/Include/cmsis_gcc.h **** 
1072:Drivers/CMSIS/Include/cmsis_gcc.h **** /**
1073:Drivers/CMSIS/Include/cmsis_gcc.h ****   \brief   Count leading zeros
1074:Drivers/CMSIS/Include/cmsis_gcc.h ****   \details Counts the number of leading zeros of a data value.
1075:Drivers/CMSIS/Include/cmsis_gcc.h ****   \param [in]  value  Value to count the leading zeros
1076:Drivers/CMSIS/Include/cmsis_gcc.h ****   \return             number of leading zeros in value
1077:Drivers/CMSIS/Include/cmsis_gcc.h ****  */
1078:Drivers/CMSIS/Include/cmsis_gcc.h **** __STATIC_FORCEINLINE uint8_t __CLZ(uint32_t value)
1079:Drivers/CMSIS/Include/cmsis_gcc.h **** {
1080:Drivers/CMSIS/Include/cmsis_gcc.h ****   /* Even though __builtin_clz produces a CLZ instruction on ARM, formally
1081:Drivers/CMSIS/Include/cmsis_gcc.h ****      __builtin_clz(0) is undefined behaviour, so handle this case specially.
1082:Drivers/CMSIS/Include/cmsis_gcc.h ****      This guarantees ARM-compatible results if happening to compile on a non-ARM
1083:Drivers/CMSIS/Include/cmsis_gcc.h ****      target, and ensures the compiler doesn't decide to activate any
1084:Drivers/CMSIS/Include/cmsis_gcc.h ****      optimisations using the logic "value was passed to __builtin_clz, so it
1085:Drivers/CMSIS/Include/cmsis_gcc.h ****      is non-zero".
1086:Drivers/CMSIS/Include/cmsis_gcc.h ****      ARM GCC 7.3 and possibly earlier will optimise this test away, leaving a
1087:Drivers/CMSIS/Include/cmsis_gcc.h ****      single CLZ instruction.
1088:Drivers/CMSIS/Include/cmsis_gcc.h ****    */
1089:Drivers/CMSIS/Include/cmsis_gcc.h ****   if (value == 0U)
1090:Drivers/CMSIS/Include/cmsis_gcc.h ****   {
1091:Drivers/CMSIS/Include/cmsis_gcc.h ****     return 32U;
1092:Drivers/CMSIS/Include/cmsis_gcc.h ****   }
1093:Drivers/CMSIS/Include/cmsis_gcc.h ****   return __builtin_clz(value);
1094:Drivers/CMSIS/Include/cmsis_gcc.h **** }
1095:Drivers/CMSIS/Include/cmsis_gcc.h **** 
1096:Drivers/CMSIS/Include/cmsis_gcc.h **** 
1097:Drivers/CMSIS/Include/cmsis_gcc.h **** #if ((defined (__ARM_ARCH_7M__      ) && (__ARM_ARCH_7M__      == 1)) || \
1098:Drivers/CMSIS/Include/cmsis_gcc.h ****      (defined (__ARM_ARCH_7EM__     ) && (__ARM_ARCH_7EM__     == 1)) || \
1099:Drivers/CMSIS/Include/cmsis_gcc.h ****      (defined (__ARM_ARCH_8M_MAIN__ ) && (__ARM_ARCH_8M_MAIN__ == 1)) || \
1100:Drivers/CMSIS/Include/cmsis_gcc.h ****      (defined (__ARM_ARCH_8M_BASE__ ) && (__ARM_ARCH_8M_BASE__ == 1))    )
1101:Drivers/CMSIS/Include/cmsis_gcc.h **** /**
1102:Drivers/CMSIS/Include/cmsis_gcc.h ****   \brief   LDR Exclusive (8 bit)
1103:Drivers/CMSIS/Include/cmsis_gcc.h ****   \details Executes a exclusive LDR instruction for 8 bit value.
1104:Drivers/CMSIS/Include/cmsis_gcc.h ****   \param [in]    ptr  Pointer to data
1105:Drivers/CMSIS/Include/cmsis_gcc.h ****   \return             value of type uint8_t at (*ptr)
1106:Drivers/CMSIS/Include/cmsis_gcc.h ****  */
1107:Drivers/CMSIS/Include/cmsis_gcc.h **** __STATIC_FORCEINLINE uint8_t __LDREXB(volatile uint8_t *addr)
1108:Drivers/CMSIS/Include/cmsis_gcc.h **** {
1109:Drivers/CMSIS/Include/cmsis_gcc.h ****     uint32_t result;
1110:Drivers/CMSIS/Include/cmsis_gcc.h **** 
1111:Drivers/CMSIS/Include/cmsis_gcc.h **** #if (__GNUC__ > 4) || (__GNUC__ == 4 && __GNUC_MINOR__ >= 8)
1112:Drivers/CMSIS/Include/cmsis_gcc.h ****    __ASM volatile ("ldrexb %0, %1" : "=r" (result) : "Q" (*addr) );
1113:Drivers/CMSIS/Include/cmsis_gcc.h **** #else
1114:Drivers/CMSIS/Include/cmsis_gcc.h ****     /* Prior to GCC 4.8, "Q" will be expanded to [rx, #0] which is not
ARM GAS  C:\Users\ep_ygh\AppData\Local\Temp\ccr8O3zb.s 			page 32


1115:Drivers/CMSIS/Include/cmsis_gcc.h ****        accepted by assembler. So has to use following less efficient pattern.
1116:Drivers/CMSIS/Include/cmsis_gcc.h ****     */
1117:Drivers/CMSIS/Include/cmsis_gcc.h ****    __ASM volatile ("ldrexb %0, [%1]" : "=r" (result) : "r" (addr) : "memory" );
1118:Drivers/CMSIS/Include/cmsis_gcc.h **** #endif
1119:Drivers/CMSIS/Include/cmsis_gcc.h ****    return ((uint8_t) result);    /* Add explicit type cast here */
1120:Drivers/CMSIS/Include/cmsis_gcc.h **** }
1121:Drivers/CMSIS/Include/cmsis_gcc.h **** 
1122:Drivers/CMSIS/Include/cmsis_gcc.h **** 
1123:Drivers/CMSIS/Include/cmsis_gcc.h **** /**
1124:Drivers/CMSIS/Include/cmsis_gcc.h ****   \brief   LDR Exclusive (16 bit)
1125:Drivers/CMSIS/Include/cmsis_gcc.h ****   \details Executes a exclusive LDR instruction for 16 bit values.
1126:Drivers/CMSIS/Include/cmsis_gcc.h ****   \param [in]    ptr  Pointer to data
1127:Drivers/CMSIS/Include/cmsis_gcc.h ****   \return        value of type uint16_t at (*ptr)
1128:Drivers/CMSIS/Include/cmsis_gcc.h ****  */
1129:Drivers/CMSIS/Include/cmsis_gcc.h **** __STATIC_FORCEINLINE uint16_t __LDREXH(volatile uint16_t *addr)
1130:Drivers/CMSIS/Include/cmsis_gcc.h **** {
1131:Drivers/CMSIS/Include/cmsis_gcc.h ****     uint32_t result;
1132:Drivers/CMSIS/Include/cmsis_gcc.h **** 
1133:Drivers/CMSIS/Include/cmsis_gcc.h **** #if (__GNUC__ > 4) || (__GNUC__ == 4 && __GNUC_MINOR__ >= 8)
1134:Drivers/CMSIS/Include/cmsis_gcc.h ****    __ASM volatile ("ldrexh %0, %1" : "=r" (result) : "Q" (*addr) );
1135:Drivers/CMSIS/Include/cmsis_gcc.h **** #else
1136:Drivers/CMSIS/Include/cmsis_gcc.h ****     /* Prior to GCC 4.8, "Q" will be expanded to [rx, #0] which is not
1137:Drivers/CMSIS/Include/cmsis_gcc.h ****        accepted by assembler. So has to use following less efficient pattern.
1138:Drivers/CMSIS/Include/cmsis_gcc.h ****     */
1139:Drivers/CMSIS/Include/cmsis_gcc.h ****    __ASM volatile ("ldrexh %0, [%1]" : "=r" (result) : "r" (addr) : "memory" );
1140:Drivers/CMSIS/Include/cmsis_gcc.h **** #endif
1141:Drivers/CMSIS/Include/cmsis_gcc.h ****    return ((uint16_t) result);    /* Add explicit type cast here */
1142:Drivers/CMSIS/Include/cmsis_gcc.h **** }
1143:Drivers/CMSIS/Include/cmsis_gcc.h **** 
1144:Drivers/CMSIS/Include/cmsis_gcc.h **** 
1145:Drivers/CMSIS/Include/cmsis_gcc.h **** /**
1146:Drivers/CMSIS/Include/cmsis_gcc.h ****   \brief   LDR Exclusive (32 bit)
1147:Drivers/CMSIS/Include/cmsis_gcc.h ****   \details Executes a exclusive LDR instruction for 32 bit values.
1148:Drivers/CMSIS/Include/cmsis_gcc.h ****   \param [in]    ptr  Pointer to data
1149:Drivers/CMSIS/Include/cmsis_gcc.h ****   \return        value of type uint32_t at (*ptr)
1150:Drivers/CMSIS/Include/cmsis_gcc.h ****  */
1151:Drivers/CMSIS/Include/cmsis_gcc.h **** __STATIC_FORCEINLINE uint32_t __LDREXW(volatile uint32_t *addr)
1152:Drivers/CMSIS/Include/cmsis_gcc.h **** {
1153:Drivers/CMSIS/Include/cmsis_gcc.h ****     uint32_t result;
1154:Drivers/CMSIS/Include/cmsis_gcc.h **** 
1155:Drivers/CMSIS/Include/cmsis_gcc.h ****    __ASM volatile ("ldrex %0, %1" : "=r" (result) : "Q" (*addr) );
 259              		.loc 2 1155 4 discriminator 1
 260 0026 FB68     		ldr	r3, [r7, #12]
 261              		.syntax unified
 262              	@ 1155 "Drivers/CMSIS/Include/cmsis_gcc.h" 1
 263 0028 53E8003F 		ldrex r3, [r3]
 264              	@ 0 "" 2
 265              		.thumb
 266              		.syntax unified
 267 002c BB60     		str	r3, [r7, #8]
1156:Drivers/CMSIS/Include/cmsis_gcc.h ****    return(result);
 268              		.loc 2 1156 10 discriminator 1
 269 002e BB68     		ldr	r3, [r7, #8]
 270              	.LBE34:
 271              	.LBE33:
 272              		.loc 1 400 3 discriminator 1
 273 0030 43F40003 		orr	r3, r3, #8388608
ARM GAS  C:\Users\ep_ygh\AppData\Local\Temp\ccr8O3zb.s 			page 33


 274 0034 FB61     		str	r3, [r7, #28]
 275 0036 7B68     		ldr	r3, [r7, #4]
 276 0038 1B68     		ldr	r3, [r3]
 277 003a 0833     		adds	r3, r3, #8
 278 003c FA69     		ldr	r2, [r7, #28]
 279 003e BA61     		str	r2, [r7, #24]
 280 0040 7B61     		str	r3, [r7, #20]
 281              	.LBB35:
 282              	.LBB36:
1157:Drivers/CMSIS/Include/cmsis_gcc.h **** }
1158:Drivers/CMSIS/Include/cmsis_gcc.h **** 
1159:Drivers/CMSIS/Include/cmsis_gcc.h **** 
1160:Drivers/CMSIS/Include/cmsis_gcc.h **** /**
1161:Drivers/CMSIS/Include/cmsis_gcc.h ****   \brief   STR Exclusive (8 bit)
1162:Drivers/CMSIS/Include/cmsis_gcc.h ****   \details Executes a exclusive STR instruction for 8 bit values.
1163:Drivers/CMSIS/Include/cmsis_gcc.h ****   \param [in]  value  Value to store
1164:Drivers/CMSIS/Include/cmsis_gcc.h ****   \param [in]    ptr  Pointer to location
1165:Drivers/CMSIS/Include/cmsis_gcc.h ****   \return          0  Function succeeded
1166:Drivers/CMSIS/Include/cmsis_gcc.h ****   \return          1  Function failed
1167:Drivers/CMSIS/Include/cmsis_gcc.h ****  */
1168:Drivers/CMSIS/Include/cmsis_gcc.h **** __STATIC_FORCEINLINE uint32_t __STREXB(uint8_t value, volatile uint8_t *addr)
1169:Drivers/CMSIS/Include/cmsis_gcc.h **** {
1170:Drivers/CMSIS/Include/cmsis_gcc.h ****    uint32_t result;
1171:Drivers/CMSIS/Include/cmsis_gcc.h **** 
1172:Drivers/CMSIS/Include/cmsis_gcc.h ****    __ASM volatile ("strexb %0, %2, %1" : "=&r" (result), "=Q" (*addr) : "r" ((uint32_t)value) );
1173:Drivers/CMSIS/Include/cmsis_gcc.h ****    return(result);
1174:Drivers/CMSIS/Include/cmsis_gcc.h **** }
1175:Drivers/CMSIS/Include/cmsis_gcc.h **** 
1176:Drivers/CMSIS/Include/cmsis_gcc.h **** 
1177:Drivers/CMSIS/Include/cmsis_gcc.h **** /**
1178:Drivers/CMSIS/Include/cmsis_gcc.h ****   \brief   STR Exclusive (16 bit)
1179:Drivers/CMSIS/Include/cmsis_gcc.h ****   \details Executes a exclusive STR instruction for 16 bit values.
1180:Drivers/CMSIS/Include/cmsis_gcc.h ****   \param [in]  value  Value to store
1181:Drivers/CMSIS/Include/cmsis_gcc.h ****   \param [in]    ptr  Pointer to location
1182:Drivers/CMSIS/Include/cmsis_gcc.h ****   \return          0  Function succeeded
1183:Drivers/CMSIS/Include/cmsis_gcc.h ****   \return          1  Function failed
1184:Drivers/CMSIS/Include/cmsis_gcc.h ****  */
1185:Drivers/CMSIS/Include/cmsis_gcc.h **** __STATIC_FORCEINLINE uint32_t __STREXH(uint16_t value, volatile uint16_t *addr)
1186:Drivers/CMSIS/Include/cmsis_gcc.h **** {
1187:Drivers/CMSIS/Include/cmsis_gcc.h ****    uint32_t result;
1188:Drivers/CMSIS/Include/cmsis_gcc.h **** 
1189:Drivers/CMSIS/Include/cmsis_gcc.h ****    __ASM volatile ("strexh %0, %2, %1" : "=&r" (result), "=Q" (*addr) : "r" ((uint32_t)value) );
1190:Drivers/CMSIS/Include/cmsis_gcc.h ****    return(result);
1191:Drivers/CMSIS/Include/cmsis_gcc.h **** }
1192:Drivers/CMSIS/Include/cmsis_gcc.h **** 
1193:Drivers/CMSIS/Include/cmsis_gcc.h **** 
1194:Drivers/CMSIS/Include/cmsis_gcc.h **** /**
1195:Drivers/CMSIS/Include/cmsis_gcc.h ****   \brief   STR Exclusive (32 bit)
1196:Drivers/CMSIS/Include/cmsis_gcc.h ****   \details Executes a exclusive STR instruction for 32 bit values.
1197:Drivers/CMSIS/Include/cmsis_gcc.h ****   \param [in]  value  Value to store
1198:Drivers/CMSIS/Include/cmsis_gcc.h ****   \param [in]    ptr  Pointer to location
1199:Drivers/CMSIS/Include/cmsis_gcc.h ****   \return          0  Function succeeded
1200:Drivers/CMSIS/Include/cmsis_gcc.h ****   \return          1  Function failed
1201:Drivers/CMSIS/Include/cmsis_gcc.h ****  */
1202:Drivers/CMSIS/Include/cmsis_gcc.h **** __STATIC_FORCEINLINE uint32_t __STREXW(uint32_t value, volatile uint32_t *addr)
1203:Drivers/CMSIS/Include/cmsis_gcc.h **** {
1204:Drivers/CMSIS/Include/cmsis_gcc.h ****    uint32_t result;
ARM GAS  C:\Users\ep_ygh\AppData\Local\Temp\ccr8O3zb.s 			page 34


1205:Drivers/CMSIS/Include/cmsis_gcc.h **** 
1206:Drivers/CMSIS/Include/cmsis_gcc.h ****    __ASM volatile ("strex %0, %2, %1" : "=&r" (result), "=Q" (*addr) : "r" (value) );
 283              		.loc 2 1206 4 discriminator 1
 284 0042 7969     		ldr	r1, [r7, #20]
 285 0044 BA69     		ldr	r2, [r7, #24]
 286              		.syntax unified
 287              	@ 1206 "Drivers/CMSIS/Include/cmsis_gcc.h" 1
 288 0046 41E80023 		strex r3, r2, [r1]
 289              	@ 0 "" 2
 290              		.thumb
 291              		.syntax unified
 292 004a 3B61     		str	r3, [r7, #16]
1207:Drivers/CMSIS/Include/cmsis_gcc.h ****    return(result);
 293              		.loc 2 1207 10 discriminator 1
 294 004c 3B69     		ldr	r3, [r7, #16]
 295              	.LBE36:
 296              	.LBE35:
 297              		.loc 1 400 3 discriminator 1
 298 004e 002B     		cmp	r3, #0
 299 0050 E5D1     		bne	.L13
 300              	.LBE32:
 401:Drivers/STM32L4xx_HAL_Driver/Src/stm32l4xx_hal_uart_ex.c **** 
 402:Drivers/STM32L4xx_HAL_Driver/Src/stm32l4xx_hal_uart_ex.c ****   /* Process Unlocked */
 403:Drivers/STM32L4xx_HAL_Driver/Src/stm32l4xx_hal_uart_ex.c ****   __HAL_UNLOCK(huart);
 301              		.loc 1 403 3
 302 0052 7B68     		ldr	r3, [r7, #4]
 303 0054 0022     		movs	r2, #0
 304 0056 83F87820 		strb	r2, [r3, #120]
 404:Drivers/STM32L4xx_HAL_Driver/Src/stm32l4xx_hal_uart_ex.c **** 
 405:Drivers/STM32L4xx_HAL_Driver/Src/stm32l4xx_hal_uart_ex.c ****   return HAL_OK;
 305              		.loc 1 405 10
 306 005a 0023     		movs	r3, #0
 307              	.L10:
 406:Drivers/STM32L4xx_HAL_Driver/Src/stm32l4xx_hal_uart_ex.c **** }
 308              		.loc 1 406 1
 309 005c 1846     		mov	r0, r3
 310 005e 2437     		adds	r7, r7, #36
 311              	.LCFI14:
 312              		.cfi_def_cfa_offset 4
 313 0060 BD46     		mov	sp, r7
 314              	.LCFI15:
 315              		.cfi_def_cfa_register 13
 316              		@ sp needed
 317 0062 5DF8047B 		ldr	r7, [sp], #4
 318              	.LCFI16:
 319              		.cfi_restore 7
 320              		.cfi_def_cfa_offset 0
 321 0066 7047     		bx	lr
 322              		.cfi_endproc
 323              	.LFE319:
 325              		.section	.text.HAL_UARTEx_DisableClockStopMode,"ax",%progbits
 326              		.align	1
 327              		.global	HAL_UARTEx_DisableClockStopMode
 328              		.syntax unified
 329              		.thumb
 330              		.thumb_func
 332              	HAL_UARTEx_DisableClockStopMode:
ARM GAS  C:\Users\ep_ygh\AppData\Local\Temp\ccr8O3zb.s 			page 35


 333              	.LFB320:
 407:Drivers/STM32L4xx_HAL_Driver/Src/stm32l4xx_hal_uart_ex.c **** 
 408:Drivers/STM32L4xx_HAL_Driver/Src/stm32l4xx_hal_uart_ex.c **** /**
 409:Drivers/STM32L4xx_HAL_Driver/Src/stm32l4xx_hal_uart_ex.c ****   * @brief  Disable UART Clock when in Stop Mode.
 410:Drivers/STM32L4xx_HAL_Driver/Src/stm32l4xx_hal_uart_ex.c ****   * @param  huart UART handle.
 411:Drivers/STM32L4xx_HAL_Driver/Src/stm32l4xx_hal_uart_ex.c ****   * @retval HAL status
 412:Drivers/STM32L4xx_HAL_Driver/Src/stm32l4xx_hal_uart_ex.c ****   */
 413:Drivers/STM32L4xx_HAL_Driver/Src/stm32l4xx_hal_uart_ex.c **** HAL_StatusTypeDef HAL_UARTEx_DisableClockStopMode(UART_HandleTypeDef *huart)
 414:Drivers/STM32L4xx_HAL_Driver/Src/stm32l4xx_hal_uart_ex.c **** {
 334              		.loc 1 414 1
 335              		.cfi_startproc
 336              		@ args = 0, pretend = 0, frame = 32
 337              		@ frame_needed = 1, uses_anonymous_args = 0
 338              		@ link register save eliminated.
 339 0000 80B4     		push	{r7}
 340              	.LCFI17:
 341              		.cfi_def_cfa_offset 4
 342              		.cfi_offset 7, -4
 343 0002 89B0     		sub	sp, sp, #36
 344              	.LCFI18:
 345              		.cfi_def_cfa_offset 40
 346 0004 00AF     		add	r7, sp, #0
 347              	.LCFI19:
 348              		.cfi_def_cfa_register 7
 349 0006 7860     		str	r0, [r7, #4]
 415:Drivers/STM32L4xx_HAL_Driver/Src/stm32l4xx_hal_uart_ex.c ****   /* Process Locked */
 416:Drivers/STM32L4xx_HAL_Driver/Src/stm32l4xx_hal_uart_ex.c ****   __HAL_LOCK(huart);
 350              		.loc 1 416 3
 351 0008 7B68     		ldr	r3, [r7, #4]
 352 000a 93F87830 		ldrb	r3, [r3, #120]	@ zero_extendqisi2
 353 000e 012B     		cmp	r3, #1
 354 0010 01D1     		bne	.L15
 355              		.loc 1 416 3 is_stmt 0 discriminator 1
 356 0012 0223     		movs	r3, #2
 357 0014 22E0     		b	.L16
 358              	.L15:
 359              		.loc 1 416 3 discriminator 2
 360 0016 7B68     		ldr	r3, [r7, #4]
 361 0018 0122     		movs	r2, #1
 362 001a 83F87820 		strb	r2, [r3, #120]
 363              	.L19:
 364              	.LBB37:
 417:Drivers/STM32L4xx_HAL_Driver/Src/stm32l4xx_hal_uart_ex.c **** 
 418:Drivers/STM32L4xx_HAL_Driver/Src/stm32l4xx_hal_uart_ex.c ****   /* Clear UCESM bit */
 419:Drivers/STM32L4xx_HAL_Driver/Src/stm32l4xx_hal_uart_ex.c ****   ATOMIC_CLEAR_BIT(huart->Instance->CR3, USART_CR3_UCESM);
 365              		.loc 1 419 3 is_stmt 1 discriminator 1
 366 001e 7B68     		ldr	r3, [r7, #4]
 367 0020 1B68     		ldr	r3, [r3]
 368 0022 0833     		adds	r3, r3, #8
 369 0024 FB60     		str	r3, [r7, #12]
 370              	.LBB38:
 371              	.LBB39:
1155:Drivers/CMSIS/Include/cmsis_gcc.h ****    return(result);
 372              		.loc 2 1155 4 discriminator 1
 373 0026 FB68     		ldr	r3, [r7, #12]
 374              		.syntax unified
 375              	@ 1155 "Drivers/CMSIS/Include/cmsis_gcc.h" 1
ARM GAS  C:\Users\ep_ygh\AppData\Local\Temp\ccr8O3zb.s 			page 36


 376 0028 53E8003F 		ldrex r3, [r3]
 377              	@ 0 "" 2
 378              		.thumb
 379              		.syntax unified
 380 002c BB60     		str	r3, [r7, #8]
1156:Drivers/CMSIS/Include/cmsis_gcc.h **** }
 381              		.loc 2 1156 10 discriminator 1
 382 002e BB68     		ldr	r3, [r7, #8]
 383              	.LBE39:
 384              	.LBE38:
 385              		.loc 1 419 3 discriminator 1
 386 0030 23F40003 		bic	r3, r3, #8388608
 387 0034 FB61     		str	r3, [r7, #28]
 388 0036 7B68     		ldr	r3, [r7, #4]
 389 0038 1B68     		ldr	r3, [r3]
 390 003a 0833     		adds	r3, r3, #8
 391 003c FA69     		ldr	r2, [r7, #28]
 392 003e BA61     		str	r2, [r7, #24]
 393 0040 7B61     		str	r3, [r7, #20]
 394              	.LBB40:
 395              	.LBB41:
1206:Drivers/CMSIS/Include/cmsis_gcc.h ****    return(result);
 396              		.loc 2 1206 4 discriminator 1
 397 0042 7969     		ldr	r1, [r7, #20]
 398 0044 BA69     		ldr	r2, [r7, #24]
 399              		.syntax unified
 400              	@ 1206 "Drivers/CMSIS/Include/cmsis_gcc.h" 1
 401 0046 41E80023 		strex r3, r2, [r1]
 402              	@ 0 "" 2
 403              		.thumb
 404              		.syntax unified
 405 004a 3B61     		str	r3, [r7, #16]
 406              		.loc 2 1207 10 discriminator 1
 407 004c 3B69     		ldr	r3, [r7, #16]
 408              	.LBE41:
 409              	.LBE40:
 410              		.loc 1 419 3 discriminator 1
 411 004e 002B     		cmp	r3, #0
 412 0050 E5D1     		bne	.L19
 413              	.LBE37:
 420:Drivers/STM32L4xx_HAL_Driver/Src/stm32l4xx_hal_uart_ex.c **** 
 421:Drivers/STM32L4xx_HAL_Driver/Src/stm32l4xx_hal_uart_ex.c ****   /* Process Unlocked */
 422:Drivers/STM32L4xx_HAL_Driver/Src/stm32l4xx_hal_uart_ex.c ****   __HAL_UNLOCK(huart);
 414              		.loc 1 422 3
 415 0052 7B68     		ldr	r3, [r7, #4]
 416 0054 0022     		movs	r2, #0
 417 0056 83F87820 		strb	r2, [r3, #120]
 423:Drivers/STM32L4xx_HAL_Driver/Src/stm32l4xx_hal_uart_ex.c **** 
 424:Drivers/STM32L4xx_HAL_Driver/Src/stm32l4xx_hal_uart_ex.c ****   return HAL_OK;
 418              		.loc 1 424 10
 419 005a 0023     		movs	r3, #0
 420              	.L16:
 425:Drivers/STM32L4xx_HAL_Driver/Src/stm32l4xx_hal_uart_ex.c **** }
 421              		.loc 1 425 1
 422 005c 1846     		mov	r0, r3
 423 005e 2437     		adds	r7, r7, #36
 424              	.LCFI20:
ARM GAS  C:\Users\ep_ygh\AppData\Local\Temp\ccr8O3zb.s 			page 37


 425              		.cfi_def_cfa_offset 4
 426 0060 BD46     		mov	sp, r7
 427              	.LCFI21:
 428              		.cfi_def_cfa_register 13
 429              		@ sp needed
 430 0062 5DF8047B 		ldr	r7, [sp], #4
 431              	.LCFI22:
 432              		.cfi_restore 7
 433              		.cfi_def_cfa_offset 0
 434 0066 7047     		bx	lr
 435              		.cfi_endproc
 436              	.LFE320:
 438              		.section	.text.HAL_MultiProcessorEx_AddressLength_Set,"ax",%progbits
 439              		.align	1
 440              		.global	HAL_MultiProcessorEx_AddressLength_Set
 441              		.syntax unified
 442              		.thumb
 443              		.thumb_func
 445              	HAL_MultiProcessorEx_AddressLength_Set:
 446              	.LFB321:
 426:Drivers/STM32L4xx_HAL_Driver/Src/stm32l4xx_hal_uart_ex.c **** 
 427:Drivers/STM32L4xx_HAL_Driver/Src/stm32l4xx_hal_uart_ex.c **** #endif /* USART_CR3_UCESM */
 428:Drivers/STM32L4xx_HAL_Driver/Src/stm32l4xx_hal_uart_ex.c **** /**
 429:Drivers/STM32L4xx_HAL_Driver/Src/stm32l4xx_hal_uart_ex.c ****   * @brief By default in multiprocessor mode, when the wake up method is set
 430:Drivers/STM32L4xx_HAL_Driver/Src/stm32l4xx_hal_uart_ex.c ****   *        to address mark, the UART handles only 4-bit long addresses detection;
 431:Drivers/STM32L4xx_HAL_Driver/Src/stm32l4xx_hal_uart_ex.c ****   *        this API allows to enable longer addresses detection (6-, 7- or 8-bit
 432:Drivers/STM32L4xx_HAL_Driver/Src/stm32l4xx_hal_uart_ex.c ****   *        long).
 433:Drivers/STM32L4xx_HAL_Driver/Src/stm32l4xx_hal_uart_ex.c ****   * @note  Addresses detection lengths are: 6-bit address detection in 7-bit data mode,
 434:Drivers/STM32L4xx_HAL_Driver/Src/stm32l4xx_hal_uart_ex.c ****   *        7-bit address detection in 8-bit data mode, 8-bit address detection in 9-bit data mode.
 435:Drivers/STM32L4xx_HAL_Driver/Src/stm32l4xx_hal_uart_ex.c ****   * @param huart         UART handle.
 436:Drivers/STM32L4xx_HAL_Driver/Src/stm32l4xx_hal_uart_ex.c ****   * @param AddressLength This parameter can be one of the following values:
 437:Drivers/STM32L4xx_HAL_Driver/Src/stm32l4xx_hal_uart_ex.c ****   *          @arg @ref UART_ADDRESS_DETECT_4B 4-bit long address
 438:Drivers/STM32L4xx_HAL_Driver/Src/stm32l4xx_hal_uart_ex.c ****   *          @arg @ref UART_ADDRESS_DETECT_7B 6-, 7- or 8-bit long address
 439:Drivers/STM32L4xx_HAL_Driver/Src/stm32l4xx_hal_uart_ex.c ****   * @retval HAL status
 440:Drivers/STM32L4xx_HAL_Driver/Src/stm32l4xx_hal_uart_ex.c ****   */
 441:Drivers/STM32L4xx_HAL_Driver/Src/stm32l4xx_hal_uart_ex.c **** HAL_StatusTypeDef HAL_MultiProcessorEx_AddressLength_Set(UART_HandleTypeDef *huart, uint32_t Addres
 442:Drivers/STM32L4xx_HAL_Driver/Src/stm32l4xx_hal_uart_ex.c **** {
 447              		.loc 1 442 1
 448              		.cfi_startproc
 449              		@ args = 0, pretend = 0, frame = 8
 450              		@ frame_needed = 1, uses_anonymous_args = 0
 451 0000 80B5     		push	{r7, lr}
 452              	.LCFI23:
 453              		.cfi_def_cfa_offset 8
 454              		.cfi_offset 7, -8
 455              		.cfi_offset 14, -4
 456 0002 82B0     		sub	sp, sp, #8
 457              	.LCFI24:
 458              		.cfi_def_cfa_offset 16
 459 0004 00AF     		add	r7, sp, #0
 460              	.LCFI25:
 461              		.cfi_def_cfa_register 7
 462 0006 7860     		str	r0, [r7, #4]
 463 0008 3960     		str	r1, [r7]
 443:Drivers/STM32L4xx_HAL_Driver/Src/stm32l4xx_hal_uart_ex.c ****   /* Check the UART handle allocation */
 444:Drivers/STM32L4xx_HAL_Driver/Src/stm32l4xx_hal_uart_ex.c ****   if (huart == NULL)
 464              		.loc 1 444 6
ARM GAS  C:\Users\ep_ygh\AppData\Local\Temp\ccr8O3zb.s 			page 38


 465 000a 7B68     		ldr	r3, [r7, #4]
 466 000c 002B     		cmp	r3, #0
 467 000e 01D1     		bne	.L21
 445:Drivers/STM32L4xx_HAL_Driver/Src/stm32l4xx_hal_uart_ex.c ****   {
 446:Drivers/STM32L4xx_HAL_Driver/Src/stm32l4xx_hal_uart_ex.c ****     return HAL_ERROR;
 468              		.loc 1 446 12
 469 0010 0123     		movs	r3, #1
 470 0012 20E0     		b	.L22
 471              	.L21:
 447:Drivers/STM32L4xx_HAL_Driver/Src/stm32l4xx_hal_uart_ex.c ****   }
 448:Drivers/STM32L4xx_HAL_Driver/Src/stm32l4xx_hal_uart_ex.c **** 
 449:Drivers/STM32L4xx_HAL_Driver/Src/stm32l4xx_hal_uart_ex.c ****   /* Check the address length parameter */
 450:Drivers/STM32L4xx_HAL_Driver/Src/stm32l4xx_hal_uart_ex.c ****   assert_param(IS_UART_ADDRESSLENGTH_DETECT(AddressLength));
 451:Drivers/STM32L4xx_HAL_Driver/Src/stm32l4xx_hal_uart_ex.c **** 
 452:Drivers/STM32L4xx_HAL_Driver/Src/stm32l4xx_hal_uart_ex.c ****   huart->gState = HAL_UART_STATE_BUSY;
 472              		.loc 1 452 17
 473 0014 7B68     		ldr	r3, [r7, #4]
 474 0016 2422     		movs	r2, #36
 475 0018 DA67     		str	r2, [r3, #124]
 453:Drivers/STM32L4xx_HAL_Driver/Src/stm32l4xx_hal_uart_ex.c **** 
 454:Drivers/STM32L4xx_HAL_Driver/Src/stm32l4xx_hal_uart_ex.c ****   /* Disable the Peripheral */
 455:Drivers/STM32L4xx_HAL_Driver/Src/stm32l4xx_hal_uart_ex.c ****   __HAL_UART_DISABLE(huart);
 476              		.loc 1 455 3
 477 001a 7B68     		ldr	r3, [r7, #4]
 478 001c 1B68     		ldr	r3, [r3]
 479 001e 1A68     		ldr	r2, [r3]
 480 0020 7B68     		ldr	r3, [r7, #4]
 481 0022 1B68     		ldr	r3, [r3]
 482 0024 22F00102 		bic	r2, r2, #1
 483 0028 1A60     		str	r2, [r3]
 456:Drivers/STM32L4xx_HAL_Driver/Src/stm32l4xx_hal_uart_ex.c **** 
 457:Drivers/STM32L4xx_HAL_Driver/Src/stm32l4xx_hal_uart_ex.c ****   /* Set the address length */
 458:Drivers/STM32L4xx_HAL_Driver/Src/stm32l4xx_hal_uart_ex.c ****   MODIFY_REG(huart->Instance->CR2, USART_CR2_ADDM7, AddressLength);
 484              		.loc 1 458 3
 485 002a 7B68     		ldr	r3, [r7, #4]
 486 002c 1B68     		ldr	r3, [r3]
 487 002e 5B68     		ldr	r3, [r3, #4]
 488 0030 23F01001 		bic	r1, r3, #16
 489 0034 7B68     		ldr	r3, [r7, #4]
 490 0036 1B68     		ldr	r3, [r3]
 491 0038 3A68     		ldr	r2, [r7]
 492 003a 0A43     		orrs	r2, r2, r1
 493 003c 5A60     		str	r2, [r3, #4]
 459:Drivers/STM32L4xx_HAL_Driver/Src/stm32l4xx_hal_uart_ex.c **** 
 460:Drivers/STM32L4xx_HAL_Driver/Src/stm32l4xx_hal_uart_ex.c ****   /* Enable the Peripheral */
 461:Drivers/STM32L4xx_HAL_Driver/Src/stm32l4xx_hal_uart_ex.c ****   __HAL_UART_ENABLE(huart);
 494              		.loc 1 461 3
 495 003e 7B68     		ldr	r3, [r7, #4]
 496 0040 1B68     		ldr	r3, [r3]
 497 0042 1A68     		ldr	r2, [r3]
 498 0044 7B68     		ldr	r3, [r7, #4]
 499 0046 1B68     		ldr	r3, [r3]
 500 0048 42F00102 		orr	r2, r2, #1
 501 004c 1A60     		str	r2, [r3]
 462:Drivers/STM32L4xx_HAL_Driver/Src/stm32l4xx_hal_uart_ex.c **** 
 463:Drivers/STM32L4xx_HAL_Driver/Src/stm32l4xx_hal_uart_ex.c ****   /* TEACK and/or REACK to check before moving huart->gState to Ready */
 464:Drivers/STM32L4xx_HAL_Driver/Src/stm32l4xx_hal_uart_ex.c ****   return (UART_CheckIdleState(huart));
ARM GAS  C:\Users\ep_ygh\AppData\Local\Temp\ccr8O3zb.s 			page 39


 502              		.loc 1 464 11
 503 004e 7868     		ldr	r0, [r7, #4]
 504 0050 FFF7FEFF 		bl	UART_CheckIdleState
 505 0054 0346     		mov	r3, r0
 506              	.L22:
 465:Drivers/STM32L4xx_HAL_Driver/Src/stm32l4xx_hal_uart_ex.c **** }
 507              		.loc 1 465 1
 508 0056 1846     		mov	r0, r3
 509 0058 0837     		adds	r7, r7, #8
 510              	.LCFI26:
 511              		.cfi_def_cfa_offset 8
 512 005a BD46     		mov	sp, r7
 513              	.LCFI27:
 514              		.cfi_def_cfa_register 13
 515              		@ sp needed
 516 005c 80BD     		pop	{r7, pc}
 517              		.cfi_endproc
 518              	.LFE321:
 520              		.section	.text.HAL_UARTEx_StopModeWakeUpSourceConfig,"ax",%progbits
 521              		.align	1
 522              		.global	HAL_UARTEx_StopModeWakeUpSourceConfig
 523              		.syntax unified
 524              		.thumb
 525              		.thumb_func
 527              	HAL_UARTEx_StopModeWakeUpSourceConfig:
 528              	.LFB322:
 466:Drivers/STM32L4xx_HAL_Driver/Src/stm32l4xx_hal_uart_ex.c **** 
 467:Drivers/STM32L4xx_HAL_Driver/Src/stm32l4xx_hal_uart_ex.c **** /**
 468:Drivers/STM32L4xx_HAL_Driver/Src/stm32l4xx_hal_uart_ex.c ****   * @brief Set Wakeup from Stop mode interrupt flag selection.
 469:Drivers/STM32L4xx_HAL_Driver/Src/stm32l4xx_hal_uart_ex.c ****   * @note It is the application responsibility to enable the interrupt used as
 470:Drivers/STM32L4xx_HAL_Driver/Src/stm32l4xx_hal_uart_ex.c ****   *       usart_wkup interrupt source before entering low-power mode.
 471:Drivers/STM32L4xx_HAL_Driver/Src/stm32l4xx_hal_uart_ex.c ****   * @param huart           UART handle.
 472:Drivers/STM32L4xx_HAL_Driver/Src/stm32l4xx_hal_uart_ex.c ****   * @param WakeUpSelection Address match, Start Bit detection or RXNE/RXFNE bit status.
 473:Drivers/STM32L4xx_HAL_Driver/Src/stm32l4xx_hal_uart_ex.c ****   *          This parameter can be one of the following values:
 474:Drivers/STM32L4xx_HAL_Driver/Src/stm32l4xx_hal_uart_ex.c ****   *          @arg @ref UART_WAKEUP_ON_ADDRESS
 475:Drivers/STM32L4xx_HAL_Driver/Src/stm32l4xx_hal_uart_ex.c ****   *          @arg @ref UART_WAKEUP_ON_STARTBIT
 476:Drivers/STM32L4xx_HAL_Driver/Src/stm32l4xx_hal_uart_ex.c ****   *          @arg @ref UART_WAKEUP_ON_READDATA_NONEMPTY
 477:Drivers/STM32L4xx_HAL_Driver/Src/stm32l4xx_hal_uart_ex.c ****   * @retval HAL status
 478:Drivers/STM32L4xx_HAL_Driver/Src/stm32l4xx_hal_uart_ex.c ****   */
 479:Drivers/STM32L4xx_HAL_Driver/Src/stm32l4xx_hal_uart_ex.c **** HAL_StatusTypeDef HAL_UARTEx_StopModeWakeUpSourceConfig(UART_HandleTypeDef *huart, UART_WakeUpTypeD
 480:Drivers/STM32L4xx_HAL_Driver/Src/stm32l4xx_hal_uart_ex.c **** {
 529              		.loc 1 480 1
 530              		.cfi_startproc
 531              		@ args = 0, pretend = 0, frame = 24
 532              		@ frame_needed = 1, uses_anonymous_args = 0
 533 0000 80B5     		push	{r7, lr}
 534              	.LCFI28:
 535              		.cfi_def_cfa_offset 8
 536              		.cfi_offset 7, -8
 537              		.cfi_offset 14, -4
 538 0002 88B0     		sub	sp, sp, #32
 539              	.LCFI29:
 540              		.cfi_def_cfa_offset 40
 541 0004 02AF     		add	r7, sp, #8
 542              	.LCFI30:
 543              		.cfi_def_cfa 7, 32
 544 0006 F860     		str	r0, [r7, #12]
ARM GAS  C:\Users\ep_ygh\AppData\Local\Temp\ccr8O3zb.s 			page 40


 545 0008 3B1D     		adds	r3, r7, #4
 546 000a 83E80600 		stm	r3, {r1, r2}
 481:Drivers/STM32L4xx_HAL_Driver/Src/stm32l4xx_hal_uart_ex.c ****   HAL_StatusTypeDef status = HAL_OK;
 547              		.loc 1 481 21
 548 000e 0023     		movs	r3, #0
 549 0010 FB75     		strb	r3, [r7, #23]
 482:Drivers/STM32L4xx_HAL_Driver/Src/stm32l4xx_hal_uart_ex.c ****   uint32_t tickstart;
 483:Drivers/STM32L4xx_HAL_Driver/Src/stm32l4xx_hal_uart_ex.c **** 
 484:Drivers/STM32L4xx_HAL_Driver/Src/stm32l4xx_hal_uart_ex.c ****   /* check the wake-up from stop mode UART instance */
 485:Drivers/STM32L4xx_HAL_Driver/Src/stm32l4xx_hal_uart_ex.c ****   assert_param(IS_UART_WAKEUP_FROMSTOP_INSTANCE(huart->Instance));
 486:Drivers/STM32L4xx_HAL_Driver/Src/stm32l4xx_hal_uart_ex.c ****   /* check the wake-up selection parameter */
 487:Drivers/STM32L4xx_HAL_Driver/Src/stm32l4xx_hal_uart_ex.c ****   assert_param(IS_UART_WAKEUP_SELECTION(WakeUpSelection.WakeUpEvent));
 488:Drivers/STM32L4xx_HAL_Driver/Src/stm32l4xx_hal_uart_ex.c **** 
 489:Drivers/STM32L4xx_HAL_Driver/Src/stm32l4xx_hal_uart_ex.c ****   /* Process Locked */
 490:Drivers/STM32L4xx_HAL_Driver/Src/stm32l4xx_hal_uart_ex.c ****   __HAL_LOCK(huart);
 550              		.loc 1 490 3
 551 0012 FB68     		ldr	r3, [r7, #12]
 552 0014 93F87830 		ldrb	r3, [r3, #120]	@ zero_extendqisi2
 553 0018 012B     		cmp	r3, #1
 554 001a 01D1     		bne	.L24
 555              		.loc 1 490 3 is_stmt 0 discriminator 1
 556 001c 0223     		movs	r3, #2
 557 001e 44E0     		b	.L25
 558              	.L24:
 559              		.loc 1 490 3 discriminator 2
 560 0020 FB68     		ldr	r3, [r7, #12]
 561 0022 0122     		movs	r2, #1
 562 0024 83F87820 		strb	r2, [r3, #120]
 491:Drivers/STM32L4xx_HAL_Driver/Src/stm32l4xx_hal_uart_ex.c **** 
 492:Drivers/STM32L4xx_HAL_Driver/Src/stm32l4xx_hal_uart_ex.c ****   huart->gState = HAL_UART_STATE_BUSY;
 563              		.loc 1 492 17 is_stmt 1 discriminator 2
 564 0028 FB68     		ldr	r3, [r7, #12]
 565 002a 2422     		movs	r2, #36
 566 002c DA67     		str	r2, [r3, #124]
 493:Drivers/STM32L4xx_HAL_Driver/Src/stm32l4xx_hal_uart_ex.c **** 
 494:Drivers/STM32L4xx_HAL_Driver/Src/stm32l4xx_hal_uart_ex.c ****   /* Disable the Peripheral */
 495:Drivers/STM32L4xx_HAL_Driver/Src/stm32l4xx_hal_uart_ex.c ****   __HAL_UART_DISABLE(huart);
 567              		.loc 1 495 3 discriminator 2
 568 002e FB68     		ldr	r3, [r7, #12]
 569 0030 1B68     		ldr	r3, [r3]
 570 0032 1A68     		ldr	r2, [r3]
 571 0034 FB68     		ldr	r3, [r7, #12]
 572 0036 1B68     		ldr	r3, [r3]
 573 0038 22F00102 		bic	r2, r2, #1
 574 003c 1A60     		str	r2, [r3]
 496:Drivers/STM32L4xx_HAL_Driver/Src/stm32l4xx_hal_uart_ex.c **** 
 497:Drivers/STM32L4xx_HAL_Driver/Src/stm32l4xx_hal_uart_ex.c ****   /* Set the wake-up selection scheme */
 498:Drivers/STM32L4xx_HAL_Driver/Src/stm32l4xx_hal_uart_ex.c ****   MODIFY_REG(huart->Instance->CR3, USART_CR3_WUS, WakeUpSelection.WakeUpEvent);
 575              		.loc 1 498 3 discriminator 2
 576 003e FB68     		ldr	r3, [r7, #12]
 577 0040 1B68     		ldr	r3, [r3]
 578 0042 9B68     		ldr	r3, [r3, #8]
 579 0044 23F44011 		bic	r1, r3, #3145728
 580 0048 7A68     		ldr	r2, [r7, #4]
 581 004a FB68     		ldr	r3, [r7, #12]
 582 004c 1B68     		ldr	r3, [r3]
 583 004e 0A43     		orrs	r2, r2, r1
ARM GAS  C:\Users\ep_ygh\AppData\Local\Temp\ccr8O3zb.s 			page 41


 584 0050 9A60     		str	r2, [r3, #8]
 499:Drivers/STM32L4xx_HAL_Driver/Src/stm32l4xx_hal_uart_ex.c **** 
 500:Drivers/STM32L4xx_HAL_Driver/Src/stm32l4xx_hal_uart_ex.c ****   if (WakeUpSelection.WakeUpEvent == UART_WAKEUP_ON_ADDRESS)
 585              		.loc 1 500 22 discriminator 2
 586 0052 7B68     		ldr	r3, [r7, #4]
 587              		.loc 1 500 6 discriminator 2
 588 0054 002B     		cmp	r3, #0
 589 0056 05D1     		bne	.L26
 501:Drivers/STM32L4xx_HAL_Driver/Src/stm32l4xx_hal_uart_ex.c ****   {
 502:Drivers/STM32L4xx_HAL_Driver/Src/stm32l4xx_hal_uart_ex.c ****     UARTEx_Wakeup_AddressConfig(huart, WakeUpSelection);
 590              		.loc 1 502 5
 591 0058 3B1D     		adds	r3, r7, #4
 592 005a 93E80600 		ldm	r3, {r1, r2}
 593 005e F868     		ldr	r0, [r7, #12]
 594 0060 FFF7FEFF 		bl	UARTEx_Wakeup_AddressConfig
 595              	.L26:
 503:Drivers/STM32L4xx_HAL_Driver/Src/stm32l4xx_hal_uart_ex.c ****   }
 504:Drivers/STM32L4xx_HAL_Driver/Src/stm32l4xx_hal_uart_ex.c **** 
 505:Drivers/STM32L4xx_HAL_Driver/Src/stm32l4xx_hal_uart_ex.c ****   /* Enable the Peripheral */
 506:Drivers/STM32L4xx_HAL_Driver/Src/stm32l4xx_hal_uart_ex.c ****   __HAL_UART_ENABLE(huart);
 596              		.loc 1 506 3
 597 0064 FB68     		ldr	r3, [r7, #12]
 598 0066 1B68     		ldr	r3, [r3]
 599 0068 1A68     		ldr	r2, [r3]
 600 006a FB68     		ldr	r3, [r7, #12]
 601 006c 1B68     		ldr	r3, [r3]
 602 006e 42F00102 		orr	r2, r2, #1
 603 0072 1A60     		str	r2, [r3]
 507:Drivers/STM32L4xx_HAL_Driver/Src/stm32l4xx_hal_uart_ex.c **** 
 508:Drivers/STM32L4xx_HAL_Driver/Src/stm32l4xx_hal_uart_ex.c ****   /* Init tickstart for timeout management */
 509:Drivers/STM32L4xx_HAL_Driver/Src/stm32l4xx_hal_uart_ex.c ****   tickstart = HAL_GetTick();
 604              		.loc 1 509 15
 605 0074 FFF7FEFF 		bl	HAL_GetTick
 606 0078 3861     		str	r0, [r7, #16]
 510:Drivers/STM32L4xx_HAL_Driver/Src/stm32l4xx_hal_uart_ex.c **** 
 511:Drivers/STM32L4xx_HAL_Driver/Src/stm32l4xx_hal_uart_ex.c ****   /* Wait until REACK flag is set */
 512:Drivers/STM32L4xx_HAL_Driver/Src/stm32l4xx_hal_uart_ex.c ****   if (UART_WaitOnFlagUntilTimeout(huart, USART_ISR_REACK, RESET, tickstart, HAL_UART_TIMEOUT_VALUE)
 607              		.loc 1 512 7
 608 007a 6FF07E43 		mvn	r3, #-33554432
 609 007e 0093     		str	r3, [sp]
 610 0080 3B69     		ldr	r3, [r7, #16]
 611 0082 0022     		movs	r2, #0
 612 0084 4FF48001 		mov	r1, #4194304
 613 0088 F868     		ldr	r0, [r7, #12]
 614 008a FFF7FEFF 		bl	UART_WaitOnFlagUntilTimeout
 615 008e 0346     		mov	r3, r0
 616              		.loc 1 512 6
 617 0090 002B     		cmp	r3, #0
 618 0092 02D0     		beq	.L27
 513:Drivers/STM32L4xx_HAL_Driver/Src/stm32l4xx_hal_uart_ex.c ****   {
 514:Drivers/STM32L4xx_HAL_Driver/Src/stm32l4xx_hal_uart_ex.c ****     status = HAL_TIMEOUT;
 619              		.loc 1 514 12
 620 0094 0323     		movs	r3, #3
 621 0096 FB75     		strb	r3, [r7, #23]
 622 0098 02E0     		b	.L28
 623              	.L27:
 515:Drivers/STM32L4xx_HAL_Driver/Src/stm32l4xx_hal_uart_ex.c ****   }
ARM GAS  C:\Users\ep_ygh\AppData\Local\Temp\ccr8O3zb.s 			page 42


 516:Drivers/STM32L4xx_HAL_Driver/Src/stm32l4xx_hal_uart_ex.c ****   else
 517:Drivers/STM32L4xx_HAL_Driver/Src/stm32l4xx_hal_uart_ex.c ****   {
 518:Drivers/STM32L4xx_HAL_Driver/Src/stm32l4xx_hal_uart_ex.c ****     /* Initialize the UART State */
 519:Drivers/STM32L4xx_HAL_Driver/Src/stm32l4xx_hal_uart_ex.c ****     huart->gState = HAL_UART_STATE_READY;
 624              		.loc 1 519 19
 625 009a FB68     		ldr	r3, [r7, #12]
 626 009c 2022     		movs	r2, #32
 627 009e DA67     		str	r2, [r3, #124]
 628              	.L28:
 520:Drivers/STM32L4xx_HAL_Driver/Src/stm32l4xx_hal_uart_ex.c ****   }
 521:Drivers/STM32L4xx_HAL_Driver/Src/stm32l4xx_hal_uart_ex.c **** 
 522:Drivers/STM32L4xx_HAL_Driver/Src/stm32l4xx_hal_uart_ex.c ****   /* Process Unlocked */
 523:Drivers/STM32L4xx_HAL_Driver/Src/stm32l4xx_hal_uart_ex.c ****   __HAL_UNLOCK(huart);
 629              		.loc 1 523 3
 630 00a0 FB68     		ldr	r3, [r7, #12]
 631 00a2 0022     		movs	r2, #0
 632 00a4 83F87820 		strb	r2, [r3, #120]
 524:Drivers/STM32L4xx_HAL_Driver/Src/stm32l4xx_hal_uart_ex.c **** 
 525:Drivers/STM32L4xx_HAL_Driver/Src/stm32l4xx_hal_uart_ex.c ****   return status;
 633              		.loc 1 525 10
 634 00a8 FB7D     		ldrb	r3, [r7, #23]	@ zero_extendqisi2
 635              	.L25:
 526:Drivers/STM32L4xx_HAL_Driver/Src/stm32l4xx_hal_uart_ex.c **** }
 636              		.loc 1 526 1
 637 00aa 1846     		mov	r0, r3
 638 00ac 1837     		adds	r7, r7, #24
 639              	.LCFI31:
 640              		.cfi_def_cfa_offset 8
 641 00ae BD46     		mov	sp, r7
 642              	.LCFI32:
 643              		.cfi_def_cfa_register 13
 644              		@ sp needed
 645 00b0 80BD     		pop	{r7, pc}
 646              		.cfi_endproc
 647              	.LFE322:
 649              		.section	.text.HAL_UARTEx_EnableStopMode,"ax",%progbits
 650              		.align	1
 651              		.global	HAL_UARTEx_EnableStopMode
 652              		.syntax unified
 653              		.thumb
 654              		.thumb_func
 656              	HAL_UARTEx_EnableStopMode:
 657              	.LFB323:
 527:Drivers/STM32L4xx_HAL_Driver/Src/stm32l4xx_hal_uart_ex.c **** 
 528:Drivers/STM32L4xx_HAL_Driver/Src/stm32l4xx_hal_uart_ex.c **** /**
 529:Drivers/STM32L4xx_HAL_Driver/Src/stm32l4xx_hal_uart_ex.c ****   * @brief Enable UART Stop Mode.
 530:Drivers/STM32L4xx_HAL_Driver/Src/stm32l4xx_hal_uart_ex.c ****   * @note The UART is able to wake up the MCU from Stop 1 mode as long as UART clock is HSI or LSE.
 531:Drivers/STM32L4xx_HAL_Driver/Src/stm32l4xx_hal_uart_ex.c ****   * @param huart UART handle.
 532:Drivers/STM32L4xx_HAL_Driver/Src/stm32l4xx_hal_uart_ex.c ****   * @retval HAL status
 533:Drivers/STM32L4xx_HAL_Driver/Src/stm32l4xx_hal_uart_ex.c ****   */
 534:Drivers/STM32L4xx_HAL_Driver/Src/stm32l4xx_hal_uart_ex.c **** HAL_StatusTypeDef HAL_UARTEx_EnableStopMode(UART_HandleTypeDef *huart)
 535:Drivers/STM32L4xx_HAL_Driver/Src/stm32l4xx_hal_uart_ex.c **** {
 658              		.loc 1 535 1
 659              		.cfi_startproc
 660              		@ args = 0, pretend = 0, frame = 32
 661              		@ frame_needed = 1, uses_anonymous_args = 0
 662              		@ link register save eliminated.
ARM GAS  C:\Users\ep_ygh\AppData\Local\Temp\ccr8O3zb.s 			page 43


 663 0000 80B4     		push	{r7}
 664              	.LCFI33:
 665              		.cfi_def_cfa_offset 4
 666              		.cfi_offset 7, -4
 667 0002 89B0     		sub	sp, sp, #36
 668              	.LCFI34:
 669              		.cfi_def_cfa_offset 40
 670 0004 00AF     		add	r7, sp, #0
 671              	.LCFI35:
 672              		.cfi_def_cfa_register 7
 673 0006 7860     		str	r0, [r7, #4]
 536:Drivers/STM32L4xx_HAL_Driver/Src/stm32l4xx_hal_uart_ex.c ****   /* Process Locked */
 537:Drivers/STM32L4xx_HAL_Driver/Src/stm32l4xx_hal_uart_ex.c ****   __HAL_LOCK(huart);
 674              		.loc 1 537 3
 675 0008 7B68     		ldr	r3, [r7, #4]
 676 000a 93F87830 		ldrb	r3, [r3, #120]	@ zero_extendqisi2
 677 000e 012B     		cmp	r3, #1
 678 0010 01D1     		bne	.L30
 679              		.loc 1 537 3 is_stmt 0 discriminator 1
 680 0012 0223     		movs	r3, #2
 681 0014 21E0     		b	.L31
 682              	.L30:
 683              		.loc 1 537 3 discriminator 2
 684 0016 7B68     		ldr	r3, [r7, #4]
 685 0018 0122     		movs	r2, #1
 686 001a 83F87820 		strb	r2, [r3, #120]
 687              	.L34:
 688              	.LBB42:
 538:Drivers/STM32L4xx_HAL_Driver/Src/stm32l4xx_hal_uart_ex.c **** 
 539:Drivers/STM32L4xx_HAL_Driver/Src/stm32l4xx_hal_uart_ex.c ****   /* Set UESM bit */
 540:Drivers/STM32L4xx_HAL_Driver/Src/stm32l4xx_hal_uart_ex.c ****   ATOMIC_SET_BIT(huart->Instance->CR1, USART_CR1_UESM);
 689              		.loc 1 540 3 is_stmt 1 discriminator 1
 690 001e 7B68     		ldr	r3, [r7, #4]
 691 0020 1B68     		ldr	r3, [r3]
 692 0022 FB60     		str	r3, [r7, #12]
 693              	.LBB43:
 694              	.LBB44:
1155:Drivers/CMSIS/Include/cmsis_gcc.h ****    return(result);
 695              		.loc 2 1155 4 discriminator 1
 696 0024 FB68     		ldr	r3, [r7, #12]
 697              		.syntax unified
 698              	@ 1155 "Drivers/CMSIS/Include/cmsis_gcc.h" 1
 699 0026 53E8003F 		ldrex r3, [r3]
 700              	@ 0 "" 2
 701              		.thumb
 702              		.syntax unified
 703 002a BB60     		str	r3, [r7, #8]
1156:Drivers/CMSIS/Include/cmsis_gcc.h **** }
 704              		.loc 2 1156 10 discriminator 1
 705 002c BB68     		ldr	r3, [r7, #8]
 706              	.LBE44:
 707              	.LBE43:
 708              		.loc 1 540 3 discriminator 1
 709 002e 43F00203 		orr	r3, r3, #2
 710 0032 FB61     		str	r3, [r7, #28]
 711 0034 7B68     		ldr	r3, [r7, #4]
 712 0036 1B68     		ldr	r3, [r3]
ARM GAS  C:\Users\ep_ygh\AppData\Local\Temp\ccr8O3zb.s 			page 44


 713 0038 1A46     		mov	r2, r3
 714 003a FB69     		ldr	r3, [r7, #28]
 715 003c BB61     		str	r3, [r7, #24]
 716 003e 7A61     		str	r2, [r7, #20]
 717              	.LBB45:
 718              	.LBB46:
1206:Drivers/CMSIS/Include/cmsis_gcc.h ****    return(result);
 719              		.loc 2 1206 4 discriminator 1
 720 0040 7969     		ldr	r1, [r7, #20]
 721 0042 BA69     		ldr	r2, [r7, #24]
 722              		.syntax unified
 723              	@ 1206 "Drivers/CMSIS/Include/cmsis_gcc.h" 1
 724 0044 41E80023 		strex r3, r2, [r1]
 725              	@ 0 "" 2
 726              		.thumb
 727              		.syntax unified
 728 0048 3B61     		str	r3, [r7, #16]
 729              		.loc 2 1207 10 discriminator 1
 730 004a 3B69     		ldr	r3, [r7, #16]
 731              	.LBE46:
 732              	.LBE45:
 733              		.loc 1 540 3 discriminator 1
 734 004c 002B     		cmp	r3, #0
 735 004e E6D1     		bne	.L34
 736              	.LBE42:
 541:Drivers/STM32L4xx_HAL_Driver/Src/stm32l4xx_hal_uart_ex.c **** 
 542:Drivers/STM32L4xx_HAL_Driver/Src/stm32l4xx_hal_uart_ex.c ****   /* Process Unlocked */
 543:Drivers/STM32L4xx_HAL_Driver/Src/stm32l4xx_hal_uart_ex.c ****   __HAL_UNLOCK(huart);
 737              		.loc 1 543 3
 738 0050 7B68     		ldr	r3, [r7, #4]
 739 0052 0022     		movs	r2, #0
 740 0054 83F87820 		strb	r2, [r3, #120]
 544:Drivers/STM32L4xx_HAL_Driver/Src/stm32l4xx_hal_uart_ex.c **** 
 545:Drivers/STM32L4xx_HAL_Driver/Src/stm32l4xx_hal_uart_ex.c ****   return HAL_OK;
 741              		.loc 1 545 10
 742 0058 0023     		movs	r3, #0
 743              	.L31:
 546:Drivers/STM32L4xx_HAL_Driver/Src/stm32l4xx_hal_uart_ex.c **** }
 744              		.loc 1 546 1
 745 005a 1846     		mov	r0, r3
 746 005c 2437     		adds	r7, r7, #36
 747              	.LCFI36:
 748              		.cfi_def_cfa_offset 4
 749 005e BD46     		mov	sp, r7
 750              	.LCFI37:
 751              		.cfi_def_cfa_register 13
 752              		@ sp needed
 753 0060 5DF8047B 		ldr	r7, [sp], #4
 754              	.LCFI38:
 755              		.cfi_restore 7
 756              		.cfi_def_cfa_offset 0
 757 0064 7047     		bx	lr
 758              		.cfi_endproc
 759              	.LFE323:
 761              		.section	.text.HAL_UARTEx_DisableStopMode,"ax",%progbits
 762              		.align	1
 763              		.global	HAL_UARTEx_DisableStopMode
ARM GAS  C:\Users\ep_ygh\AppData\Local\Temp\ccr8O3zb.s 			page 45


 764              		.syntax unified
 765              		.thumb
 766              		.thumb_func
 768              	HAL_UARTEx_DisableStopMode:
 769              	.LFB324:
 547:Drivers/STM32L4xx_HAL_Driver/Src/stm32l4xx_hal_uart_ex.c **** 
 548:Drivers/STM32L4xx_HAL_Driver/Src/stm32l4xx_hal_uart_ex.c **** /**
 549:Drivers/STM32L4xx_HAL_Driver/Src/stm32l4xx_hal_uart_ex.c ****   * @brief Disable UART Stop Mode.
 550:Drivers/STM32L4xx_HAL_Driver/Src/stm32l4xx_hal_uart_ex.c ****   * @param huart UART handle.
 551:Drivers/STM32L4xx_HAL_Driver/Src/stm32l4xx_hal_uart_ex.c ****   * @retval HAL status
 552:Drivers/STM32L4xx_HAL_Driver/Src/stm32l4xx_hal_uart_ex.c ****   */
 553:Drivers/STM32L4xx_HAL_Driver/Src/stm32l4xx_hal_uart_ex.c **** HAL_StatusTypeDef HAL_UARTEx_DisableStopMode(UART_HandleTypeDef *huart)
 554:Drivers/STM32L4xx_HAL_Driver/Src/stm32l4xx_hal_uart_ex.c **** {
 770              		.loc 1 554 1
 771              		.cfi_startproc
 772              		@ args = 0, pretend = 0, frame = 32
 773              		@ frame_needed = 1, uses_anonymous_args = 0
 774              		@ link register save eliminated.
 775 0000 80B4     		push	{r7}
 776              	.LCFI39:
 777              		.cfi_def_cfa_offset 4
 778              		.cfi_offset 7, -4
 779 0002 89B0     		sub	sp, sp, #36
 780              	.LCFI40:
 781              		.cfi_def_cfa_offset 40
 782 0004 00AF     		add	r7, sp, #0
 783              	.LCFI41:
 784              		.cfi_def_cfa_register 7
 785 0006 7860     		str	r0, [r7, #4]
 555:Drivers/STM32L4xx_HAL_Driver/Src/stm32l4xx_hal_uart_ex.c ****   /* Process Locked */
 556:Drivers/STM32L4xx_HAL_Driver/Src/stm32l4xx_hal_uart_ex.c ****   __HAL_LOCK(huart);
 786              		.loc 1 556 3
 787 0008 7B68     		ldr	r3, [r7, #4]
 788 000a 93F87830 		ldrb	r3, [r3, #120]	@ zero_extendqisi2
 789 000e 012B     		cmp	r3, #1
 790 0010 01D1     		bne	.L36
 791              		.loc 1 556 3 is_stmt 0 discriminator 1
 792 0012 0223     		movs	r3, #2
 793 0014 21E0     		b	.L37
 794              	.L36:
 795              		.loc 1 556 3 discriminator 2
 796 0016 7B68     		ldr	r3, [r7, #4]
 797 0018 0122     		movs	r2, #1
 798 001a 83F87820 		strb	r2, [r3, #120]
 799              	.L40:
 800              	.LBB47:
 557:Drivers/STM32L4xx_HAL_Driver/Src/stm32l4xx_hal_uart_ex.c **** 
 558:Drivers/STM32L4xx_HAL_Driver/Src/stm32l4xx_hal_uart_ex.c ****   /* Clear UESM bit */
 559:Drivers/STM32L4xx_HAL_Driver/Src/stm32l4xx_hal_uart_ex.c ****   ATOMIC_CLEAR_BIT(huart->Instance->CR1, USART_CR1_UESM);
 801              		.loc 1 559 3 is_stmt 1 discriminator 1
 802 001e 7B68     		ldr	r3, [r7, #4]
 803 0020 1B68     		ldr	r3, [r3]
 804 0022 FB60     		str	r3, [r7, #12]
 805              	.LBB48:
 806              	.LBB49:
1155:Drivers/CMSIS/Include/cmsis_gcc.h ****    return(result);
 807              		.loc 2 1155 4 discriminator 1
ARM GAS  C:\Users\ep_ygh\AppData\Local\Temp\ccr8O3zb.s 			page 46


 808 0024 FB68     		ldr	r3, [r7, #12]
 809              		.syntax unified
 810              	@ 1155 "Drivers/CMSIS/Include/cmsis_gcc.h" 1
 811 0026 53E8003F 		ldrex r3, [r3]
 812              	@ 0 "" 2
 813              		.thumb
 814              		.syntax unified
 815 002a BB60     		str	r3, [r7, #8]
1156:Drivers/CMSIS/Include/cmsis_gcc.h **** }
 816              		.loc 2 1156 10 discriminator 1
 817 002c BB68     		ldr	r3, [r7, #8]
 818              	.LBE49:
 819              	.LBE48:
 820              		.loc 1 559 3 discriminator 1
 821 002e 23F00203 		bic	r3, r3, #2
 822 0032 FB61     		str	r3, [r7, #28]
 823 0034 7B68     		ldr	r3, [r7, #4]
 824 0036 1B68     		ldr	r3, [r3]
 825 0038 1A46     		mov	r2, r3
 826 003a FB69     		ldr	r3, [r7, #28]
 827 003c BB61     		str	r3, [r7, #24]
 828 003e 7A61     		str	r2, [r7, #20]
 829              	.LBB50:
 830              	.LBB51:
1206:Drivers/CMSIS/Include/cmsis_gcc.h ****    return(result);
 831              		.loc 2 1206 4 discriminator 1
 832 0040 7969     		ldr	r1, [r7, #20]
 833 0042 BA69     		ldr	r2, [r7, #24]
 834              		.syntax unified
 835              	@ 1206 "Drivers/CMSIS/Include/cmsis_gcc.h" 1
 836 0044 41E80023 		strex r3, r2, [r1]
 837              	@ 0 "" 2
 838              		.thumb
 839              		.syntax unified
 840 0048 3B61     		str	r3, [r7, #16]
 841              		.loc 2 1207 10 discriminator 1
 842 004a 3B69     		ldr	r3, [r7, #16]
 843              	.LBE51:
 844              	.LBE50:
 845              		.loc 1 559 3 discriminator 1
 846 004c 002B     		cmp	r3, #0
 847 004e E6D1     		bne	.L40
 848              	.LBE47:
 560:Drivers/STM32L4xx_HAL_Driver/Src/stm32l4xx_hal_uart_ex.c **** 
 561:Drivers/STM32L4xx_HAL_Driver/Src/stm32l4xx_hal_uart_ex.c ****   /* Process Unlocked */
 562:Drivers/STM32L4xx_HAL_Driver/Src/stm32l4xx_hal_uart_ex.c ****   __HAL_UNLOCK(huart);
 849              		.loc 1 562 3
 850 0050 7B68     		ldr	r3, [r7, #4]
 851 0052 0022     		movs	r2, #0
 852 0054 83F87820 		strb	r2, [r3, #120]
 563:Drivers/STM32L4xx_HAL_Driver/Src/stm32l4xx_hal_uart_ex.c **** 
 564:Drivers/STM32L4xx_HAL_Driver/Src/stm32l4xx_hal_uart_ex.c ****   return HAL_OK;
 853              		.loc 1 564 10
 854 0058 0023     		movs	r3, #0
 855              	.L37:
 565:Drivers/STM32L4xx_HAL_Driver/Src/stm32l4xx_hal_uart_ex.c **** }
 856              		.loc 1 565 1
ARM GAS  C:\Users\ep_ygh\AppData\Local\Temp\ccr8O3zb.s 			page 47


 857 005a 1846     		mov	r0, r3
 858 005c 2437     		adds	r7, r7, #36
 859              	.LCFI42:
 860              		.cfi_def_cfa_offset 4
 861 005e BD46     		mov	sp, r7
 862              	.LCFI43:
 863              		.cfi_def_cfa_register 13
 864              		@ sp needed
 865 0060 5DF8047B 		ldr	r7, [sp], #4
 866              	.LCFI44:
 867              		.cfi_restore 7
 868              		.cfi_def_cfa_offset 0
 869 0064 7047     		bx	lr
 870              		.cfi_endproc
 871              	.LFE324:
 873              		.section	.text.HAL_UARTEx_ReceiveToIdle,"ax",%progbits
 874              		.align	1
 875              		.global	HAL_UARTEx_ReceiveToIdle
 876              		.syntax unified
 877              		.thumb
 878              		.thumb_func
 880              	HAL_UARTEx_ReceiveToIdle:
 881              	.LFB325:
 566:Drivers/STM32L4xx_HAL_Driver/Src/stm32l4xx_hal_uart_ex.c **** 
 567:Drivers/STM32L4xx_HAL_Driver/Src/stm32l4xx_hal_uart_ex.c **** #if defined(USART_CR1_FIFOEN)
 568:Drivers/STM32L4xx_HAL_Driver/Src/stm32l4xx_hal_uart_ex.c **** /**
 569:Drivers/STM32L4xx_HAL_Driver/Src/stm32l4xx_hal_uart_ex.c ****   * @brief  Enable the FIFO mode.
 570:Drivers/STM32L4xx_HAL_Driver/Src/stm32l4xx_hal_uart_ex.c ****   * @param huart      UART handle.
 571:Drivers/STM32L4xx_HAL_Driver/Src/stm32l4xx_hal_uart_ex.c ****   * @retval HAL status
 572:Drivers/STM32L4xx_HAL_Driver/Src/stm32l4xx_hal_uart_ex.c ****   */
 573:Drivers/STM32L4xx_HAL_Driver/Src/stm32l4xx_hal_uart_ex.c **** HAL_StatusTypeDef HAL_UARTEx_EnableFifoMode(UART_HandleTypeDef *huart)
 574:Drivers/STM32L4xx_HAL_Driver/Src/stm32l4xx_hal_uart_ex.c **** {
 575:Drivers/STM32L4xx_HAL_Driver/Src/stm32l4xx_hal_uart_ex.c ****   uint32_t tmpcr1;
 576:Drivers/STM32L4xx_HAL_Driver/Src/stm32l4xx_hal_uart_ex.c **** 
 577:Drivers/STM32L4xx_HAL_Driver/Src/stm32l4xx_hal_uart_ex.c ****   /* Check parameters */
 578:Drivers/STM32L4xx_HAL_Driver/Src/stm32l4xx_hal_uart_ex.c ****   assert_param(IS_UART_FIFO_INSTANCE(huart->Instance));
 579:Drivers/STM32L4xx_HAL_Driver/Src/stm32l4xx_hal_uart_ex.c **** 
 580:Drivers/STM32L4xx_HAL_Driver/Src/stm32l4xx_hal_uart_ex.c ****   /* Process Locked */
 581:Drivers/STM32L4xx_HAL_Driver/Src/stm32l4xx_hal_uart_ex.c ****   __HAL_LOCK(huart);
 582:Drivers/STM32L4xx_HAL_Driver/Src/stm32l4xx_hal_uart_ex.c **** 
 583:Drivers/STM32L4xx_HAL_Driver/Src/stm32l4xx_hal_uart_ex.c ****   huart->gState = HAL_UART_STATE_BUSY;
 584:Drivers/STM32L4xx_HAL_Driver/Src/stm32l4xx_hal_uart_ex.c **** 
 585:Drivers/STM32L4xx_HAL_Driver/Src/stm32l4xx_hal_uart_ex.c ****   /* Save actual UART configuration */
 586:Drivers/STM32L4xx_HAL_Driver/Src/stm32l4xx_hal_uart_ex.c ****   tmpcr1 = READ_REG(huart->Instance->CR1);
 587:Drivers/STM32L4xx_HAL_Driver/Src/stm32l4xx_hal_uart_ex.c **** 
 588:Drivers/STM32L4xx_HAL_Driver/Src/stm32l4xx_hal_uart_ex.c ****   /* Disable UART */
 589:Drivers/STM32L4xx_HAL_Driver/Src/stm32l4xx_hal_uart_ex.c ****   __HAL_UART_DISABLE(huart);
 590:Drivers/STM32L4xx_HAL_Driver/Src/stm32l4xx_hal_uart_ex.c **** 
 591:Drivers/STM32L4xx_HAL_Driver/Src/stm32l4xx_hal_uart_ex.c ****   /* Enable FIFO mode */
 592:Drivers/STM32L4xx_HAL_Driver/Src/stm32l4xx_hal_uart_ex.c ****   SET_BIT(tmpcr1, USART_CR1_FIFOEN);
 593:Drivers/STM32L4xx_HAL_Driver/Src/stm32l4xx_hal_uart_ex.c ****   huart->FifoMode = UART_FIFOMODE_ENABLE;
 594:Drivers/STM32L4xx_HAL_Driver/Src/stm32l4xx_hal_uart_ex.c **** 
 595:Drivers/STM32L4xx_HAL_Driver/Src/stm32l4xx_hal_uart_ex.c ****   /* Restore UART configuration */
 596:Drivers/STM32L4xx_HAL_Driver/Src/stm32l4xx_hal_uart_ex.c ****   WRITE_REG(huart->Instance->CR1, tmpcr1);
 597:Drivers/STM32L4xx_HAL_Driver/Src/stm32l4xx_hal_uart_ex.c **** 
 598:Drivers/STM32L4xx_HAL_Driver/Src/stm32l4xx_hal_uart_ex.c ****   /* Determine the number of data to process during RX/TX ISR execution */
 599:Drivers/STM32L4xx_HAL_Driver/Src/stm32l4xx_hal_uart_ex.c ****   UARTEx_SetNbDataToProcess(huart);
ARM GAS  C:\Users\ep_ygh\AppData\Local\Temp\ccr8O3zb.s 			page 48


 600:Drivers/STM32L4xx_HAL_Driver/Src/stm32l4xx_hal_uart_ex.c **** 
 601:Drivers/STM32L4xx_HAL_Driver/Src/stm32l4xx_hal_uart_ex.c ****   huart->gState = HAL_UART_STATE_READY;
 602:Drivers/STM32L4xx_HAL_Driver/Src/stm32l4xx_hal_uart_ex.c **** 
 603:Drivers/STM32L4xx_HAL_Driver/Src/stm32l4xx_hal_uart_ex.c ****   /* Process Unlocked */
 604:Drivers/STM32L4xx_HAL_Driver/Src/stm32l4xx_hal_uart_ex.c ****   __HAL_UNLOCK(huart);
 605:Drivers/STM32L4xx_HAL_Driver/Src/stm32l4xx_hal_uart_ex.c **** 
 606:Drivers/STM32L4xx_HAL_Driver/Src/stm32l4xx_hal_uart_ex.c ****   return HAL_OK;
 607:Drivers/STM32L4xx_HAL_Driver/Src/stm32l4xx_hal_uart_ex.c **** }
 608:Drivers/STM32L4xx_HAL_Driver/Src/stm32l4xx_hal_uart_ex.c **** 
 609:Drivers/STM32L4xx_HAL_Driver/Src/stm32l4xx_hal_uart_ex.c **** /**
 610:Drivers/STM32L4xx_HAL_Driver/Src/stm32l4xx_hal_uart_ex.c ****   * @brief  Disable the FIFO mode.
 611:Drivers/STM32L4xx_HAL_Driver/Src/stm32l4xx_hal_uart_ex.c ****   * @param huart      UART handle.
 612:Drivers/STM32L4xx_HAL_Driver/Src/stm32l4xx_hal_uart_ex.c ****   * @retval HAL status
 613:Drivers/STM32L4xx_HAL_Driver/Src/stm32l4xx_hal_uart_ex.c ****   */
 614:Drivers/STM32L4xx_HAL_Driver/Src/stm32l4xx_hal_uart_ex.c **** HAL_StatusTypeDef HAL_UARTEx_DisableFifoMode(UART_HandleTypeDef *huart)
 615:Drivers/STM32L4xx_HAL_Driver/Src/stm32l4xx_hal_uart_ex.c **** {
 616:Drivers/STM32L4xx_HAL_Driver/Src/stm32l4xx_hal_uart_ex.c ****   uint32_t tmpcr1;
 617:Drivers/STM32L4xx_HAL_Driver/Src/stm32l4xx_hal_uart_ex.c **** 
 618:Drivers/STM32L4xx_HAL_Driver/Src/stm32l4xx_hal_uart_ex.c ****   /* Check parameters */
 619:Drivers/STM32L4xx_HAL_Driver/Src/stm32l4xx_hal_uart_ex.c ****   assert_param(IS_UART_FIFO_INSTANCE(huart->Instance));
 620:Drivers/STM32L4xx_HAL_Driver/Src/stm32l4xx_hal_uart_ex.c **** 
 621:Drivers/STM32L4xx_HAL_Driver/Src/stm32l4xx_hal_uart_ex.c ****   /* Process Locked */
 622:Drivers/STM32L4xx_HAL_Driver/Src/stm32l4xx_hal_uart_ex.c ****   __HAL_LOCK(huart);
 623:Drivers/STM32L4xx_HAL_Driver/Src/stm32l4xx_hal_uart_ex.c **** 
 624:Drivers/STM32L4xx_HAL_Driver/Src/stm32l4xx_hal_uart_ex.c ****   huart->gState = HAL_UART_STATE_BUSY;
 625:Drivers/STM32L4xx_HAL_Driver/Src/stm32l4xx_hal_uart_ex.c **** 
 626:Drivers/STM32L4xx_HAL_Driver/Src/stm32l4xx_hal_uart_ex.c ****   /* Save actual UART configuration */
 627:Drivers/STM32L4xx_HAL_Driver/Src/stm32l4xx_hal_uart_ex.c ****   tmpcr1 = READ_REG(huart->Instance->CR1);
 628:Drivers/STM32L4xx_HAL_Driver/Src/stm32l4xx_hal_uart_ex.c **** 
 629:Drivers/STM32L4xx_HAL_Driver/Src/stm32l4xx_hal_uart_ex.c ****   /* Disable UART */
 630:Drivers/STM32L4xx_HAL_Driver/Src/stm32l4xx_hal_uart_ex.c ****   __HAL_UART_DISABLE(huart);
 631:Drivers/STM32L4xx_HAL_Driver/Src/stm32l4xx_hal_uart_ex.c **** 
 632:Drivers/STM32L4xx_HAL_Driver/Src/stm32l4xx_hal_uart_ex.c ****   /* Enable FIFO mode */
 633:Drivers/STM32L4xx_HAL_Driver/Src/stm32l4xx_hal_uart_ex.c ****   CLEAR_BIT(tmpcr1, USART_CR1_FIFOEN);
 634:Drivers/STM32L4xx_HAL_Driver/Src/stm32l4xx_hal_uart_ex.c ****   huart->FifoMode = UART_FIFOMODE_DISABLE;
 635:Drivers/STM32L4xx_HAL_Driver/Src/stm32l4xx_hal_uart_ex.c **** 
 636:Drivers/STM32L4xx_HAL_Driver/Src/stm32l4xx_hal_uart_ex.c ****   /* Restore UART configuration */
 637:Drivers/STM32L4xx_HAL_Driver/Src/stm32l4xx_hal_uart_ex.c ****   WRITE_REG(huart->Instance->CR1, tmpcr1);
 638:Drivers/STM32L4xx_HAL_Driver/Src/stm32l4xx_hal_uart_ex.c **** 
 639:Drivers/STM32L4xx_HAL_Driver/Src/stm32l4xx_hal_uart_ex.c ****   huart->gState = HAL_UART_STATE_READY;
 640:Drivers/STM32L4xx_HAL_Driver/Src/stm32l4xx_hal_uart_ex.c **** 
 641:Drivers/STM32L4xx_HAL_Driver/Src/stm32l4xx_hal_uart_ex.c ****   /* Process Unlocked */
 642:Drivers/STM32L4xx_HAL_Driver/Src/stm32l4xx_hal_uart_ex.c ****   __HAL_UNLOCK(huart);
 643:Drivers/STM32L4xx_HAL_Driver/Src/stm32l4xx_hal_uart_ex.c **** 
 644:Drivers/STM32L4xx_HAL_Driver/Src/stm32l4xx_hal_uart_ex.c ****   return HAL_OK;
 645:Drivers/STM32L4xx_HAL_Driver/Src/stm32l4xx_hal_uart_ex.c **** }
 646:Drivers/STM32L4xx_HAL_Driver/Src/stm32l4xx_hal_uart_ex.c **** 
 647:Drivers/STM32L4xx_HAL_Driver/Src/stm32l4xx_hal_uart_ex.c **** /**
 648:Drivers/STM32L4xx_HAL_Driver/Src/stm32l4xx_hal_uart_ex.c ****   * @brief  Set the TXFIFO threshold.
 649:Drivers/STM32L4xx_HAL_Driver/Src/stm32l4xx_hal_uart_ex.c ****   * @param huart      UART handle.
 650:Drivers/STM32L4xx_HAL_Driver/Src/stm32l4xx_hal_uart_ex.c ****   * @param Threshold  TX FIFO threshold value
 651:Drivers/STM32L4xx_HAL_Driver/Src/stm32l4xx_hal_uart_ex.c ****   *          This parameter can be one of the following values:
 652:Drivers/STM32L4xx_HAL_Driver/Src/stm32l4xx_hal_uart_ex.c ****   *            @arg @ref UART_TXFIFO_THRESHOLD_1_8
 653:Drivers/STM32L4xx_HAL_Driver/Src/stm32l4xx_hal_uart_ex.c ****   *            @arg @ref UART_TXFIFO_THRESHOLD_1_4
 654:Drivers/STM32L4xx_HAL_Driver/Src/stm32l4xx_hal_uart_ex.c ****   *            @arg @ref UART_TXFIFO_THRESHOLD_1_2
 655:Drivers/STM32L4xx_HAL_Driver/Src/stm32l4xx_hal_uart_ex.c ****   *            @arg @ref UART_TXFIFO_THRESHOLD_3_4
 656:Drivers/STM32L4xx_HAL_Driver/Src/stm32l4xx_hal_uart_ex.c ****   *            @arg @ref UART_TXFIFO_THRESHOLD_7_8
ARM GAS  C:\Users\ep_ygh\AppData\Local\Temp\ccr8O3zb.s 			page 49


 657:Drivers/STM32L4xx_HAL_Driver/Src/stm32l4xx_hal_uart_ex.c ****   *            @arg @ref UART_TXFIFO_THRESHOLD_8_8
 658:Drivers/STM32L4xx_HAL_Driver/Src/stm32l4xx_hal_uart_ex.c ****   * @retval HAL status
 659:Drivers/STM32L4xx_HAL_Driver/Src/stm32l4xx_hal_uart_ex.c ****   */
 660:Drivers/STM32L4xx_HAL_Driver/Src/stm32l4xx_hal_uart_ex.c **** HAL_StatusTypeDef HAL_UARTEx_SetTxFifoThreshold(UART_HandleTypeDef *huart, uint32_t Threshold)
 661:Drivers/STM32L4xx_HAL_Driver/Src/stm32l4xx_hal_uart_ex.c **** {
 662:Drivers/STM32L4xx_HAL_Driver/Src/stm32l4xx_hal_uart_ex.c ****   uint32_t tmpcr1;
 663:Drivers/STM32L4xx_HAL_Driver/Src/stm32l4xx_hal_uart_ex.c **** 
 664:Drivers/STM32L4xx_HAL_Driver/Src/stm32l4xx_hal_uart_ex.c ****   /* Check parameters */
 665:Drivers/STM32L4xx_HAL_Driver/Src/stm32l4xx_hal_uart_ex.c ****   assert_param(IS_UART_FIFO_INSTANCE(huart->Instance));
 666:Drivers/STM32L4xx_HAL_Driver/Src/stm32l4xx_hal_uart_ex.c ****   assert_param(IS_UART_TXFIFO_THRESHOLD(Threshold));
 667:Drivers/STM32L4xx_HAL_Driver/Src/stm32l4xx_hal_uart_ex.c **** 
 668:Drivers/STM32L4xx_HAL_Driver/Src/stm32l4xx_hal_uart_ex.c ****   /* Process Locked */
 669:Drivers/STM32L4xx_HAL_Driver/Src/stm32l4xx_hal_uart_ex.c ****   __HAL_LOCK(huart);
 670:Drivers/STM32L4xx_HAL_Driver/Src/stm32l4xx_hal_uart_ex.c **** 
 671:Drivers/STM32L4xx_HAL_Driver/Src/stm32l4xx_hal_uart_ex.c ****   huart->gState = HAL_UART_STATE_BUSY;
 672:Drivers/STM32L4xx_HAL_Driver/Src/stm32l4xx_hal_uart_ex.c **** 
 673:Drivers/STM32L4xx_HAL_Driver/Src/stm32l4xx_hal_uart_ex.c ****   /* Save actual UART configuration */
 674:Drivers/STM32L4xx_HAL_Driver/Src/stm32l4xx_hal_uart_ex.c ****   tmpcr1 = READ_REG(huart->Instance->CR1);
 675:Drivers/STM32L4xx_HAL_Driver/Src/stm32l4xx_hal_uart_ex.c **** 
 676:Drivers/STM32L4xx_HAL_Driver/Src/stm32l4xx_hal_uart_ex.c ****   /* Disable UART */
 677:Drivers/STM32L4xx_HAL_Driver/Src/stm32l4xx_hal_uart_ex.c ****   __HAL_UART_DISABLE(huart);
 678:Drivers/STM32L4xx_HAL_Driver/Src/stm32l4xx_hal_uart_ex.c **** 
 679:Drivers/STM32L4xx_HAL_Driver/Src/stm32l4xx_hal_uart_ex.c ****   /* Update TX threshold configuration */
 680:Drivers/STM32L4xx_HAL_Driver/Src/stm32l4xx_hal_uart_ex.c ****   MODIFY_REG(huart->Instance->CR3, USART_CR3_TXFTCFG, Threshold);
 681:Drivers/STM32L4xx_HAL_Driver/Src/stm32l4xx_hal_uart_ex.c **** 
 682:Drivers/STM32L4xx_HAL_Driver/Src/stm32l4xx_hal_uart_ex.c ****   /* Determine the number of data to process during RX/TX ISR execution */
 683:Drivers/STM32L4xx_HAL_Driver/Src/stm32l4xx_hal_uart_ex.c ****   UARTEx_SetNbDataToProcess(huart);
 684:Drivers/STM32L4xx_HAL_Driver/Src/stm32l4xx_hal_uart_ex.c **** 
 685:Drivers/STM32L4xx_HAL_Driver/Src/stm32l4xx_hal_uart_ex.c ****   /* Restore UART configuration */
 686:Drivers/STM32L4xx_HAL_Driver/Src/stm32l4xx_hal_uart_ex.c ****   WRITE_REG(huart->Instance->CR1, tmpcr1);
 687:Drivers/STM32L4xx_HAL_Driver/Src/stm32l4xx_hal_uart_ex.c **** 
 688:Drivers/STM32L4xx_HAL_Driver/Src/stm32l4xx_hal_uart_ex.c ****   huart->gState = HAL_UART_STATE_READY;
 689:Drivers/STM32L4xx_HAL_Driver/Src/stm32l4xx_hal_uart_ex.c **** 
 690:Drivers/STM32L4xx_HAL_Driver/Src/stm32l4xx_hal_uart_ex.c ****   /* Process Unlocked */
 691:Drivers/STM32L4xx_HAL_Driver/Src/stm32l4xx_hal_uart_ex.c ****   __HAL_UNLOCK(huart);
 692:Drivers/STM32L4xx_HAL_Driver/Src/stm32l4xx_hal_uart_ex.c **** 
 693:Drivers/STM32L4xx_HAL_Driver/Src/stm32l4xx_hal_uart_ex.c ****   return HAL_OK;
 694:Drivers/STM32L4xx_HAL_Driver/Src/stm32l4xx_hal_uart_ex.c **** }
 695:Drivers/STM32L4xx_HAL_Driver/Src/stm32l4xx_hal_uart_ex.c **** 
 696:Drivers/STM32L4xx_HAL_Driver/Src/stm32l4xx_hal_uart_ex.c **** /**
 697:Drivers/STM32L4xx_HAL_Driver/Src/stm32l4xx_hal_uart_ex.c ****   * @brief  Set the RXFIFO threshold.
 698:Drivers/STM32L4xx_HAL_Driver/Src/stm32l4xx_hal_uart_ex.c ****   * @param huart      UART handle.
 699:Drivers/STM32L4xx_HAL_Driver/Src/stm32l4xx_hal_uart_ex.c ****   * @param Threshold  RX FIFO threshold value
 700:Drivers/STM32L4xx_HAL_Driver/Src/stm32l4xx_hal_uart_ex.c ****   *          This parameter can be one of the following values:
 701:Drivers/STM32L4xx_HAL_Driver/Src/stm32l4xx_hal_uart_ex.c ****   *            @arg @ref UART_RXFIFO_THRESHOLD_1_8
 702:Drivers/STM32L4xx_HAL_Driver/Src/stm32l4xx_hal_uart_ex.c ****   *            @arg @ref UART_RXFIFO_THRESHOLD_1_4
 703:Drivers/STM32L4xx_HAL_Driver/Src/stm32l4xx_hal_uart_ex.c ****   *            @arg @ref UART_RXFIFO_THRESHOLD_1_2
 704:Drivers/STM32L4xx_HAL_Driver/Src/stm32l4xx_hal_uart_ex.c ****   *            @arg @ref UART_RXFIFO_THRESHOLD_3_4
 705:Drivers/STM32L4xx_HAL_Driver/Src/stm32l4xx_hal_uart_ex.c ****   *            @arg @ref UART_RXFIFO_THRESHOLD_7_8
 706:Drivers/STM32L4xx_HAL_Driver/Src/stm32l4xx_hal_uart_ex.c ****   *            @arg @ref UART_RXFIFO_THRESHOLD_8_8
 707:Drivers/STM32L4xx_HAL_Driver/Src/stm32l4xx_hal_uart_ex.c ****   * @retval HAL status
 708:Drivers/STM32L4xx_HAL_Driver/Src/stm32l4xx_hal_uart_ex.c ****   */
 709:Drivers/STM32L4xx_HAL_Driver/Src/stm32l4xx_hal_uart_ex.c **** HAL_StatusTypeDef HAL_UARTEx_SetRxFifoThreshold(UART_HandleTypeDef *huart, uint32_t Threshold)
 710:Drivers/STM32L4xx_HAL_Driver/Src/stm32l4xx_hal_uart_ex.c **** {
 711:Drivers/STM32L4xx_HAL_Driver/Src/stm32l4xx_hal_uart_ex.c ****   uint32_t tmpcr1;
 712:Drivers/STM32L4xx_HAL_Driver/Src/stm32l4xx_hal_uart_ex.c **** 
 713:Drivers/STM32L4xx_HAL_Driver/Src/stm32l4xx_hal_uart_ex.c ****   /* Check the parameters */
ARM GAS  C:\Users\ep_ygh\AppData\Local\Temp\ccr8O3zb.s 			page 50


 714:Drivers/STM32L4xx_HAL_Driver/Src/stm32l4xx_hal_uart_ex.c ****   assert_param(IS_UART_FIFO_INSTANCE(huart->Instance));
 715:Drivers/STM32L4xx_HAL_Driver/Src/stm32l4xx_hal_uart_ex.c ****   assert_param(IS_UART_RXFIFO_THRESHOLD(Threshold));
 716:Drivers/STM32L4xx_HAL_Driver/Src/stm32l4xx_hal_uart_ex.c **** 
 717:Drivers/STM32L4xx_HAL_Driver/Src/stm32l4xx_hal_uart_ex.c ****   /* Process Locked */
 718:Drivers/STM32L4xx_HAL_Driver/Src/stm32l4xx_hal_uart_ex.c ****   __HAL_LOCK(huart);
 719:Drivers/STM32L4xx_HAL_Driver/Src/stm32l4xx_hal_uart_ex.c **** 
 720:Drivers/STM32L4xx_HAL_Driver/Src/stm32l4xx_hal_uart_ex.c ****   huart->gState = HAL_UART_STATE_BUSY;
 721:Drivers/STM32L4xx_HAL_Driver/Src/stm32l4xx_hal_uart_ex.c **** 
 722:Drivers/STM32L4xx_HAL_Driver/Src/stm32l4xx_hal_uart_ex.c ****   /* Save actual UART configuration */
 723:Drivers/STM32L4xx_HAL_Driver/Src/stm32l4xx_hal_uart_ex.c ****   tmpcr1 = READ_REG(huart->Instance->CR1);
 724:Drivers/STM32L4xx_HAL_Driver/Src/stm32l4xx_hal_uart_ex.c **** 
 725:Drivers/STM32L4xx_HAL_Driver/Src/stm32l4xx_hal_uart_ex.c ****   /* Disable UART */
 726:Drivers/STM32L4xx_HAL_Driver/Src/stm32l4xx_hal_uart_ex.c ****   __HAL_UART_DISABLE(huart);
 727:Drivers/STM32L4xx_HAL_Driver/Src/stm32l4xx_hal_uart_ex.c **** 
 728:Drivers/STM32L4xx_HAL_Driver/Src/stm32l4xx_hal_uart_ex.c ****   /* Update RX threshold configuration */
 729:Drivers/STM32L4xx_HAL_Driver/Src/stm32l4xx_hal_uart_ex.c ****   MODIFY_REG(huart->Instance->CR3, USART_CR3_RXFTCFG, Threshold);
 730:Drivers/STM32L4xx_HAL_Driver/Src/stm32l4xx_hal_uart_ex.c **** 
 731:Drivers/STM32L4xx_HAL_Driver/Src/stm32l4xx_hal_uart_ex.c ****   /* Determine the number of data to process during RX/TX ISR execution */
 732:Drivers/STM32L4xx_HAL_Driver/Src/stm32l4xx_hal_uart_ex.c ****   UARTEx_SetNbDataToProcess(huart);
 733:Drivers/STM32L4xx_HAL_Driver/Src/stm32l4xx_hal_uart_ex.c **** 
 734:Drivers/STM32L4xx_HAL_Driver/Src/stm32l4xx_hal_uart_ex.c ****   /* Restore UART configuration */
 735:Drivers/STM32L4xx_HAL_Driver/Src/stm32l4xx_hal_uart_ex.c ****   WRITE_REG(huart->Instance->CR1, tmpcr1);
 736:Drivers/STM32L4xx_HAL_Driver/Src/stm32l4xx_hal_uart_ex.c **** 
 737:Drivers/STM32L4xx_HAL_Driver/Src/stm32l4xx_hal_uart_ex.c ****   huart->gState = HAL_UART_STATE_READY;
 738:Drivers/STM32L4xx_HAL_Driver/Src/stm32l4xx_hal_uart_ex.c **** 
 739:Drivers/STM32L4xx_HAL_Driver/Src/stm32l4xx_hal_uart_ex.c ****   /* Process Unlocked */
 740:Drivers/STM32L4xx_HAL_Driver/Src/stm32l4xx_hal_uart_ex.c ****   __HAL_UNLOCK(huart);
 741:Drivers/STM32L4xx_HAL_Driver/Src/stm32l4xx_hal_uart_ex.c **** 
 742:Drivers/STM32L4xx_HAL_Driver/Src/stm32l4xx_hal_uart_ex.c ****   return HAL_OK;
 743:Drivers/STM32L4xx_HAL_Driver/Src/stm32l4xx_hal_uart_ex.c **** }
 744:Drivers/STM32L4xx_HAL_Driver/Src/stm32l4xx_hal_uart_ex.c **** 
 745:Drivers/STM32L4xx_HAL_Driver/Src/stm32l4xx_hal_uart_ex.c **** #endif /* USART_CR1_FIFOEN */
 746:Drivers/STM32L4xx_HAL_Driver/Src/stm32l4xx_hal_uart_ex.c **** /**
 747:Drivers/STM32L4xx_HAL_Driver/Src/stm32l4xx_hal_uart_ex.c ****   * @brief Receive an amount of data in blocking mode till either the expected number of data
 748:Drivers/STM32L4xx_HAL_Driver/Src/stm32l4xx_hal_uart_ex.c ****   *        is received or an IDLE event occurs.
 749:Drivers/STM32L4xx_HAL_Driver/Src/stm32l4xx_hal_uart_ex.c ****   * @note  HAL_OK is returned if reception is completed (expected number of data has been received)
 750:Drivers/STM32L4xx_HAL_Driver/Src/stm32l4xx_hal_uart_ex.c ****   *        or if reception is stopped after IDLE event (less than the expected number of data has b
 751:Drivers/STM32L4xx_HAL_Driver/Src/stm32l4xx_hal_uart_ex.c ****   *        In this case, RxLen output parameter indicates number of data available in reception buf
 752:Drivers/STM32L4xx_HAL_Driver/Src/stm32l4xx_hal_uart_ex.c ****   * @note  When UART parity is not enabled (PCE = 0), and Word Length is configured to 9 bits (M1-M
 753:Drivers/STM32L4xx_HAL_Driver/Src/stm32l4xx_hal_uart_ex.c ****   *        the received data is handled as a set of uint16_t. In this case, Size must indicate the 
 754:Drivers/STM32L4xx_HAL_Driver/Src/stm32l4xx_hal_uart_ex.c ****   *        of uint16_t available through pData.
 755:Drivers/STM32L4xx_HAL_Driver/Src/stm32l4xx_hal_uart_ex.c ****   * @note When FIFO mode is enabled, the RXFNE flag is set as long as the RXFIFO
 756:Drivers/STM32L4xx_HAL_Driver/Src/stm32l4xx_hal_uart_ex.c ****   *       is not empty. Read operations from the RDR register are performed when
 757:Drivers/STM32L4xx_HAL_Driver/Src/stm32l4xx_hal_uart_ex.c ****   *       RXFNE flag is set. From hardware perspective, RXFNE flag and
 758:Drivers/STM32L4xx_HAL_Driver/Src/stm32l4xx_hal_uart_ex.c ****   *       RXNE are mapped on the same bit-field.
 759:Drivers/STM32L4xx_HAL_Driver/Src/stm32l4xx_hal_uart_ex.c ****   * @param huart   UART handle.
 760:Drivers/STM32L4xx_HAL_Driver/Src/stm32l4xx_hal_uart_ex.c ****   * @param pData   Pointer to data buffer (uint8_t or uint16_t data elements).
 761:Drivers/STM32L4xx_HAL_Driver/Src/stm32l4xx_hal_uart_ex.c ****   * @param Size    Amount of data elements (uint8_t or uint16_t) to be received.
 762:Drivers/STM32L4xx_HAL_Driver/Src/stm32l4xx_hal_uart_ex.c ****   * @param RxLen   Number of data elements finally received
 763:Drivers/STM32L4xx_HAL_Driver/Src/stm32l4xx_hal_uart_ex.c ****   *                (could be lower than Size, in case reception ends on IDLE event)
 764:Drivers/STM32L4xx_HAL_Driver/Src/stm32l4xx_hal_uart_ex.c ****   * @param Timeout Timeout duration expressed in ms (covers the whole reception sequence).
 765:Drivers/STM32L4xx_HAL_Driver/Src/stm32l4xx_hal_uart_ex.c ****   * @retval HAL status
 766:Drivers/STM32L4xx_HAL_Driver/Src/stm32l4xx_hal_uart_ex.c ****   */
 767:Drivers/STM32L4xx_HAL_Driver/Src/stm32l4xx_hal_uart_ex.c **** HAL_StatusTypeDef HAL_UARTEx_ReceiveToIdle(UART_HandleTypeDef *huart, uint8_t *pData, uint16_t Size
 768:Drivers/STM32L4xx_HAL_Driver/Src/stm32l4xx_hal_uart_ex.c ****                                            uint32_t Timeout)
 769:Drivers/STM32L4xx_HAL_Driver/Src/stm32l4xx_hal_uart_ex.c **** {
 882              		.loc 1 769 1
ARM GAS  C:\Users\ep_ygh\AppData\Local\Temp\ccr8O3zb.s 			page 51


 883              		.cfi_startproc
 884              		@ args = 4, pretend = 0, frame = 32
 885              		@ frame_needed = 1, uses_anonymous_args = 0
 886 0000 80B5     		push	{r7, lr}
 887              	.LCFI45:
 888              		.cfi_def_cfa_offset 8
 889              		.cfi_offset 7, -8
 890              		.cfi_offset 14, -4
 891 0002 88B0     		sub	sp, sp, #32
 892              	.LCFI46:
 893              		.cfi_def_cfa_offset 40
 894 0004 00AF     		add	r7, sp, #0
 895              	.LCFI47:
 896              		.cfi_def_cfa_register 7
 897 0006 F860     		str	r0, [r7, #12]
 898 0008 B960     		str	r1, [r7, #8]
 899 000a 3B60     		str	r3, [r7]
 900 000c 1346     		mov	r3, r2	@ movhi
 901 000e FB80     		strh	r3, [r7, #6]	@ movhi
 770:Drivers/STM32L4xx_HAL_Driver/Src/stm32l4xx_hal_uart_ex.c ****   uint8_t  *pdata8bits;
 771:Drivers/STM32L4xx_HAL_Driver/Src/stm32l4xx_hal_uart_ex.c ****   uint16_t *pdata16bits;
 772:Drivers/STM32L4xx_HAL_Driver/Src/stm32l4xx_hal_uart_ex.c ****   uint16_t uhMask;
 773:Drivers/STM32L4xx_HAL_Driver/Src/stm32l4xx_hal_uart_ex.c ****   uint32_t tickstart;
 774:Drivers/STM32L4xx_HAL_Driver/Src/stm32l4xx_hal_uart_ex.c **** 
 775:Drivers/STM32L4xx_HAL_Driver/Src/stm32l4xx_hal_uart_ex.c ****   /* Check that a Rx process is not already ongoing */
 776:Drivers/STM32L4xx_HAL_Driver/Src/stm32l4xx_hal_uart_ex.c ****   if (huart->RxState == HAL_UART_STATE_READY)
 902              		.loc 1 776 12
 903 0010 FB68     		ldr	r3, [r7, #12]
 904 0012 D3F88030 		ldr	r3, [r3, #128]
 905              		.loc 1 776 6
 906 0016 202B     		cmp	r3, #32
 907 0018 40F0F080 		bne	.L42
 777:Drivers/STM32L4xx_HAL_Driver/Src/stm32l4xx_hal_uart_ex.c ****   {
 778:Drivers/STM32L4xx_HAL_Driver/Src/stm32l4xx_hal_uart_ex.c ****     if ((pData == NULL) || (Size == 0U))
 908              		.loc 1 778 8
 909 001c BB68     		ldr	r3, [r7, #8]
 910 001e 002B     		cmp	r3, #0
 911 0020 02D0     		beq	.L43
 912              		.loc 1 778 25 discriminator 1
 913 0022 FB88     		ldrh	r3, [r7, #6]
 914 0024 002B     		cmp	r3, #0
 915 0026 01D1     		bne	.L44
 916              	.L43:
 779:Drivers/STM32L4xx_HAL_Driver/Src/stm32l4xx_hal_uart_ex.c ****     {
 780:Drivers/STM32L4xx_HAL_Driver/Src/stm32l4xx_hal_uart_ex.c ****       return  HAL_ERROR;
 917              		.loc 1 780 15
 918 0028 0123     		movs	r3, #1
 919 002a E8E0     		b	.L45
 920              	.L44:
 781:Drivers/STM32L4xx_HAL_Driver/Src/stm32l4xx_hal_uart_ex.c ****     }
 782:Drivers/STM32L4xx_HAL_Driver/Src/stm32l4xx_hal_uart_ex.c **** 
 783:Drivers/STM32L4xx_HAL_Driver/Src/stm32l4xx_hal_uart_ex.c ****     huart->ErrorCode = HAL_UART_ERROR_NONE;
 921              		.loc 1 783 22
 922 002c FB68     		ldr	r3, [r7, #12]
 923 002e 0022     		movs	r2, #0
 924 0030 C3F88420 		str	r2, [r3, #132]
 784:Drivers/STM32L4xx_HAL_Driver/Src/stm32l4xx_hal_uart_ex.c ****     huart->RxState = HAL_UART_STATE_BUSY_RX;
ARM GAS  C:\Users\ep_ygh\AppData\Local\Temp\ccr8O3zb.s 			page 52


 925              		.loc 1 784 20
 926 0034 FB68     		ldr	r3, [r7, #12]
 927 0036 2222     		movs	r2, #34
 928 0038 C3F88020 		str	r2, [r3, #128]
 785:Drivers/STM32L4xx_HAL_Driver/Src/stm32l4xx_hal_uart_ex.c ****     huart->ReceptionType = HAL_UART_RECEPTION_TOIDLE;
 929              		.loc 1 785 26
 930 003c FB68     		ldr	r3, [r7, #12]
 931 003e 0122     		movs	r2, #1
 932 0040 1A66     		str	r2, [r3, #96]
 786:Drivers/STM32L4xx_HAL_Driver/Src/stm32l4xx_hal_uart_ex.c ****     huart->RxEventType = HAL_UART_RXEVENT_TC;
 933              		.loc 1 786 24
 934 0042 FB68     		ldr	r3, [r7, #12]
 935 0044 0022     		movs	r2, #0
 936 0046 5A66     		str	r2, [r3, #100]
 787:Drivers/STM32L4xx_HAL_Driver/Src/stm32l4xx_hal_uart_ex.c **** 
 788:Drivers/STM32L4xx_HAL_Driver/Src/stm32l4xx_hal_uart_ex.c ****     /* Init tickstart for timeout management */
 789:Drivers/STM32L4xx_HAL_Driver/Src/stm32l4xx_hal_uart_ex.c ****     tickstart = HAL_GetTick();
 937              		.loc 1 789 17
 938 0048 FFF7FEFF 		bl	HAL_GetTick
 939 004c 7861     		str	r0, [r7, #20]
 790:Drivers/STM32L4xx_HAL_Driver/Src/stm32l4xx_hal_uart_ex.c **** 
 791:Drivers/STM32L4xx_HAL_Driver/Src/stm32l4xx_hal_uart_ex.c ****     huart->RxXferSize  = Size;
 940              		.loc 1 791 24
 941 004e FB68     		ldr	r3, [r7, #12]
 942 0050 FA88     		ldrh	r2, [r7, #6]	@ movhi
 943 0052 A3F85820 		strh	r2, [r3, #88]	@ movhi
 792:Drivers/STM32L4xx_HAL_Driver/Src/stm32l4xx_hal_uart_ex.c ****     huart->RxXferCount = Size;
 944              		.loc 1 792 24
 945 0056 FB68     		ldr	r3, [r7, #12]
 946 0058 FA88     		ldrh	r2, [r7, #6]	@ movhi
 947 005a A3F85A20 		strh	r2, [r3, #90]	@ movhi
 793:Drivers/STM32L4xx_HAL_Driver/Src/stm32l4xx_hal_uart_ex.c **** 
 794:Drivers/STM32L4xx_HAL_Driver/Src/stm32l4xx_hal_uart_ex.c ****     /* Computation of UART mask to apply to RDR register */
 795:Drivers/STM32L4xx_HAL_Driver/Src/stm32l4xx_hal_uart_ex.c ****     UART_MASK_COMPUTATION(huart);
 948              		.loc 1 795 5
 949 005e FB68     		ldr	r3, [r7, #12]
 950 0060 9B68     		ldr	r3, [r3, #8]
 951 0062 B3F5805F 		cmp	r3, #4096
 952 0066 0ED1     		bne	.L46
 953              		.loc 1 795 5 is_stmt 0 discriminator 1
 954 0068 FB68     		ldr	r3, [r7, #12]
 955 006a 1B69     		ldr	r3, [r3, #16]
 956 006c 002B     		cmp	r3, #0
 957 006e 05D1     		bne	.L47
 958              		.loc 1 795 5 discriminator 3
 959 0070 FB68     		ldr	r3, [r7, #12]
 960 0072 40F2FF12 		movw	r2, #511
 961 0076 A3F85C20 		strh	r2, [r3, #92]	@ movhi
 962 007a 2DE0     		b	.L48
 963              	.L47:
 964              		.loc 1 795 5 discriminator 4
 965 007c FB68     		ldr	r3, [r7, #12]
 966 007e FF22     		movs	r2, #255
 967 0080 A3F85C20 		strh	r2, [r3, #92]	@ movhi
 968 0084 28E0     		b	.L48
 969              	.L46:
 970              		.loc 1 795 5 discriminator 2
ARM GAS  C:\Users\ep_ygh\AppData\Local\Temp\ccr8O3zb.s 			page 53


 971 0086 FB68     		ldr	r3, [r7, #12]
 972 0088 9B68     		ldr	r3, [r3, #8]
 973 008a 002B     		cmp	r3, #0
 974 008c 0DD1     		bne	.L49
 975              		.loc 1 795 5 discriminator 5
 976 008e FB68     		ldr	r3, [r7, #12]
 977 0090 1B69     		ldr	r3, [r3, #16]
 978 0092 002B     		cmp	r3, #0
 979 0094 04D1     		bne	.L50
 980              		.loc 1 795 5 discriminator 7
 981 0096 FB68     		ldr	r3, [r7, #12]
 982 0098 FF22     		movs	r2, #255
 983 009a A3F85C20 		strh	r2, [r3, #92]	@ movhi
 984 009e 1BE0     		b	.L48
 985              	.L50:
 986              		.loc 1 795 5 discriminator 8
 987 00a0 FB68     		ldr	r3, [r7, #12]
 988 00a2 7F22     		movs	r2, #127
 989 00a4 A3F85C20 		strh	r2, [r3, #92]	@ movhi
 990 00a8 16E0     		b	.L48
 991              	.L49:
 992              		.loc 1 795 5 discriminator 6
 993 00aa FB68     		ldr	r3, [r7, #12]
 994 00ac 9B68     		ldr	r3, [r3, #8]
 995 00ae B3F1805F 		cmp	r3, #268435456
 996 00b2 0DD1     		bne	.L51
 997              		.loc 1 795 5 discriminator 9
 998 00b4 FB68     		ldr	r3, [r7, #12]
 999 00b6 1B69     		ldr	r3, [r3, #16]
 1000 00b8 002B     		cmp	r3, #0
 1001 00ba 04D1     		bne	.L52
 1002              		.loc 1 795 5 discriminator 11
 1003 00bc FB68     		ldr	r3, [r7, #12]
 1004 00be 7F22     		movs	r2, #127
 1005 00c0 A3F85C20 		strh	r2, [r3, #92]	@ movhi
 1006 00c4 08E0     		b	.L48
 1007              	.L52:
 1008              		.loc 1 795 5 discriminator 12
 1009 00c6 FB68     		ldr	r3, [r7, #12]
 1010 00c8 3F22     		movs	r2, #63
 1011 00ca A3F85C20 		strh	r2, [r3, #92]	@ movhi
 1012 00ce 03E0     		b	.L48
 1013              	.L51:
 1014              		.loc 1 795 5 discriminator 10
 1015 00d0 FB68     		ldr	r3, [r7, #12]
 1016 00d2 0022     		movs	r2, #0
 1017 00d4 A3F85C20 		strh	r2, [r3, #92]	@ movhi
 1018              	.L48:
 796:Drivers/STM32L4xx_HAL_Driver/Src/stm32l4xx_hal_uart_ex.c ****     uhMask = huart->Mask;
 1019              		.loc 1 796 12 is_stmt 1
 1020 00d8 FB68     		ldr	r3, [r7, #12]
 1021 00da B3F85C30 		ldrh	r3, [r3, #92]	@ movhi
 1022 00de 7B82     		strh	r3, [r7, #18]	@ movhi
 797:Drivers/STM32L4xx_HAL_Driver/Src/stm32l4xx_hal_uart_ex.c **** 
 798:Drivers/STM32L4xx_HAL_Driver/Src/stm32l4xx_hal_uart_ex.c ****     /* In case of 9bits/No Parity transfer, pRxData needs to be handled as a uint16_t pointer */
 799:Drivers/STM32L4xx_HAL_Driver/Src/stm32l4xx_hal_uart_ex.c ****     if ((huart->Init.WordLength == UART_WORDLENGTH_9B) && (huart->Init.Parity == UART_PARITY_NONE))
 1023              		.loc 1 799 21
ARM GAS  C:\Users\ep_ygh\AppData\Local\Temp\ccr8O3zb.s 			page 54


 1024 00e0 FB68     		ldr	r3, [r7, #12]
 1025 00e2 9B68     		ldr	r3, [r3, #8]
 1026              		.loc 1 799 8
 1027 00e4 B3F5805F 		cmp	r3, #4096
 1028 00e8 08D1     		bne	.L53
 1029              		.loc 1 799 71 discriminator 1
 1030 00ea FB68     		ldr	r3, [r7, #12]
 1031 00ec 1B69     		ldr	r3, [r3, #16]
 1032              		.loc 1 799 56 discriminator 1
 1033 00ee 002B     		cmp	r3, #0
 1034 00f0 04D1     		bne	.L53
 800:Drivers/STM32L4xx_HAL_Driver/Src/stm32l4xx_hal_uart_ex.c ****     {
 801:Drivers/STM32L4xx_HAL_Driver/Src/stm32l4xx_hal_uart_ex.c ****       pdata8bits  = NULL;
 1035              		.loc 1 801 19
 1036 00f2 0023     		movs	r3, #0
 1037 00f4 FB61     		str	r3, [r7, #28]
 802:Drivers/STM32L4xx_HAL_Driver/Src/stm32l4xx_hal_uart_ex.c ****       pdata16bits = (uint16_t *) pData;
 1038              		.loc 1 802 19
 1039 00f6 BB68     		ldr	r3, [r7, #8]
 1040 00f8 BB61     		str	r3, [r7, #24]
 1041 00fa 03E0     		b	.L54
 1042              	.L53:
 803:Drivers/STM32L4xx_HAL_Driver/Src/stm32l4xx_hal_uart_ex.c ****     }
 804:Drivers/STM32L4xx_HAL_Driver/Src/stm32l4xx_hal_uart_ex.c ****     else
 805:Drivers/STM32L4xx_HAL_Driver/Src/stm32l4xx_hal_uart_ex.c ****     {
 806:Drivers/STM32L4xx_HAL_Driver/Src/stm32l4xx_hal_uart_ex.c ****       pdata8bits  = pData;
 1043              		.loc 1 806 19
 1044 00fc BB68     		ldr	r3, [r7, #8]
 1045 00fe FB61     		str	r3, [r7, #28]
 807:Drivers/STM32L4xx_HAL_Driver/Src/stm32l4xx_hal_uart_ex.c ****       pdata16bits = NULL;
 1046              		.loc 1 807 19
 1047 0100 0023     		movs	r3, #0
 1048 0102 BB61     		str	r3, [r7, #24]
 1049              	.L54:
 808:Drivers/STM32L4xx_HAL_Driver/Src/stm32l4xx_hal_uart_ex.c ****     }
 809:Drivers/STM32L4xx_HAL_Driver/Src/stm32l4xx_hal_uart_ex.c **** 
 810:Drivers/STM32L4xx_HAL_Driver/Src/stm32l4xx_hal_uart_ex.c ****     /* Initialize output number of received elements */
 811:Drivers/STM32L4xx_HAL_Driver/Src/stm32l4xx_hal_uart_ex.c ****     *RxLen = 0U;
 1050              		.loc 1 811 12
 1051 0104 3B68     		ldr	r3, [r7]
 1052 0106 0022     		movs	r2, #0
 1053 0108 1A80     		strh	r2, [r3]	@ movhi
 812:Drivers/STM32L4xx_HAL_Driver/Src/stm32l4xx_hal_uart_ex.c **** 
 813:Drivers/STM32L4xx_HAL_Driver/Src/stm32l4xx_hal_uart_ex.c ****     /* as long as data have to be received */
 814:Drivers/STM32L4xx_HAL_Driver/Src/stm32l4xx_hal_uart_ex.c ****     while (huart->RxXferCount > 0U)
 1054              		.loc 1 814 11
 1055 010a 60E0     		b	.L55
 1056              	.L61:
 815:Drivers/STM32L4xx_HAL_Driver/Src/stm32l4xx_hal_uart_ex.c ****     {
 816:Drivers/STM32L4xx_HAL_Driver/Src/stm32l4xx_hal_uart_ex.c ****       /* Check if IDLE flag is set */
 817:Drivers/STM32L4xx_HAL_Driver/Src/stm32l4xx_hal_uart_ex.c ****       if (__HAL_UART_GET_FLAG(huart, UART_FLAG_IDLE))
 1057              		.loc 1 817 11
 1058 010c FB68     		ldr	r3, [r7, #12]
 1059 010e 1B68     		ldr	r3, [r3]
 1060 0110 DB69     		ldr	r3, [r3, #28]
 1061 0112 03F01003 		and	r3, r3, #16
 1062              		.loc 1 817 10
ARM GAS  C:\Users\ep_ygh\AppData\Local\Temp\ccr8O3zb.s 			page 55


 1063 0116 102B     		cmp	r3, #16
 1064 0118 10D1     		bne	.L56
 818:Drivers/STM32L4xx_HAL_Driver/Src/stm32l4xx_hal_uart_ex.c ****       {
 819:Drivers/STM32L4xx_HAL_Driver/Src/stm32l4xx_hal_uart_ex.c ****         /* Clear IDLE flag in ISR */
 820:Drivers/STM32L4xx_HAL_Driver/Src/stm32l4xx_hal_uart_ex.c ****         __HAL_UART_CLEAR_FLAG(huart, UART_CLEAR_IDLEF);
 1065              		.loc 1 820 9
 1066 011a FB68     		ldr	r3, [r7, #12]
 1067 011c 1B68     		ldr	r3, [r3]
 1068 011e 1022     		movs	r2, #16
 1069 0120 1A62     		str	r2, [r3, #32]
 821:Drivers/STM32L4xx_HAL_Driver/Src/stm32l4xx_hal_uart_ex.c **** 
 822:Drivers/STM32L4xx_HAL_Driver/Src/stm32l4xx_hal_uart_ex.c ****         /* If Set, but no data ever received, clear flag without exiting loop */
 823:Drivers/STM32L4xx_HAL_Driver/Src/stm32l4xx_hal_uart_ex.c ****         /* If Set, and data has already been received, this means Idle Event is valid : End recepti
 824:Drivers/STM32L4xx_HAL_Driver/Src/stm32l4xx_hal_uart_ex.c ****         if (*RxLen > 0U)
 1070              		.loc 1 824 13
 1071 0122 3B68     		ldr	r3, [r7]
 1072 0124 1B88     		ldrh	r3, [r3]
 1073              		.loc 1 824 12
 1074 0126 002B     		cmp	r3, #0
 1075 0128 08D0     		beq	.L56
 825:Drivers/STM32L4xx_HAL_Driver/Src/stm32l4xx_hal_uart_ex.c ****         {
 826:Drivers/STM32L4xx_HAL_Driver/Src/stm32l4xx_hal_uart_ex.c ****           huart->RxEventType = HAL_UART_RXEVENT_IDLE;
 1076              		.loc 1 826 30
 1077 012a FB68     		ldr	r3, [r7, #12]
 1078 012c 0222     		movs	r2, #2
 1079 012e 5A66     		str	r2, [r3, #100]
 827:Drivers/STM32L4xx_HAL_Driver/Src/stm32l4xx_hal_uart_ex.c ****           huart->RxState = HAL_UART_STATE_READY;
 1080              		.loc 1 827 26
 1081 0130 FB68     		ldr	r3, [r7, #12]
 1082 0132 2022     		movs	r2, #32
 1083 0134 C3F88020 		str	r2, [r3, #128]
 828:Drivers/STM32L4xx_HAL_Driver/Src/stm32l4xx_hal_uart_ex.c **** 
 829:Drivers/STM32L4xx_HAL_Driver/Src/stm32l4xx_hal_uart_ex.c ****           return HAL_OK;
 1084              		.loc 1 829 18
 1085 0138 0023     		movs	r3, #0
 1086 013a 60E0     		b	.L45
 1087              	.L56:
 830:Drivers/STM32L4xx_HAL_Driver/Src/stm32l4xx_hal_uart_ex.c ****         }
 831:Drivers/STM32L4xx_HAL_Driver/Src/stm32l4xx_hal_uart_ex.c ****       }
 832:Drivers/STM32L4xx_HAL_Driver/Src/stm32l4xx_hal_uart_ex.c **** 
 833:Drivers/STM32L4xx_HAL_Driver/Src/stm32l4xx_hal_uart_ex.c ****       /* Check if RXNE flag is set */
 834:Drivers/STM32L4xx_HAL_Driver/Src/stm32l4xx_hal_uart_ex.c ****       if (__HAL_UART_GET_FLAG(huart, UART_FLAG_RXNE))
 1088              		.loc 1 834 11
 1089 013c FB68     		ldr	r3, [r7, #12]
 1090 013e 1B68     		ldr	r3, [r3]
 1091 0140 DB69     		ldr	r3, [r3, #28]
 1092 0142 03F02003 		and	r3, r3, #32
 1093              		.loc 1 834 10
 1094 0146 202B     		cmp	r3, #32
 1095 0148 2CD1     		bne	.L57
 835:Drivers/STM32L4xx_HAL_Driver/Src/stm32l4xx_hal_uart_ex.c ****       {
 836:Drivers/STM32L4xx_HAL_Driver/Src/stm32l4xx_hal_uart_ex.c ****         if (pdata8bits == NULL)
 1096              		.loc 1 836 12
 1097 014a FB69     		ldr	r3, [r7, #28]
 1098 014c 002B     		cmp	r3, #0
 1099 014e 0CD1     		bne	.L58
 837:Drivers/STM32L4xx_HAL_Driver/Src/stm32l4xx_hal_uart_ex.c ****         {
ARM GAS  C:\Users\ep_ygh\AppData\Local\Temp\ccr8O3zb.s 			page 56


 838:Drivers/STM32L4xx_HAL_Driver/Src/stm32l4xx_hal_uart_ex.c ****           *pdata16bits = (uint16_t)(huart->Instance->RDR & uhMask);
 1100              		.loc 1 838 42
 1101 0150 FB68     		ldr	r3, [r7, #12]
 1102 0152 1B68     		ldr	r3, [r3]
 1103              		.loc 1 838 52
 1104 0154 9B8C     		ldrh	r3, [r3, #36]	@ movhi
 1105 0156 9AB2     		uxth	r2, r3
 1106              		.loc 1 838 26
 1107 0158 7B8A     		ldrh	r3, [r7, #18]	@ movhi
 1108 015a 1340     		ands	r3, r3, r2
 1109 015c 9AB2     		uxth	r2, r3
 1110              		.loc 1 838 24
 1111 015e BB69     		ldr	r3, [r7, #24]
 1112 0160 1A80     		strh	r2, [r3]	@ movhi
 839:Drivers/STM32L4xx_HAL_Driver/Src/stm32l4xx_hal_uart_ex.c ****           pdata16bits++;
 1113              		.loc 1 839 22
 1114 0162 BB69     		ldr	r3, [r7, #24]
 1115 0164 0233     		adds	r3, r3, #2
 1116 0166 BB61     		str	r3, [r7, #24]
 1117 0168 0DE0     		b	.L59
 1118              	.L58:
 840:Drivers/STM32L4xx_HAL_Driver/Src/stm32l4xx_hal_uart_ex.c ****         }
 841:Drivers/STM32L4xx_HAL_Driver/Src/stm32l4xx_hal_uart_ex.c ****         else
 842:Drivers/STM32L4xx_HAL_Driver/Src/stm32l4xx_hal_uart_ex.c ****         {
 843:Drivers/STM32L4xx_HAL_Driver/Src/stm32l4xx_hal_uart_ex.c ****           *pdata8bits = (uint8_t)(huart->Instance->RDR & (uint8_t)uhMask);
 1119              		.loc 1 843 40
 1120 016a FB68     		ldr	r3, [r7, #12]
 1121 016c 1B68     		ldr	r3, [r3]
 1122              		.loc 1 843 50
 1123 016e 9B8C     		ldrh	r3, [r3, #36]	@ movhi
 1124 0170 9BB2     		uxth	r3, r3
 1125              		.loc 1 843 25
 1126 0172 DAB2     		uxtb	r2, r3
 1127              		.loc 1 843 58
 1128 0174 7B8A     		ldrh	r3, [r7, #18]	@ movhi
 1129 0176 DBB2     		uxtb	r3, r3
 1130              		.loc 1 843 25
 1131 0178 1340     		ands	r3, r3, r2
 1132 017a DAB2     		uxtb	r2, r3
 1133              		.loc 1 843 23
 1134 017c FB69     		ldr	r3, [r7, #28]
 1135 017e 1A70     		strb	r2, [r3]
 844:Drivers/STM32L4xx_HAL_Driver/Src/stm32l4xx_hal_uart_ex.c ****           pdata8bits++;
 1136              		.loc 1 844 21
 1137 0180 FB69     		ldr	r3, [r7, #28]
 1138 0182 0133     		adds	r3, r3, #1
 1139 0184 FB61     		str	r3, [r7, #28]
 1140              	.L59:
 845:Drivers/STM32L4xx_HAL_Driver/Src/stm32l4xx_hal_uart_ex.c ****         }
 846:Drivers/STM32L4xx_HAL_Driver/Src/stm32l4xx_hal_uart_ex.c ****         /* Increment number of received elements */
 847:Drivers/STM32L4xx_HAL_Driver/Src/stm32l4xx_hal_uart_ex.c ****         *RxLen += 1U;
 1141              		.loc 1 847 16
 1142 0186 3B68     		ldr	r3, [r7]
 1143 0188 1B88     		ldrh	r3, [r3]
 1144 018a 0133     		adds	r3, r3, #1
 1145 018c 9AB2     		uxth	r2, r3
 1146 018e 3B68     		ldr	r3, [r7]
ARM GAS  C:\Users\ep_ygh\AppData\Local\Temp\ccr8O3zb.s 			page 57


 1147 0190 1A80     		strh	r2, [r3]	@ movhi
 848:Drivers/STM32L4xx_HAL_Driver/Src/stm32l4xx_hal_uart_ex.c ****         huart->RxXferCount--;
 1148              		.loc 1 848 14
 1149 0192 FB68     		ldr	r3, [r7, #12]
 1150 0194 B3F85A30 		ldrh	r3, [r3, #90]	@ movhi
 1151 0198 9BB2     		uxth	r3, r3
 1152              		.loc 1 848 27
 1153 019a 013B     		subs	r3, r3, #1
 1154 019c 9AB2     		uxth	r2, r3
 1155 019e FB68     		ldr	r3, [r7, #12]
 1156 01a0 A3F85A20 		strh	r2, [r3, #90]	@ movhi
 1157              	.L57:
 849:Drivers/STM32L4xx_HAL_Driver/Src/stm32l4xx_hal_uart_ex.c ****       }
 850:Drivers/STM32L4xx_HAL_Driver/Src/stm32l4xx_hal_uart_ex.c **** 
 851:Drivers/STM32L4xx_HAL_Driver/Src/stm32l4xx_hal_uart_ex.c ****       /* Check for the Timeout */
 852:Drivers/STM32L4xx_HAL_Driver/Src/stm32l4xx_hal_uart_ex.c ****       if (Timeout != HAL_MAX_DELAY)
 1158              		.loc 1 852 10
 1159 01a4 BB6A     		ldr	r3, [r7, #40]
 1160 01a6 B3F1FF3F 		cmp	r3, #-1
 1161 01aa 10D0     		beq	.L55
 853:Drivers/STM32L4xx_HAL_Driver/Src/stm32l4xx_hal_uart_ex.c ****       {
 854:Drivers/STM32L4xx_HAL_Driver/Src/stm32l4xx_hal_uart_ex.c ****         if (((HAL_GetTick() - tickstart) > Timeout) || (Timeout == 0U))
 1162              		.loc 1 854 15
 1163 01ac FFF7FEFF 		bl	HAL_GetTick
 1164 01b0 0246     		mov	r2, r0
 1165              		.loc 1 854 29
 1166 01b2 7B69     		ldr	r3, [r7, #20]
 1167 01b4 D31A     		subs	r3, r2, r3
 1168              		.loc 1 854 12
 1169 01b6 BA6A     		ldr	r2, [r7, #40]
 1170 01b8 9A42     		cmp	r2, r3
 1171 01ba 02D3     		bcc	.L60
 1172              		.loc 1 854 53 discriminator 1
 1173 01bc BB6A     		ldr	r3, [r7, #40]
 1174 01be 002B     		cmp	r3, #0
 1175 01c0 05D1     		bne	.L55
 1176              	.L60:
 855:Drivers/STM32L4xx_HAL_Driver/Src/stm32l4xx_hal_uart_ex.c ****         {
 856:Drivers/STM32L4xx_HAL_Driver/Src/stm32l4xx_hal_uart_ex.c ****           huart->RxState = HAL_UART_STATE_READY;
 1177              		.loc 1 856 26
 1178 01c2 FB68     		ldr	r3, [r7, #12]
 1179 01c4 2022     		movs	r2, #32
 1180 01c6 C3F88020 		str	r2, [r3, #128]
 857:Drivers/STM32L4xx_HAL_Driver/Src/stm32l4xx_hal_uart_ex.c **** 
 858:Drivers/STM32L4xx_HAL_Driver/Src/stm32l4xx_hal_uart_ex.c ****           return HAL_TIMEOUT;
 1181              		.loc 1 858 18
 1182 01ca 0323     		movs	r3, #3
 1183 01cc 17E0     		b	.L45
 1184              	.L55:
 814:Drivers/STM32L4xx_HAL_Driver/Src/stm32l4xx_hal_uart_ex.c ****     {
 1185              		.loc 1 814 17
 1186 01ce FB68     		ldr	r3, [r7, #12]
 1187 01d0 B3F85A30 		ldrh	r3, [r3, #90]	@ movhi
 1188 01d4 9BB2     		uxth	r3, r3
 814:Drivers/STM32L4xx_HAL_Driver/Src/stm32l4xx_hal_uart_ex.c ****     {
 1189              		.loc 1 814 11
 1190 01d6 002B     		cmp	r3, #0
ARM GAS  C:\Users\ep_ygh\AppData\Local\Temp\ccr8O3zb.s 			page 58


 1191 01d8 98D1     		bne	.L61
 859:Drivers/STM32L4xx_HAL_Driver/Src/stm32l4xx_hal_uart_ex.c ****         }
 860:Drivers/STM32L4xx_HAL_Driver/Src/stm32l4xx_hal_uart_ex.c ****       }
 861:Drivers/STM32L4xx_HAL_Driver/Src/stm32l4xx_hal_uart_ex.c ****     }
 862:Drivers/STM32L4xx_HAL_Driver/Src/stm32l4xx_hal_uart_ex.c **** 
 863:Drivers/STM32L4xx_HAL_Driver/Src/stm32l4xx_hal_uart_ex.c ****     /* Set number of received elements in output parameter : RxLen */
 864:Drivers/STM32L4xx_HAL_Driver/Src/stm32l4xx_hal_uart_ex.c ****     *RxLen = huart->RxXferSize - huart->RxXferCount;
 1192              		.loc 1 864 19
 1193 01da FB68     		ldr	r3, [r7, #12]
 1194 01dc B3F85820 		ldrh	r2, [r3, #88]
 1195              		.loc 1 864 39
 1196 01e0 FB68     		ldr	r3, [r7, #12]
 1197 01e2 B3F85A30 		ldrh	r3, [r3, #90]	@ movhi
 1198 01e6 9BB2     		uxth	r3, r3
 1199              		.loc 1 864 32
 1200 01e8 D31A     		subs	r3, r2, r3
 1201 01ea 9AB2     		uxth	r2, r3
 1202              		.loc 1 864 12
 1203 01ec 3B68     		ldr	r3, [r7]
 1204 01ee 1A80     		strh	r2, [r3]	@ movhi
 865:Drivers/STM32L4xx_HAL_Driver/Src/stm32l4xx_hal_uart_ex.c ****     /* At end of Rx process, restore huart->RxState to Ready */
 866:Drivers/STM32L4xx_HAL_Driver/Src/stm32l4xx_hal_uart_ex.c ****     huart->RxState = HAL_UART_STATE_READY;
 1205              		.loc 1 866 20
 1206 01f0 FB68     		ldr	r3, [r7, #12]
 1207 01f2 2022     		movs	r2, #32
 1208 01f4 C3F88020 		str	r2, [r3, #128]
 867:Drivers/STM32L4xx_HAL_Driver/Src/stm32l4xx_hal_uart_ex.c **** 
 868:Drivers/STM32L4xx_HAL_Driver/Src/stm32l4xx_hal_uart_ex.c ****     return HAL_OK;
 1209              		.loc 1 868 12
 1210 01f8 0023     		movs	r3, #0
 1211 01fa 00E0     		b	.L45
 1212              	.L42:
 869:Drivers/STM32L4xx_HAL_Driver/Src/stm32l4xx_hal_uart_ex.c ****   }
 870:Drivers/STM32L4xx_HAL_Driver/Src/stm32l4xx_hal_uart_ex.c ****   else
 871:Drivers/STM32L4xx_HAL_Driver/Src/stm32l4xx_hal_uart_ex.c ****   {
 872:Drivers/STM32L4xx_HAL_Driver/Src/stm32l4xx_hal_uart_ex.c ****     return HAL_BUSY;
 1213              		.loc 1 872 12
 1214 01fc 0223     		movs	r3, #2
 1215              	.L45:
 873:Drivers/STM32L4xx_HAL_Driver/Src/stm32l4xx_hal_uart_ex.c ****   }
 874:Drivers/STM32L4xx_HAL_Driver/Src/stm32l4xx_hal_uart_ex.c **** }
 1216              		.loc 1 874 1
 1217 01fe 1846     		mov	r0, r3
 1218 0200 2037     		adds	r7, r7, #32
 1219              	.LCFI48:
 1220              		.cfi_def_cfa_offset 8
 1221 0202 BD46     		mov	sp, r7
 1222              	.LCFI49:
 1223              		.cfi_def_cfa_register 13
 1224              		@ sp needed
 1225 0204 80BD     		pop	{r7, pc}
 1226              		.cfi_endproc
 1227              	.LFE325:
 1229              		.section	.text.HAL_UARTEx_ReceiveToIdle_IT,"ax",%progbits
 1230              		.align	1
 1231              		.global	HAL_UARTEx_ReceiveToIdle_IT
 1232              		.syntax unified
ARM GAS  C:\Users\ep_ygh\AppData\Local\Temp\ccr8O3zb.s 			page 59


 1233              		.thumb
 1234              		.thumb_func
 1236              	HAL_UARTEx_ReceiveToIdle_IT:
 1237              	.LFB326:
 875:Drivers/STM32L4xx_HAL_Driver/Src/stm32l4xx_hal_uart_ex.c **** 
 876:Drivers/STM32L4xx_HAL_Driver/Src/stm32l4xx_hal_uart_ex.c **** /**
 877:Drivers/STM32L4xx_HAL_Driver/Src/stm32l4xx_hal_uart_ex.c ****   * @brief Receive an amount of data in interrupt mode till either the expected number of data
 878:Drivers/STM32L4xx_HAL_Driver/Src/stm32l4xx_hal_uart_ex.c ****   *        is received or an IDLE event occurs.
 879:Drivers/STM32L4xx_HAL_Driver/Src/stm32l4xx_hal_uart_ex.c ****   * @note  Reception is initiated by this function call. Further progress of reception is achieved 
 880:Drivers/STM32L4xx_HAL_Driver/Src/stm32l4xx_hal_uart_ex.c ****   *        to UART interrupts raised by RXNE and IDLE events. Callback is called at end of receptio
 881:Drivers/STM32L4xx_HAL_Driver/Src/stm32l4xx_hal_uart_ex.c ****   *        number of received data elements.
 882:Drivers/STM32L4xx_HAL_Driver/Src/stm32l4xx_hal_uart_ex.c ****   * @note  When UART parity is not enabled (PCE = 0), and Word Length is configured to 9 bits (M1-M
 883:Drivers/STM32L4xx_HAL_Driver/Src/stm32l4xx_hal_uart_ex.c ****   *        the received data is handled as a set of uint16_t. In this case, Size must indicate the 
 884:Drivers/STM32L4xx_HAL_Driver/Src/stm32l4xx_hal_uart_ex.c ****   *        of uint16_t available through pData.
 885:Drivers/STM32L4xx_HAL_Driver/Src/stm32l4xx_hal_uart_ex.c ****   * @param huart UART handle.
 886:Drivers/STM32L4xx_HAL_Driver/Src/stm32l4xx_hal_uart_ex.c ****   * @param pData Pointer to data buffer (uint8_t or uint16_t data elements).
 887:Drivers/STM32L4xx_HAL_Driver/Src/stm32l4xx_hal_uart_ex.c ****   * @param Size  Amount of data elements (uint8_t or uint16_t) to be received.
 888:Drivers/STM32L4xx_HAL_Driver/Src/stm32l4xx_hal_uart_ex.c ****   * @retval HAL status
 889:Drivers/STM32L4xx_HAL_Driver/Src/stm32l4xx_hal_uart_ex.c ****   */
 890:Drivers/STM32L4xx_HAL_Driver/Src/stm32l4xx_hal_uart_ex.c **** HAL_StatusTypeDef HAL_UARTEx_ReceiveToIdle_IT(UART_HandleTypeDef *huart, uint8_t *pData, uint16_t S
 891:Drivers/STM32L4xx_HAL_Driver/Src/stm32l4xx_hal_uart_ex.c **** {
 1238              		.loc 1 891 1
 1239              		.cfi_startproc
 1240              		@ args = 0, pretend = 0, frame = 48
 1241              		@ frame_needed = 1, uses_anonymous_args = 0
 1242 0000 80B5     		push	{r7, lr}
 1243              	.LCFI50:
 1244              		.cfi_def_cfa_offset 8
 1245              		.cfi_offset 7, -8
 1246              		.cfi_offset 14, -4
 1247 0002 8CB0     		sub	sp, sp, #48
 1248              	.LCFI51:
 1249              		.cfi_def_cfa_offset 56
 1250 0004 00AF     		add	r7, sp, #0
 1251              	.LCFI52:
 1252              		.cfi_def_cfa_register 7
 1253 0006 F860     		str	r0, [r7, #12]
 1254 0008 B960     		str	r1, [r7, #8]
 1255 000a 1346     		mov	r3, r2
 1256 000c FB80     		strh	r3, [r7, #6]	@ movhi
 892:Drivers/STM32L4xx_HAL_Driver/Src/stm32l4xx_hal_uart_ex.c ****   HAL_StatusTypeDef status = HAL_OK;
 1257              		.loc 1 892 21
 1258 000e 0023     		movs	r3, #0
 1259 0010 87F82F30 		strb	r3, [r7, #47]
 893:Drivers/STM32L4xx_HAL_Driver/Src/stm32l4xx_hal_uart_ex.c **** 
 894:Drivers/STM32L4xx_HAL_Driver/Src/stm32l4xx_hal_uart_ex.c ****   /* Check that a Rx process is not already ongoing */
 895:Drivers/STM32L4xx_HAL_Driver/Src/stm32l4xx_hal_uart_ex.c ****   if (huart->RxState == HAL_UART_STATE_READY)
 1260              		.loc 1 895 12
 1261 0014 FB68     		ldr	r3, [r7, #12]
 1262 0016 D3F88030 		ldr	r3, [r3, #128]
 1263              		.loc 1 895 6
 1264 001a 202B     		cmp	r3, #32
 1265 001c 3BD1     		bne	.L63
 896:Drivers/STM32L4xx_HAL_Driver/Src/stm32l4xx_hal_uart_ex.c ****   {
 897:Drivers/STM32L4xx_HAL_Driver/Src/stm32l4xx_hal_uart_ex.c ****     if ((pData == NULL) || (Size == 0U))
 1266              		.loc 1 897 8
 1267 001e BB68     		ldr	r3, [r7, #8]
ARM GAS  C:\Users\ep_ygh\AppData\Local\Temp\ccr8O3zb.s 			page 60


 1268 0020 002B     		cmp	r3, #0
 1269 0022 02D0     		beq	.L64
 1270              		.loc 1 897 25 discriminator 1
 1271 0024 FB88     		ldrh	r3, [r7, #6]
 1272 0026 002B     		cmp	r3, #0
 1273 0028 01D1     		bne	.L65
 1274              	.L64:
 898:Drivers/STM32L4xx_HAL_Driver/Src/stm32l4xx_hal_uart_ex.c ****     {
 899:Drivers/STM32L4xx_HAL_Driver/Src/stm32l4xx_hal_uart_ex.c ****       return HAL_ERROR;
 1275              		.loc 1 899 14
 1276 002a 0123     		movs	r3, #1
 1277 002c 34E0     		b	.L66
 1278              	.L65:
 900:Drivers/STM32L4xx_HAL_Driver/Src/stm32l4xx_hal_uart_ex.c ****     }
 901:Drivers/STM32L4xx_HAL_Driver/Src/stm32l4xx_hal_uart_ex.c **** 
 902:Drivers/STM32L4xx_HAL_Driver/Src/stm32l4xx_hal_uart_ex.c ****     /* Set Reception type to reception till IDLE Event*/
 903:Drivers/STM32L4xx_HAL_Driver/Src/stm32l4xx_hal_uart_ex.c ****     huart->ReceptionType = HAL_UART_RECEPTION_TOIDLE;
 1279              		.loc 1 903 26
 1280 002e FB68     		ldr	r3, [r7, #12]
 1281 0030 0122     		movs	r2, #1
 1282 0032 1A66     		str	r2, [r3, #96]
 904:Drivers/STM32L4xx_HAL_Driver/Src/stm32l4xx_hal_uart_ex.c ****     huart->RxEventType = HAL_UART_RXEVENT_TC;
 1283              		.loc 1 904 24
 1284 0034 FB68     		ldr	r3, [r7, #12]
 1285 0036 0022     		movs	r2, #0
 1286 0038 5A66     		str	r2, [r3, #100]
 905:Drivers/STM32L4xx_HAL_Driver/Src/stm32l4xx_hal_uart_ex.c **** 
 906:Drivers/STM32L4xx_HAL_Driver/Src/stm32l4xx_hal_uart_ex.c ****     (void)UART_Start_Receive_IT(huart, pData, Size);
 1287              		.loc 1 906 11
 1288 003a FB88     		ldrh	r3, [r7, #6]
 1289 003c 1A46     		mov	r2, r3
 1290 003e B968     		ldr	r1, [r7, #8]
 1291 0040 F868     		ldr	r0, [r7, #12]
 1292 0042 FFF7FEFF 		bl	UART_Start_Receive_IT
 907:Drivers/STM32L4xx_HAL_Driver/Src/stm32l4xx_hal_uart_ex.c **** 
 908:Drivers/STM32L4xx_HAL_Driver/Src/stm32l4xx_hal_uart_ex.c ****     if (huart->ReceptionType == HAL_UART_RECEPTION_TOIDLE)
 1293              		.loc 1 908 14
 1294 0046 FB68     		ldr	r3, [r7, #12]
 1295 0048 1B6E     		ldr	r3, [r3, #96]
 1296              		.loc 1 908 8
 1297 004a 012B     		cmp	r3, #1
 1298 004c 1DD1     		bne	.L67
 909:Drivers/STM32L4xx_HAL_Driver/Src/stm32l4xx_hal_uart_ex.c ****     {
 910:Drivers/STM32L4xx_HAL_Driver/Src/stm32l4xx_hal_uart_ex.c ****       __HAL_UART_CLEAR_FLAG(huart, UART_CLEAR_IDLEF);
 1299              		.loc 1 910 7
 1300 004e FB68     		ldr	r3, [r7, #12]
 1301 0050 1B68     		ldr	r3, [r3]
 1302 0052 1022     		movs	r2, #16
 1303 0054 1A62     		str	r2, [r3, #32]
 1304              	.L70:
 1305              	.LBB52:
 911:Drivers/STM32L4xx_HAL_Driver/Src/stm32l4xx_hal_uart_ex.c ****       ATOMIC_SET_BIT(huart->Instance->CR1, USART_CR1_IDLEIE);
 1306              		.loc 1 911 7 discriminator 1
 1307 0056 FB68     		ldr	r3, [r7, #12]
 1308 0058 1B68     		ldr	r3, [r3]
 1309 005a BB61     		str	r3, [r7, #24]
 1310              	.LBB53:
ARM GAS  C:\Users\ep_ygh\AppData\Local\Temp\ccr8O3zb.s 			page 61


 1311              	.LBB54:
1155:Drivers/CMSIS/Include/cmsis_gcc.h ****    return(result);
 1312              		.loc 2 1155 4 discriminator 1
 1313 005c BB69     		ldr	r3, [r7, #24]
 1314              		.syntax unified
 1315              	@ 1155 "Drivers/CMSIS/Include/cmsis_gcc.h" 1
 1316 005e 53E8003F 		ldrex r3, [r3]
 1317              	@ 0 "" 2
 1318              		.thumb
 1319              		.syntax unified
 1320 0062 7B61     		str	r3, [r7, #20]
1156:Drivers/CMSIS/Include/cmsis_gcc.h **** }
 1321              		.loc 2 1156 10 discriminator 1
 1322 0064 7B69     		ldr	r3, [r7, #20]
 1323              	.LBE54:
 1324              	.LBE53:
 1325              		.loc 1 911 7 discriminator 1
 1326 0066 43F01003 		orr	r3, r3, #16
 1327 006a BB62     		str	r3, [r7, #40]
 1328 006c FB68     		ldr	r3, [r7, #12]
 1329 006e 1B68     		ldr	r3, [r3]
 1330 0070 1A46     		mov	r2, r3
 1331 0072 BB6A     		ldr	r3, [r7, #40]
 1332 0074 7B62     		str	r3, [r7, #36]
 1333 0076 3A62     		str	r2, [r7, #32]
 1334              	.LBB55:
 1335              	.LBB56:
1206:Drivers/CMSIS/Include/cmsis_gcc.h ****    return(result);
 1336              		.loc 2 1206 4 discriminator 1
 1337 0078 396A     		ldr	r1, [r7, #32]
 1338 007a 7A6A     		ldr	r2, [r7, #36]
 1339              		.syntax unified
 1340              	@ 1206 "Drivers/CMSIS/Include/cmsis_gcc.h" 1
 1341 007c 41E80023 		strex r3, r2, [r1]
 1342              	@ 0 "" 2
 1343              		.thumb
 1344              		.syntax unified
 1345 0080 FB61     		str	r3, [r7, #28]
 1346              		.loc 2 1207 10 discriminator 1
 1347 0082 FB69     		ldr	r3, [r7, #28]
 1348              	.LBE56:
 1349              	.LBE55:
 1350              		.loc 1 911 7 discriminator 1
 1351 0084 002B     		cmp	r3, #0
 1352 0086 E6D1     		bne	.L70
 1353 0088 02E0     		b	.L71
 1354              	.L67:
 1355              	.LBE52:
 912:Drivers/STM32L4xx_HAL_Driver/Src/stm32l4xx_hal_uart_ex.c ****     }
 913:Drivers/STM32L4xx_HAL_Driver/Src/stm32l4xx_hal_uart_ex.c ****     else
 914:Drivers/STM32L4xx_HAL_Driver/Src/stm32l4xx_hal_uart_ex.c ****     {
 915:Drivers/STM32L4xx_HAL_Driver/Src/stm32l4xx_hal_uart_ex.c ****       /* In case of errors already pending when reception is started,
 916:Drivers/STM32L4xx_HAL_Driver/Src/stm32l4xx_hal_uart_ex.c ****          Interrupts may have already been raised and lead to reception abortion.
 917:Drivers/STM32L4xx_HAL_Driver/Src/stm32l4xx_hal_uart_ex.c ****          (Overrun error for instance).
 918:Drivers/STM32L4xx_HAL_Driver/Src/stm32l4xx_hal_uart_ex.c ****          In such case Reception Type has been reset to HAL_UART_RECEPTION_STANDARD. */
 919:Drivers/STM32L4xx_HAL_Driver/Src/stm32l4xx_hal_uart_ex.c ****       status = HAL_ERROR;
 1356              		.loc 1 919 14
ARM GAS  C:\Users\ep_ygh\AppData\Local\Temp\ccr8O3zb.s 			page 62


 1357 008a 0123     		movs	r3, #1
 1358 008c 87F82F30 		strb	r3, [r7, #47]
 1359              	.L71:
 920:Drivers/STM32L4xx_HAL_Driver/Src/stm32l4xx_hal_uart_ex.c ****     }
 921:Drivers/STM32L4xx_HAL_Driver/Src/stm32l4xx_hal_uart_ex.c **** 
 922:Drivers/STM32L4xx_HAL_Driver/Src/stm32l4xx_hal_uart_ex.c ****     return status;
 1360              		.loc 1 922 12
 1361 0090 97F82F30 		ldrb	r3, [r7, #47]	@ zero_extendqisi2
 1362 0094 00E0     		b	.L66
 1363              	.L63:
 923:Drivers/STM32L4xx_HAL_Driver/Src/stm32l4xx_hal_uart_ex.c ****   }
 924:Drivers/STM32L4xx_HAL_Driver/Src/stm32l4xx_hal_uart_ex.c ****   else
 925:Drivers/STM32L4xx_HAL_Driver/Src/stm32l4xx_hal_uart_ex.c ****   {
 926:Drivers/STM32L4xx_HAL_Driver/Src/stm32l4xx_hal_uart_ex.c ****     return HAL_BUSY;
 1364              		.loc 1 926 12
 1365 0096 0223     		movs	r3, #2
 1366              	.L66:
 927:Drivers/STM32L4xx_HAL_Driver/Src/stm32l4xx_hal_uart_ex.c ****   }
 928:Drivers/STM32L4xx_HAL_Driver/Src/stm32l4xx_hal_uart_ex.c **** }
 1367              		.loc 1 928 1
 1368 0098 1846     		mov	r0, r3
 1369 009a 3037     		adds	r7, r7, #48
 1370              	.LCFI53:
 1371              		.cfi_def_cfa_offset 8
 1372 009c BD46     		mov	sp, r7
 1373              	.LCFI54:
 1374              		.cfi_def_cfa_register 13
 1375              		@ sp needed
 1376 009e 80BD     		pop	{r7, pc}
 1377              		.cfi_endproc
 1378              	.LFE326:
 1380              		.section	.text.HAL_UARTEx_ReceiveToIdle_DMA,"ax",%progbits
 1381              		.align	1
 1382              		.global	HAL_UARTEx_ReceiveToIdle_DMA
 1383              		.syntax unified
 1384              		.thumb
 1385              		.thumb_func
 1387              	HAL_UARTEx_ReceiveToIdle_DMA:
 1388              	.LFB327:
 929:Drivers/STM32L4xx_HAL_Driver/Src/stm32l4xx_hal_uart_ex.c **** 
 930:Drivers/STM32L4xx_HAL_Driver/Src/stm32l4xx_hal_uart_ex.c **** /**
 931:Drivers/STM32L4xx_HAL_Driver/Src/stm32l4xx_hal_uart_ex.c ****   * @brief Receive an amount of data in DMA mode till either the expected number
 932:Drivers/STM32L4xx_HAL_Driver/Src/stm32l4xx_hal_uart_ex.c ****   *        of data is received or an IDLE event occurs.
 933:Drivers/STM32L4xx_HAL_Driver/Src/stm32l4xx_hal_uart_ex.c ****   * @note  Reception is initiated by this function call. Further progress of reception is achieved 
 934:Drivers/STM32L4xx_HAL_Driver/Src/stm32l4xx_hal_uart_ex.c ****   *        to DMA services, transferring automatically received data elements in user reception buf
 935:Drivers/STM32L4xx_HAL_Driver/Src/stm32l4xx_hal_uart_ex.c ****   *        calling registered callbacks at half/end of reception. UART IDLE events are also used to
 936:Drivers/STM32L4xx_HAL_Driver/Src/stm32l4xx_hal_uart_ex.c ****   *        reception phase as ended. In all cases, callback execution will indicate number of recei
 937:Drivers/STM32L4xx_HAL_Driver/Src/stm32l4xx_hal_uart_ex.c ****   * @note  When the UART parity is enabled (PCE = 1), the received data contain
 938:Drivers/STM32L4xx_HAL_Driver/Src/stm32l4xx_hal_uart_ex.c ****   *        the parity bit (MSB position).
 939:Drivers/STM32L4xx_HAL_Driver/Src/stm32l4xx_hal_uart_ex.c ****   * @note  When UART parity is not enabled (PCE = 0), and Word Length is configured to 9 bits (M1-M
 940:Drivers/STM32L4xx_HAL_Driver/Src/stm32l4xx_hal_uart_ex.c ****   *        the received data is handled as a set of uint16_t. In this case, Size must indicate the 
 941:Drivers/STM32L4xx_HAL_Driver/Src/stm32l4xx_hal_uart_ex.c ****   *        of uint16_t available through pData.
 942:Drivers/STM32L4xx_HAL_Driver/Src/stm32l4xx_hal_uart_ex.c ****   * @param huart UART handle.
 943:Drivers/STM32L4xx_HAL_Driver/Src/stm32l4xx_hal_uart_ex.c ****   * @param pData Pointer to data buffer (uint8_t or uint16_t data elements).
 944:Drivers/STM32L4xx_HAL_Driver/Src/stm32l4xx_hal_uart_ex.c ****   * @param Size  Amount of data elements (uint8_t or uint16_t) to be received.
 945:Drivers/STM32L4xx_HAL_Driver/Src/stm32l4xx_hal_uart_ex.c ****   * @retval HAL status
 946:Drivers/STM32L4xx_HAL_Driver/Src/stm32l4xx_hal_uart_ex.c ****   */
ARM GAS  C:\Users\ep_ygh\AppData\Local\Temp\ccr8O3zb.s 			page 63


 947:Drivers/STM32L4xx_HAL_Driver/Src/stm32l4xx_hal_uart_ex.c **** HAL_StatusTypeDef HAL_UARTEx_ReceiveToIdle_DMA(UART_HandleTypeDef *huart, uint8_t *pData, uint16_t 
 948:Drivers/STM32L4xx_HAL_Driver/Src/stm32l4xx_hal_uart_ex.c **** {
 1389              		.loc 1 948 1
 1390              		.cfi_startproc
 1391              		@ args = 0, pretend = 0, frame = 48
 1392              		@ frame_needed = 1, uses_anonymous_args = 0
 1393 0000 80B5     		push	{r7, lr}
 1394              	.LCFI55:
 1395              		.cfi_def_cfa_offset 8
 1396              		.cfi_offset 7, -8
 1397              		.cfi_offset 14, -4
 1398 0002 8CB0     		sub	sp, sp, #48
 1399              	.LCFI56:
 1400              		.cfi_def_cfa_offset 56
 1401 0004 00AF     		add	r7, sp, #0
 1402              	.LCFI57:
 1403              		.cfi_def_cfa_register 7
 1404 0006 F860     		str	r0, [r7, #12]
 1405 0008 B960     		str	r1, [r7, #8]
 1406 000a 1346     		mov	r3, r2
 1407 000c FB80     		strh	r3, [r7, #6]	@ movhi
 949:Drivers/STM32L4xx_HAL_Driver/Src/stm32l4xx_hal_uart_ex.c ****   HAL_StatusTypeDef status;
 950:Drivers/STM32L4xx_HAL_Driver/Src/stm32l4xx_hal_uart_ex.c **** 
 951:Drivers/STM32L4xx_HAL_Driver/Src/stm32l4xx_hal_uart_ex.c ****   /* Check that a Rx process is not already ongoing */
 952:Drivers/STM32L4xx_HAL_Driver/Src/stm32l4xx_hal_uart_ex.c ****   if (huart->RxState == HAL_UART_STATE_READY)
 1408              		.loc 1 952 12
 1409 000e FB68     		ldr	r3, [r7, #12]
 1410 0010 D3F88030 		ldr	r3, [r3, #128]
 1411              		.loc 1 952 6
 1412 0014 202B     		cmp	r3, #32
 1413 0016 42D1     		bne	.L73
 953:Drivers/STM32L4xx_HAL_Driver/Src/stm32l4xx_hal_uart_ex.c ****   {
 954:Drivers/STM32L4xx_HAL_Driver/Src/stm32l4xx_hal_uart_ex.c ****     if ((pData == NULL) || (Size == 0U))
 1414              		.loc 1 954 8
 1415 0018 BB68     		ldr	r3, [r7, #8]
 1416 001a 002B     		cmp	r3, #0
 1417 001c 02D0     		beq	.L74
 1418              		.loc 1 954 25 discriminator 1
 1419 001e FB88     		ldrh	r3, [r7, #6]
 1420 0020 002B     		cmp	r3, #0
 1421 0022 01D1     		bne	.L75
 1422              	.L74:
 955:Drivers/STM32L4xx_HAL_Driver/Src/stm32l4xx_hal_uart_ex.c ****     {
 956:Drivers/STM32L4xx_HAL_Driver/Src/stm32l4xx_hal_uart_ex.c ****       return HAL_ERROR;
 1423              		.loc 1 956 14
 1424 0024 0123     		movs	r3, #1
 1425 0026 3BE0     		b	.L76
 1426              	.L75:
 957:Drivers/STM32L4xx_HAL_Driver/Src/stm32l4xx_hal_uart_ex.c ****     }
 958:Drivers/STM32L4xx_HAL_Driver/Src/stm32l4xx_hal_uart_ex.c **** 
 959:Drivers/STM32L4xx_HAL_Driver/Src/stm32l4xx_hal_uart_ex.c ****     /* Set Reception type to reception till IDLE Event*/
 960:Drivers/STM32L4xx_HAL_Driver/Src/stm32l4xx_hal_uart_ex.c ****     huart->ReceptionType = HAL_UART_RECEPTION_TOIDLE;
 1427              		.loc 1 960 26
 1428 0028 FB68     		ldr	r3, [r7, #12]
 1429 002a 0122     		movs	r2, #1
 1430 002c 1A66     		str	r2, [r3, #96]
 961:Drivers/STM32L4xx_HAL_Driver/Src/stm32l4xx_hal_uart_ex.c ****     huart->RxEventType = HAL_UART_RXEVENT_TC;
ARM GAS  C:\Users\ep_ygh\AppData\Local\Temp\ccr8O3zb.s 			page 64


 1431              		.loc 1 961 24
 1432 002e FB68     		ldr	r3, [r7, #12]
 1433 0030 0022     		movs	r2, #0
 1434 0032 5A66     		str	r2, [r3, #100]
 962:Drivers/STM32L4xx_HAL_Driver/Src/stm32l4xx_hal_uart_ex.c **** 
 963:Drivers/STM32L4xx_HAL_Driver/Src/stm32l4xx_hal_uart_ex.c ****     status =  UART_Start_Receive_DMA(huart, pData, Size);
 1435              		.loc 1 963 15
 1436 0034 FB88     		ldrh	r3, [r7, #6]
 1437 0036 1A46     		mov	r2, r3
 1438 0038 B968     		ldr	r1, [r7, #8]
 1439 003a F868     		ldr	r0, [r7, #12]
 1440 003c FFF7FEFF 		bl	UART_Start_Receive_DMA
 1441 0040 0346     		mov	r3, r0
 1442 0042 87F82F30 		strb	r3, [r7, #47]
 964:Drivers/STM32L4xx_HAL_Driver/Src/stm32l4xx_hal_uart_ex.c **** 
 965:Drivers/STM32L4xx_HAL_Driver/Src/stm32l4xx_hal_uart_ex.c ****     /* Check Rx process has been successfully started */
 966:Drivers/STM32L4xx_HAL_Driver/Src/stm32l4xx_hal_uart_ex.c ****     if (status == HAL_OK)
 1443              		.loc 1 966 8
 1444 0046 97F82F30 		ldrb	r3, [r7, #47]	@ zero_extendqisi2
 1445 004a 002B     		cmp	r3, #0
 1446 004c 24D1     		bne	.L77
 967:Drivers/STM32L4xx_HAL_Driver/Src/stm32l4xx_hal_uart_ex.c ****     {
 968:Drivers/STM32L4xx_HAL_Driver/Src/stm32l4xx_hal_uart_ex.c ****       if (huart->ReceptionType == HAL_UART_RECEPTION_TOIDLE)
 1447              		.loc 1 968 16
 1448 004e FB68     		ldr	r3, [r7, #12]
 1449 0050 1B6E     		ldr	r3, [r3, #96]
 1450              		.loc 1 968 10
 1451 0052 012B     		cmp	r3, #1
 1452 0054 1DD1     		bne	.L78
 969:Drivers/STM32L4xx_HAL_Driver/Src/stm32l4xx_hal_uart_ex.c ****       {
