ARM GAS  C:\Users\ep_ygh\AppData\Local\Temp\ccFTC33n.s 			page 1


   1              		.cpu cortex-m4
   2              		.arch armv7e-m
   3              		.fpu fpv4-sp-d16
   4              		.eabi_attribute 27, 1
   5              		.eabi_attribute 28, 1
   6              		.eabi_attribute 20, 1
   7              		.eabi_attribute 21, 1
   8              		.eabi_attribute 23, 3
   9              		.eabi_attribute 24, 1
  10              		.eabi_attribute 25, 1
  11              		.eabi_attribute 26, 1
  12              		.eabi_attribute 30, 6
  13              		.eabi_attribute 34, 1
  14              		.eabi_attribute 18, 4
  15              		.file	"stm32l4xx_hal_tim.c"
  16              		.text
  17              	.Ltext0:
  18              		.cfi_sections	.debug_frame
  19              		.section	.text.HAL_TIM_Base_Init,"ax",%progbits
  20              		.align	1
  21              		.global	HAL_TIM_Base_Init
  22              		.syntax unified
  23              		.thumb
  24              		.thumb_func
  26              	HAL_TIM_Base_Init:
  27              	.LFB317:
  28              		.file 1 "Drivers/STM32L4xx_HAL_Driver/Src/stm32l4xx_hal_tim.c"
   1:Drivers/STM32L4xx_HAL_Driver/Src/stm32l4xx_hal_tim.c **** /**
   2:Drivers/STM32L4xx_HAL_Driver/Src/stm32l4xx_hal_tim.c ****   ******************************************************************************
   3:Drivers/STM32L4xx_HAL_Driver/Src/stm32l4xx_hal_tim.c ****   * @file    stm32l4xx_hal_tim.c
   4:Drivers/STM32L4xx_HAL_Driver/Src/stm32l4xx_hal_tim.c ****   * @author  MCD Application Team
   5:Drivers/STM32L4xx_HAL_Driver/Src/stm32l4xx_hal_tim.c ****   * @brief   TIM HAL module driver.
   6:Drivers/STM32L4xx_HAL_Driver/Src/stm32l4xx_hal_tim.c ****   *          This file provides firmware functions to manage the following
   7:Drivers/STM32L4xx_HAL_Driver/Src/stm32l4xx_hal_tim.c ****   *          functionalities of the Timer (TIM) peripheral:
   8:Drivers/STM32L4xx_HAL_Driver/Src/stm32l4xx_hal_tim.c ****   *           + TIM Time Base Initialization
   9:Drivers/STM32L4xx_HAL_Driver/Src/stm32l4xx_hal_tim.c ****   *           + TIM Time Base Start
  10:Drivers/STM32L4xx_HAL_Driver/Src/stm32l4xx_hal_tim.c ****   *           + TIM Time Base Start Interruption
  11:Drivers/STM32L4xx_HAL_Driver/Src/stm32l4xx_hal_tim.c ****   *           + TIM Time Base Start DMA
  12:Drivers/STM32L4xx_HAL_Driver/Src/stm32l4xx_hal_tim.c ****   *           + TIM Output Compare/PWM Initialization
  13:Drivers/STM32L4xx_HAL_Driver/Src/stm32l4xx_hal_tim.c ****   *           + TIM Output Compare/PWM Channel Configuration
  14:Drivers/STM32L4xx_HAL_Driver/Src/stm32l4xx_hal_tim.c ****   *           + TIM Output Compare/PWM  Start
  15:Drivers/STM32L4xx_HAL_Driver/Src/stm32l4xx_hal_tim.c ****   *           + TIM Output Compare/PWM  Start Interruption
  16:Drivers/STM32L4xx_HAL_Driver/Src/stm32l4xx_hal_tim.c ****   *           + TIM Output Compare/PWM Start DMA
  17:Drivers/STM32L4xx_HAL_Driver/Src/stm32l4xx_hal_tim.c ****   *           + TIM Input Capture Initialization
  18:Drivers/STM32L4xx_HAL_Driver/Src/stm32l4xx_hal_tim.c ****   *           + TIM Input Capture Channel Configuration
  19:Drivers/STM32L4xx_HAL_Driver/Src/stm32l4xx_hal_tim.c ****   *           + TIM Input Capture Start
  20:Drivers/STM32L4xx_HAL_Driver/Src/stm32l4xx_hal_tim.c ****   *           + TIM Input Capture Start Interruption
  21:Drivers/STM32L4xx_HAL_Driver/Src/stm32l4xx_hal_tim.c ****   *           + TIM Input Capture Start DMA
  22:Drivers/STM32L4xx_HAL_Driver/Src/stm32l4xx_hal_tim.c ****   *           + TIM One Pulse Initialization
  23:Drivers/STM32L4xx_HAL_Driver/Src/stm32l4xx_hal_tim.c ****   *           + TIM One Pulse Channel Configuration
  24:Drivers/STM32L4xx_HAL_Driver/Src/stm32l4xx_hal_tim.c ****   *           + TIM One Pulse Start
  25:Drivers/STM32L4xx_HAL_Driver/Src/stm32l4xx_hal_tim.c ****   *           + TIM Encoder Interface Initialization
  26:Drivers/STM32L4xx_HAL_Driver/Src/stm32l4xx_hal_tim.c ****   *           + TIM Encoder Interface Start
  27:Drivers/STM32L4xx_HAL_Driver/Src/stm32l4xx_hal_tim.c ****   *           + TIM Encoder Interface Start Interruption
  28:Drivers/STM32L4xx_HAL_Driver/Src/stm32l4xx_hal_tim.c ****   *           + TIM Encoder Interface Start DMA
  29:Drivers/STM32L4xx_HAL_Driver/Src/stm32l4xx_hal_tim.c ****   *           + Commutation Event configuration with Interruption and DMA
  30:Drivers/STM32L4xx_HAL_Driver/Src/stm32l4xx_hal_tim.c ****   *           + TIM OCRef clear configuration
ARM GAS  C:\Users\ep_ygh\AppData\Local\Temp\ccFTC33n.s 			page 2


  31:Drivers/STM32L4xx_HAL_Driver/Src/stm32l4xx_hal_tim.c ****   *           + TIM External Clock configuration
  32:Drivers/STM32L4xx_HAL_Driver/Src/stm32l4xx_hal_tim.c ****   ******************************************************************************
  33:Drivers/STM32L4xx_HAL_Driver/Src/stm32l4xx_hal_tim.c ****   * @attention
  34:Drivers/STM32L4xx_HAL_Driver/Src/stm32l4xx_hal_tim.c ****   *
  35:Drivers/STM32L4xx_HAL_Driver/Src/stm32l4xx_hal_tim.c ****   * Copyright (c) 2017 STMicroelectronics.
  36:Drivers/STM32L4xx_HAL_Driver/Src/stm32l4xx_hal_tim.c ****   * All rights reserved.
  37:Drivers/STM32L4xx_HAL_Driver/Src/stm32l4xx_hal_tim.c ****   *
  38:Drivers/STM32L4xx_HAL_Driver/Src/stm32l4xx_hal_tim.c ****   * This software is licensed under terms that can be found in the LICENSE file
  39:Drivers/STM32L4xx_HAL_Driver/Src/stm32l4xx_hal_tim.c ****   * in the root directory of this software component.
  40:Drivers/STM32L4xx_HAL_Driver/Src/stm32l4xx_hal_tim.c ****   * If no LICENSE file comes with this software, it is provided AS-IS.
  41:Drivers/STM32L4xx_HAL_Driver/Src/stm32l4xx_hal_tim.c ****   *
  42:Drivers/STM32L4xx_HAL_Driver/Src/stm32l4xx_hal_tim.c ****   ******************************************************************************
  43:Drivers/STM32L4xx_HAL_Driver/Src/stm32l4xx_hal_tim.c ****   @verbatim
  44:Drivers/STM32L4xx_HAL_Driver/Src/stm32l4xx_hal_tim.c ****   ==============================================================================
  45:Drivers/STM32L4xx_HAL_Driver/Src/stm32l4xx_hal_tim.c ****                       ##### TIMER Generic features #####
  46:Drivers/STM32L4xx_HAL_Driver/Src/stm32l4xx_hal_tim.c ****   ==============================================================================
  47:Drivers/STM32L4xx_HAL_Driver/Src/stm32l4xx_hal_tim.c ****   [..] The Timer features include:
  48:Drivers/STM32L4xx_HAL_Driver/Src/stm32l4xx_hal_tim.c ****        (#) 16-bit up, down, up/down auto-reload counter.
  49:Drivers/STM32L4xx_HAL_Driver/Src/stm32l4xx_hal_tim.c ****        (#) 16-bit programmable prescaler allowing dividing (also on the fly) the
  50:Drivers/STM32L4xx_HAL_Driver/Src/stm32l4xx_hal_tim.c ****            counter clock frequency either by any factor between 1 and 65536.
  51:Drivers/STM32L4xx_HAL_Driver/Src/stm32l4xx_hal_tim.c ****        (#) Up to 4 independent channels for:
  52:Drivers/STM32L4xx_HAL_Driver/Src/stm32l4xx_hal_tim.c ****            (++) Input Capture
  53:Drivers/STM32L4xx_HAL_Driver/Src/stm32l4xx_hal_tim.c ****            (++) Output Compare
  54:Drivers/STM32L4xx_HAL_Driver/Src/stm32l4xx_hal_tim.c ****            (++) PWM generation (Edge and Center-aligned Mode)
  55:Drivers/STM32L4xx_HAL_Driver/Src/stm32l4xx_hal_tim.c ****            (++) One-pulse mode output
  56:Drivers/STM32L4xx_HAL_Driver/Src/stm32l4xx_hal_tim.c ****        (#) Synchronization circuit to control the timer with external signals and to interconnect
  57:Drivers/STM32L4xx_HAL_Driver/Src/stm32l4xx_hal_tim.c ****             several timers together.
  58:Drivers/STM32L4xx_HAL_Driver/Src/stm32l4xx_hal_tim.c ****        (#) Supports incremental encoder for positioning purposes
  59:Drivers/STM32L4xx_HAL_Driver/Src/stm32l4xx_hal_tim.c **** 
  60:Drivers/STM32L4xx_HAL_Driver/Src/stm32l4xx_hal_tim.c ****             ##### How to use this driver #####
  61:Drivers/STM32L4xx_HAL_Driver/Src/stm32l4xx_hal_tim.c ****   ==============================================================================
  62:Drivers/STM32L4xx_HAL_Driver/Src/stm32l4xx_hal_tim.c ****     [..]
  63:Drivers/STM32L4xx_HAL_Driver/Src/stm32l4xx_hal_tim.c ****      (#) Initialize the TIM low level resources by implementing the following functions
  64:Drivers/STM32L4xx_HAL_Driver/Src/stm32l4xx_hal_tim.c ****          depending on the selected feature:
  65:Drivers/STM32L4xx_HAL_Driver/Src/stm32l4xx_hal_tim.c ****            (++) Time Base : HAL_TIM_Base_MspInit()
  66:Drivers/STM32L4xx_HAL_Driver/Src/stm32l4xx_hal_tim.c ****            (++) Input Capture : HAL_TIM_IC_MspInit()
  67:Drivers/STM32L4xx_HAL_Driver/Src/stm32l4xx_hal_tim.c ****            (++) Output Compare : HAL_TIM_OC_MspInit()
  68:Drivers/STM32L4xx_HAL_Driver/Src/stm32l4xx_hal_tim.c ****            (++) PWM generation : HAL_TIM_PWM_MspInit()
  69:Drivers/STM32L4xx_HAL_Driver/Src/stm32l4xx_hal_tim.c ****            (++) One-pulse mode output : HAL_TIM_OnePulse_MspInit()
  70:Drivers/STM32L4xx_HAL_Driver/Src/stm32l4xx_hal_tim.c ****            (++) Encoder mode output : HAL_TIM_Encoder_MspInit()
  71:Drivers/STM32L4xx_HAL_Driver/Src/stm32l4xx_hal_tim.c **** 
  72:Drivers/STM32L4xx_HAL_Driver/Src/stm32l4xx_hal_tim.c ****      (#) Initialize the TIM low level resources :
  73:Drivers/STM32L4xx_HAL_Driver/Src/stm32l4xx_hal_tim.c ****         (##) Enable the TIM interface clock using __HAL_RCC_TIMx_CLK_ENABLE();
  74:Drivers/STM32L4xx_HAL_Driver/Src/stm32l4xx_hal_tim.c ****         (##) TIM pins configuration
  75:Drivers/STM32L4xx_HAL_Driver/Src/stm32l4xx_hal_tim.c ****             (+++) Enable the clock for the TIM GPIOs using the following function:
  76:Drivers/STM32L4xx_HAL_Driver/Src/stm32l4xx_hal_tim.c ****              __HAL_RCC_GPIOx_CLK_ENABLE();
  77:Drivers/STM32L4xx_HAL_Driver/Src/stm32l4xx_hal_tim.c ****             (+++) Configure these TIM pins in Alternate function mode using HAL_GPIO_Init();
  78:Drivers/STM32L4xx_HAL_Driver/Src/stm32l4xx_hal_tim.c **** 
  79:Drivers/STM32L4xx_HAL_Driver/Src/stm32l4xx_hal_tim.c ****      (#) The external Clock can be configured, if needed (the default clock is the
  80:Drivers/STM32L4xx_HAL_Driver/Src/stm32l4xx_hal_tim.c ****          internal clock from the APBx), using the following function:
  81:Drivers/STM32L4xx_HAL_Driver/Src/stm32l4xx_hal_tim.c ****          HAL_TIM_ConfigClockSource, the clock configuration should be done before
  82:Drivers/STM32L4xx_HAL_Driver/Src/stm32l4xx_hal_tim.c ****          any start function.
  83:Drivers/STM32L4xx_HAL_Driver/Src/stm32l4xx_hal_tim.c **** 
  84:Drivers/STM32L4xx_HAL_Driver/Src/stm32l4xx_hal_tim.c ****      (#) Configure the TIM in the desired functioning mode using one of the
  85:Drivers/STM32L4xx_HAL_Driver/Src/stm32l4xx_hal_tim.c ****        Initialization function of this driver:
  86:Drivers/STM32L4xx_HAL_Driver/Src/stm32l4xx_hal_tim.c ****        (++) HAL_TIM_Base_Init: to use the Timer to generate a simple time base
  87:Drivers/STM32L4xx_HAL_Driver/Src/stm32l4xx_hal_tim.c ****        (++) HAL_TIM_OC_Init and HAL_TIM_OC_ConfigChannel: to use the Timer to generate an
ARM GAS  C:\Users\ep_ygh\AppData\Local\Temp\ccFTC33n.s 			page 3


  88:Drivers/STM32L4xx_HAL_Driver/Src/stm32l4xx_hal_tim.c ****             Output Compare signal.
  89:Drivers/STM32L4xx_HAL_Driver/Src/stm32l4xx_hal_tim.c ****        (++) HAL_TIM_PWM_Init and HAL_TIM_PWM_ConfigChannel: to use the Timer to generate a
  90:Drivers/STM32L4xx_HAL_Driver/Src/stm32l4xx_hal_tim.c ****             PWM signal.
  91:Drivers/STM32L4xx_HAL_Driver/Src/stm32l4xx_hal_tim.c ****        (++) HAL_TIM_IC_Init and HAL_TIM_IC_ConfigChannel: to use the Timer to measure an
  92:Drivers/STM32L4xx_HAL_Driver/Src/stm32l4xx_hal_tim.c ****             external signal.
  93:Drivers/STM32L4xx_HAL_Driver/Src/stm32l4xx_hal_tim.c ****        (++) HAL_TIM_OnePulse_Init and HAL_TIM_OnePulse_ConfigChannel: to use the Timer
  94:Drivers/STM32L4xx_HAL_Driver/Src/stm32l4xx_hal_tim.c ****             in One Pulse Mode.
  95:Drivers/STM32L4xx_HAL_Driver/Src/stm32l4xx_hal_tim.c ****        (++) HAL_TIM_Encoder_Init: to use the Timer Encoder Interface.
  96:Drivers/STM32L4xx_HAL_Driver/Src/stm32l4xx_hal_tim.c **** 
  97:Drivers/STM32L4xx_HAL_Driver/Src/stm32l4xx_hal_tim.c ****      (#) Activate the TIM peripheral using one of the start functions depending from the feature us
  98:Drivers/STM32L4xx_HAL_Driver/Src/stm32l4xx_hal_tim.c ****            (++) Time Base : HAL_TIM_Base_Start(), HAL_TIM_Base_Start_DMA(), HAL_TIM_Base_Start_IT()
  99:Drivers/STM32L4xx_HAL_Driver/Src/stm32l4xx_hal_tim.c ****            (++) Input Capture :  HAL_TIM_IC_Start(), HAL_TIM_IC_Start_DMA(), HAL_TIM_IC_Start_IT()
 100:Drivers/STM32L4xx_HAL_Driver/Src/stm32l4xx_hal_tim.c ****            (++) Output Compare : HAL_TIM_OC_Start(), HAL_TIM_OC_Start_DMA(), HAL_TIM_OC_Start_IT()
 101:Drivers/STM32L4xx_HAL_Driver/Src/stm32l4xx_hal_tim.c ****            (++) PWM generation : HAL_TIM_PWM_Start(), HAL_TIM_PWM_Start_DMA(), HAL_TIM_PWM_Start_IT
 102:Drivers/STM32L4xx_HAL_Driver/Src/stm32l4xx_hal_tim.c ****            (++) One-pulse mode output : HAL_TIM_OnePulse_Start(), HAL_TIM_OnePulse_Start_IT()
 103:Drivers/STM32L4xx_HAL_Driver/Src/stm32l4xx_hal_tim.c ****            (++) Encoder mode output : HAL_TIM_Encoder_Start(), HAL_TIM_Encoder_Start_DMA(), HAL_TIM
 104:Drivers/STM32L4xx_HAL_Driver/Src/stm32l4xx_hal_tim.c **** 
 105:Drivers/STM32L4xx_HAL_Driver/Src/stm32l4xx_hal_tim.c ****      (#) The DMA Burst is managed with the two following functions:
 106:Drivers/STM32L4xx_HAL_Driver/Src/stm32l4xx_hal_tim.c ****          HAL_TIM_DMABurst_WriteStart()
 107:Drivers/STM32L4xx_HAL_Driver/Src/stm32l4xx_hal_tim.c ****          HAL_TIM_DMABurst_ReadStart()
 108:Drivers/STM32L4xx_HAL_Driver/Src/stm32l4xx_hal_tim.c **** 
 109:Drivers/STM32L4xx_HAL_Driver/Src/stm32l4xx_hal_tim.c ****     *** Callback registration ***
 110:Drivers/STM32L4xx_HAL_Driver/Src/stm32l4xx_hal_tim.c ****   =============================================
 111:Drivers/STM32L4xx_HAL_Driver/Src/stm32l4xx_hal_tim.c **** 
 112:Drivers/STM32L4xx_HAL_Driver/Src/stm32l4xx_hal_tim.c ****   [..]
 113:Drivers/STM32L4xx_HAL_Driver/Src/stm32l4xx_hal_tim.c ****   The compilation define  USE_HAL_TIM_REGISTER_CALLBACKS when set to 1
 114:Drivers/STM32L4xx_HAL_Driver/Src/stm32l4xx_hal_tim.c ****   allows the user to configure dynamically the driver callbacks.
 115:Drivers/STM32L4xx_HAL_Driver/Src/stm32l4xx_hal_tim.c **** 
 116:Drivers/STM32L4xx_HAL_Driver/Src/stm32l4xx_hal_tim.c ****   [..]
 117:Drivers/STM32L4xx_HAL_Driver/Src/stm32l4xx_hal_tim.c ****   Use Function HAL_TIM_RegisterCallback() to register a callback.
 118:Drivers/STM32L4xx_HAL_Driver/Src/stm32l4xx_hal_tim.c ****   HAL_TIM_RegisterCallback() takes as parameters the HAL peripheral handle,
 119:Drivers/STM32L4xx_HAL_Driver/Src/stm32l4xx_hal_tim.c ****   the Callback ID and a pointer to the user callback function.
 120:Drivers/STM32L4xx_HAL_Driver/Src/stm32l4xx_hal_tim.c **** 
 121:Drivers/STM32L4xx_HAL_Driver/Src/stm32l4xx_hal_tim.c ****   [..]
 122:Drivers/STM32L4xx_HAL_Driver/Src/stm32l4xx_hal_tim.c ****   Use function HAL_TIM_UnRegisterCallback() to reset a callback to the default
 123:Drivers/STM32L4xx_HAL_Driver/Src/stm32l4xx_hal_tim.c ****   weak function.
 124:Drivers/STM32L4xx_HAL_Driver/Src/stm32l4xx_hal_tim.c ****   HAL_TIM_UnRegisterCallback takes as parameters the HAL peripheral handle,
 125:Drivers/STM32L4xx_HAL_Driver/Src/stm32l4xx_hal_tim.c ****   and the Callback ID.
 126:Drivers/STM32L4xx_HAL_Driver/Src/stm32l4xx_hal_tim.c **** 
 127:Drivers/STM32L4xx_HAL_Driver/Src/stm32l4xx_hal_tim.c ****   [..]
 128:Drivers/STM32L4xx_HAL_Driver/Src/stm32l4xx_hal_tim.c ****   These functions allow to register/unregister following callbacks:
 129:Drivers/STM32L4xx_HAL_Driver/Src/stm32l4xx_hal_tim.c ****     (+) Base_MspInitCallback              : TIM Base Msp Init Callback.
 130:Drivers/STM32L4xx_HAL_Driver/Src/stm32l4xx_hal_tim.c ****     (+) Base_MspDeInitCallback            : TIM Base Msp DeInit Callback.
 131:Drivers/STM32L4xx_HAL_Driver/Src/stm32l4xx_hal_tim.c ****     (+) IC_MspInitCallback                : TIM IC Msp Init Callback.
 132:Drivers/STM32L4xx_HAL_Driver/Src/stm32l4xx_hal_tim.c ****     (+) IC_MspDeInitCallback              : TIM IC Msp DeInit Callback.
 133:Drivers/STM32L4xx_HAL_Driver/Src/stm32l4xx_hal_tim.c ****     (+) OC_MspInitCallback                : TIM OC Msp Init Callback.
 134:Drivers/STM32L4xx_HAL_Driver/Src/stm32l4xx_hal_tim.c ****     (+) OC_MspDeInitCallback              : TIM OC Msp DeInit Callback.
 135:Drivers/STM32L4xx_HAL_Driver/Src/stm32l4xx_hal_tim.c ****     (+) PWM_MspInitCallback               : TIM PWM Msp Init Callback.
 136:Drivers/STM32L4xx_HAL_Driver/Src/stm32l4xx_hal_tim.c ****     (+) PWM_MspDeInitCallback             : TIM PWM Msp DeInit Callback.
 137:Drivers/STM32L4xx_HAL_Driver/Src/stm32l4xx_hal_tim.c ****     (+) OnePulse_MspInitCallback          : TIM One Pulse Msp Init Callback.
 138:Drivers/STM32L4xx_HAL_Driver/Src/stm32l4xx_hal_tim.c ****     (+) OnePulse_MspDeInitCallback        : TIM One Pulse Msp DeInit Callback.
 139:Drivers/STM32L4xx_HAL_Driver/Src/stm32l4xx_hal_tim.c ****     (+) Encoder_MspInitCallback           : TIM Encoder Msp Init Callback.
 140:Drivers/STM32L4xx_HAL_Driver/Src/stm32l4xx_hal_tim.c ****     (+) Encoder_MspDeInitCallback         : TIM Encoder Msp DeInit Callback.
 141:Drivers/STM32L4xx_HAL_Driver/Src/stm32l4xx_hal_tim.c ****     (+) HallSensor_MspInitCallback        : TIM Hall Sensor Msp Init Callback.
 142:Drivers/STM32L4xx_HAL_Driver/Src/stm32l4xx_hal_tim.c ****     (+) HallSensor_MspDeInitCallback      : TIM Hall Sensor Msp DeInit Callback.
 143:Drivers/STM32L4xx_HAL_Driver/Src/stm32l4xx_hal_tim.c ****     (+) PeriodElapsedCallback             : TIM Period Elapsed Callback.
 144:Drivers/STM32L4xx_HAL_Driver/Src/stm32l4xx_hal_tim.c ****     (+) PeriodElapsedHalfCpltCallback     : TIM Period Elapsed half complete Callback.
ARM GAS  C:\Users\ep_ygh\AppData\Local\Temp\ccFTC33n.s 			page 4


 145:Drivers/STM32L4xx_HAL_Driver/Src/stm32l4xx_hal_tim.c ****     (+) TriggerCallback                   : TIM Trigger Callback.
 146:Drivers/STM32L4xx_HAL_Driver/Src/stm32l4xx_hal_tim.c ****     (+) TriggerHalfCpltCallback           : TIM Trigger half complete Callback.
 147:Drivers/STM32L4xx_HAL_Driver/Src/stm32l4xx_hal_tim.c ****     (+) IC_CaptureCallback                : TIM Input Capture Callback.
 148:Drivers/STM32L4xx_HAL_Driver/Src/stm32l4xx_hal_tim.c ****     (+) IC_CaptureHalfCpltCallback        : TIM Input Capture half complete Callback.
 149:Drivers/STM32L4xx_HAL_Driver/Src/stm32l4xx_hal_tim.c ****     (+) OC_DelayElapsedCallback           : TIM Output Compare Delay Elapsed Callback.
 150:Drivers/STM32L4xx_HAL_Driver/Src/stm32l4xx_hal_tim.c ****     (+) PWM_PulseFinishedCallback         : TIM PWM Pulse Finished Callback.
 151:Drivers/STM32L4xx_HAL_Driver/Src/stm32l4xx_hal_tim.c ****     (+) PWM_PulseFinishedHalfCpltCallback : TIM PWM Pulse Finished half complete Callback.
 152:Drivers/STM32L4xx_HAL_Driver/Src/stm32l4xx_hal_tim.c ****     (+) ErrorCallback                     : TIM Error Callback.
 153:Drivers/STM32L4xx_HAL_Driver/Src/stm32l4xx_hal_tim.c ****     (+) CommutationCallback               : TIM Commutation Callback.
 154:Drivers/STM32L4xx_HAL_Driver/Src/stm32l4xx_hal_tim.c ****     (+) CommutationHalfCpltCallback       : TIM Commutation half complete Callback.
 155:Drivers/STM32L4xx_HAL_Driver/Src/stm32l4xx_hal_tim.c ****     (+) BreakCallback                     : TIM Break Callback.
 156:Drivers/STM32L4xx_HAL_Driver/Src/stm32l4xx_hal_tim.c ****     (+) Break2Callback                    : TIM Break2 Callback.
 157:Drivers/STM32L4xx_HAL_Driver/Src/stm32l4xx_hal_tim.c **** 
 158:Drivers/STM32L4xx_HAL_Driver/Src/stm32l4xx_hal_tim.c ****   [..]
 159:Drivers/STM32L4xx_HAL_Driver/Src/stm32l4xx_hal_tim.c **** By default, after the Init and when the state is HAL_TIM_STATE_RESET
 160:Drivers/STM32L4xx_HAL_Driver/Src/stm32l4xx_hal_tim.c **** all interrupt callbacks are set to the corresponding weak functions:
 161:Drivers/STM32L4xx_HAL_Driver/Src/stm32l4xx_hal_tim.c ****   examples HAL_TIM_TriggerCallback(), HAL_TIM_ErrorCallback().
 162:Drivers/STM32L4xx_HAL_Driver/Src/stm32l4xx_hal_tim.c **** 
 163:Drivers/STM32L4xx_HAL_Driver/Src/stm32l4xx_hal_tim.c ****   [..]
 164:Drivers/STM32L4xx_HAL_Driver/Src/stm32l4xx_hal_tim.c ****   Exception done for MspInit and MspDeInit functions that are reset to the legacy weak
 165:Drivers/STM32L4xx_HAL_Driver/Src/stm32l4xx_hal_tim.c ****   functionalities in the Init / DeInit only when these callbacks are null
 166:Drivers/STM32L4xx_HAL_Driver/Src/stm32l4xx_hal_tim.c ****   (not registered beforehand). If not, MspInit or MspDeInit are not null, the Init / DeInit
 167:Drivers/STM32L4xx_HAL_Driver/Src/stm32l4xx_hal_tim.c ****     keep and use the user MspInit / MspDeInit callbacks(registered beforehand)
 168:Drivers/STM32L4xx_HAL_Driver/Src/stm32l4xx_hal_tim.c **** 
 169:Drivers/STM32L4xx_HAL_Driver/Src/stm32l4xx_hal_tim.c ****   [..]
 170:Drivers/STM32L4xx_HAL_Driver/Src/stm32l4xx_hal_tim.c ****     Callbacks can be registered / unregistered in HAL_TIM_STATE_READY state only.
 171:Drivers/STM32L4xx_HAL_Driver/Src/stm32l4xx_hal_tim.c ****     Exception done MspInit / MspDeInit that can be registered / unregistered
 172:Drivers/STM32L4xx_HAL_Driver/Src/stm32l4xx_hal_tim.c ****     in HAL_TIM_STATE_READY or HAL_TIM_STATE_RESET state,
 173:Drivers/STM32L4xx_HAL_Driver/Src/stm32l4xx_hal_tim.c ****     thus registered(user) MspInit / DeInit callbacks can be used during the Init / DeInit.
 174:Drivers/STM32L4xx_HAL_Driver/Src/stm32l4xx_hal_tim.c ****   In that case first register the MspInit/MspDeInit user callbacks
 175:Drivers/STM32L4xx_HAL_Driver/Src/stm32l4xx_hal_tim.c ****       using HAL_TIM_RegisterCallback() before calling DeInit or Init function.
 176:Drivers/STM32L4xx_HAL_Driver/Src/stm32l4xx_hal_tim.c **** 
 177:Drivers/STM32L4xx_HAL_Driver/Src/stm32l4xx_hal_tim.c ****   [..]
 178:Drivers/STM32L4xx_HAL_Driver/Src/stm32l4xx_hal_tim.c ****       When The compilation define USE_HAL_TIM_REGISTER_CALLBACKS is set to 0 or
 179:Drivers/STM32L4xx_HAL_Driver/Src/stm32l4xx_hal_tim.c ****       not defined, the callback registration feature is not available and all callbacks
 180:Drivers/STM32L4xx_HAL_Driver/Src/stm32l4xx_hal_tim.c ****       are set to the corresponding weak functions.
 181:Drivers/STM32L4xx_HAL_Driver/Src/stm32l4xx_hal_tim.c **** 
 182:Drivers/STM32L4xx_HAL_Driver/Src/stm32l4xx_hal_tim.c ****   @endverbatim
 183:Drivers/STM32L4xx_HAL_Driver/Src/stm32l4xx_hal_tim.c ****   ******************************************************************************
 184:Drivers/STM32L4xx_HAL_Driver/Src/stm32l4xx_hal_tim.c ****   */
 185:Drivers/STM32L4xx_HAL_Driver/Src/stm32l4xx_hal_tim.c **** 
 186:Drivers/STM32L4xx_HAL_Driver/Src/stm32l4xx_hal_tim.c **** /* Includes ------------------------------------------------------------------*/
 187:Drivers/STM32L4xx_HAL_Driver/Src/stm32l4xx_hal_tim.c **** #include "stm32l4xx_hal.h"
 188:Drivers/STM32L4xx_HAL_Driver/Src/stm32l4xx_hal_tim.c **** 
 189:Drivers/STM32L4xx_HAL_Driver/Src/stm32l4xx_hal_tim.c **** /** @addtogroup STM32L4xx_HAL_Driver
 190:Drivers/STM32L4xx_HAL_Driver/Src/stm32l4xx_hal_tim.c ****   * @{
 191:Drivers/STM32L4xx_HAL_Driver/Src/stm32l4xx_hal_tim.c ****   */
 192:Drivers/STM32L4xx_HAL_Driver/Src/stm32l4xx_hal_tim.c **** 
 193:Drivers/STM32L4xx_HAL_Driver/Src/stm32l4xx_hal_tim.c **** /** @defgroup TIM TIM
 194:Drivers/STM32L4xx_HAL_Driver/Src/stm32l4xx_hal_tim.c ****   * @brief TIM HAL module driver
 195:Drivers/STM32L4xx_HAL_Driver/Src/stm32l4xx_hal_tim.c ****   * @{
 196:Drivers/STM32L4xx_HAL_Driver/Src/stm32l4xx_hal_tim.c ****   */
 197:Drivers/STM32L4xx_HAL_Driver/Src/stm32l4xx_hal_tim.c **** 
 198:Drivers/STM32L4xx_HAL_Driver/Src/stm32l4xx_hal_tim.c **** #ifdef HAL_TIM_MODULE_ENABLED
 199:Drivers/STM32L4xx_HAL_Driver/Src/stm32l4xx_hal_tim.c **** 
 200:Drivers/STM32L4xx_HAL_Driver/Src/stm32l4xx_hal_tim.c **** /* Private typedef -----------------------------------------------------------*/
 201:Drivers/STM32L4xx_HAL_Driver/Src/stm32l4xx_hal_tim.c **** /* Private define ------------------------------------------------------------*/
ARM GAS  C:\Users\ep_ygh\AppData\Local\Temp\ccFTC33n.s 			page 5


 202:Drivers/STM32L4xx_HAL_Driver/Src/stm32l4xx_hal_tim.c **** /* Private macros ------------------------------------------------------------*/
 203:Drivers/STM32L4xx_HAL_Driver/Src/stm32l4xx_hal_tim.c **** /* Private variables ---------------------------------------------------------*/
 204:Drivers/STM32L4xx_HAL_Driver/Src/stm32l4xx_hal_tim.c **** /* Private function prototypes -----------------------------------------------*/
 205:Drivers/STM32L4xx_HAL_Driver/Src/stm32l4xx_hal_tim.c **** /** @addtogroup TIM_Private_Functions
 206:Drivers/STM32L4xx_HAL_Driver/Src/stm32l4xx_hal_tim.c ****   * @{
 207:Drivers/STM32L4xx_HAL_Driver/Src/stm32l4xx_hal_tim.c ****   */
 208:Drivers/STM32L4xx_HAL_Driver/Src/stm32l4xx_hal_tim.c **** static void TIM_OC1_SetConfig(TIM_TypeDef *TIMx, const TIM_OC_InitTypeDef *OC_Config);
 209:Drivers/STM32L4xx_HAL_Driver/Src/stm32l4xx_hal_tim.c **** static void TIM_OC3_SetConfig(TIM_TypeDef *TIMx, const TIM_OC_InitTypeDef *OC_Config);
 210:Drivers/STM32L4xx_HAL_Driver/Src/stm32l4xx_hal_tim.c **** static void TIM_OC4_SetConfig(TIM_TypeDef *TIMx, const TIM_OC_InitTypeDef *OC_Config);
 211:Drivers/STM32L4xx_HAL_Driver/Src/stm32l4xx_hal_tim.c **** static void TIM_OC5_SetConfig(TIM_TypeDef *TIMx, const TIM_OC_InitTypeDef *OC_Config);
 212:Drivers/STM32L4xx_HAL_Driver/Src/stm32l4xx_hal_tim.c **** static void TIM_OC6_SetConfig(TIM_TypeDef *TIMx, const TIM_OC_InitTypeDef *OC_Config);
 213:Drivers/STM32L4xx_HAL_Driver/Src/stm32l4xx_hal_tim.c **** static void TIM_TI1_ConfigInputStage(TIM_TypeDef *TIMx, uint32_t TIM_ICPolarity, uint32_t TIM_ICFil
 214:Drivers/STM32L4xx_HAL_Driver/Src/stm32l4xx_hal_tim.c **** static void TIM_TI2_SetConfig(TIM_TypeDef *TIMx, uint32_t TIM_ICPolarity, uint32_t TIM_ICSelection,
 215:Drivers/STM32L4xx_HAL_Driver/Src/stm32l4xx_hal_tim.c ****                               uint32_t TIM_ICFilter);
 216:Drivers/STM32L4xx_HAL_Driver/Src/stm32l4xx_hal_tim.c **** static void TIM_TI2_ConfigInputStage(TIM_TypeDef *TIMx, uint32_t TIM_ICPolarity, uint32_t TIM_ICFil
 217:Drivers/STM32L4xx_HAL_Driver/Src/stm32l4xx_hal_tim.c **** static void TIM_TI3_SetConfig(TIM_TypeDef *TIMx, uint32_t TIM_ICPolarity, uint32_t TIM_ICSelection,
 218:Drivers/STM32L4xx_HAL_Driver/Src/stm32l4xx_hal_tim.c ****                               uint32_t TIM_ICFilter);
 219:Drivers/STM32L4xx_HAL_Driver/Src/stm32l4xx_hal_tim.c **** static void TIM_TI4_SetConfig(TIM_TypeDef *TIMx, uint32_t TIM_ICPolarity, uint32_t TIM_ICSelection,
 220:Drivers/STM32L4xx_HAL_Driver/Src/stm32l4xx_hal_tim.c ****                               uint32_t TIM_ICFilter);
 221:Drivers/STM32L4xx_HAL_Driver/Src/stm32l4xx_hal_tim.c **** static void TIM_ITRx_SetConfig(TIM_TypeDef *TIMx, uint32_t InputTriggerSource);
 222:Drivers/STM32L4xx_HAL_Driver/Src/stm32l4xx_hal_tim.c **** static void TIM_DMAPeriodElapsedCplt(DMA_HandleTypeDef *hdma);
 223:Drivers/STM32L4xx_HAL_Driver/Src/stm32l4xx_hal_tim.c **** static void TIM_DMAPeriodElapsedHalfCplt(DMA_HandleTypeDef *hdma);
 224:Drivers/STM32L4xx_HAL_Driver/Src/stm32l4xx_hal_tim.c **** static void TIM_DMADelayPulseCplt(DMA_HandleTypeDef *hdma);
 225:Drivers/STM32L4xx_HAL_Driver/Src/stm32l4xx_hal_tim.c **** static void TIM_DMATriggerCplt(DMA_HandleTypeDef *hdma);
 226:Drivers/STM32L4xx_HAL_Driver/Src/stm32l4xx_hal_tim.c **** static void TIM_DMATriggerHalfCplt(DMA_HandleTypeDef *hdma);
 227:Drivers/STM32L4xx_HAL_Driver/Src/stm32l4xx_hal_tim.c **** static HAL_StatusTypeDef TIM_SlaveTimer_SetConfig(TIM_HandleTypeDef *htim,
 228:Drivers/STM32L4xx_HAL_Driver/Src/stm32l4xx_hal_tim.c ****                                                   const TIM_SlaveConfigTypeDef *sSlaveConfig);
 229:Drivers/STM32L4xx_HAL_Driver/Src/stm32l4xx_hal_tim.c **** /**
 230:Drivers/STM32L4xx_HAL_Driver/Src/stm32l4xx_hal_tim.c ****   * @}
 231:Drivers/STM32L4xx_HAL_Driver/Src/stm32l4xx_hal_tim.c ****   */
 232:Drivers/STM32L4xx_HAL_Driver/Src/stm32l4xx_hal_tim.c **** /* Exported functions --------------------------------------------------------*/
 233:Drivers/STM32L4xx_HAL_Driver/Src/stm32l4xx_hal_tim.c **** 
 234:Drivers/STM32L4xx_HAL_Driver/Src/stm32l4xx_hal_tim.c **** /** @defgroup TIM_Exported_Functions TIM Exported Functions
 235:Drivers/STM32L4xx_HAL_Driver/Src/stm32l4xx_hal_tim.c ****   * @{
 236:Drivers/STM32L4xx_HAL_Driver/Src/stm32l4xx_hal_tim.c ****   */
 237:Drivers/STM32L4xx_HAL_Driver/Src/stm32l4xx_hal_tim.c **** 
 238:Drivers/STM32L4xx_HAL_Driver/Src/stm32l4xx_hal_tim.c **** /** @defgroup TIM_Exported_Functions_Group1 TIM Time Base functions
 239:Drivers/STM32L4xx_HAL_Driver/Src/stm32l4xx_hal_tim.c ****   *  @brief    Time Base functions
 240:Drivers/STM32L4xx_HAL_Driver/Src/stm32l4xx_hal_tim.c ****   *
 241:Drivers/STM32L4xx_HAL_Driver/Src/stm32l4xx_hal_tim.c **** @verbatim
 242:Drivers/STM32L4xx_HAL_Driver/Src/stm32l4xx_hal_tim.c ****   ==============================================================================
 243:Drivers/STM32L4xx_HAL_Driver/Src/stm32l4xx_hal_tim.c ****               ##### Time Base functions #####
 244:Drivers/STM32L4xx_HAL_Driver/Src/stm32l4xx_hal_tim.c ****   ==============================================================================
 245:Drivers/STM32L4xx_HAL_Driver/Src/stm32l4xx_hal_tim.c ****   [..]
 246:Drivers/STM32L4xx_HAL_Driver/Src/stm32l4xx_hal_tim.c ****     This section provides functions allowing to:
 247:Drivers/STM32L4xx_HAL_Driver/Src/stm32l4xx_hal_tim.c ****     (+) Initialize and configure the TIM base.
 248:Drivers/STM32L4xx_HAL_Driver/Src/stm32l4xx_hal_tim.c ****     (+) De-initialize the TIM base.
 249:Drivers/STM32L4xx_HAL_Driver/Src/stm32l4xx_hal_tim.c ****     (+) Start the Time Base.
 250:Drivers/STM32L4xx_HAL_Driver/Src/stm32l4xx_hal_tim.c ****     (+) Stop the Time Base.
 251:Drivers/STM32L4xx_HAL_Driver/Src/stm32l4xx_hal_tim.c ****     (+) Start the Time Base and enable interrupt.
 252:Drivers/STM32L4xx_HAL_Driver/Src/stm32l4xx_hal_tim.c ****     (+) Stop the Time Base and disable interrupt.
 253:Drivers/STM32L4xx_HAL_Driver/Src/stm32l4xx_hal_tim.c ****     (+) Start the Time Base and enable DMA transfer.
 254:Drivers/STM32L4xx_HAL_Driver/Src/stm32l4xx_hal_tim.c ****     (+) Stop the Time Base and disable DMA transfer.
 255:Drivers/STM32L4xx_HAL_Driver/Src/stm32l4xx_hal_tim.c **** 
 256:Drivers/STM32L4xx_HAL_Driver/Src/stm32l4xx_hal_tim.c **** @endverbatim
 257:Drivers/STM32L4xx_HAL_Driver/Src/stm32l4xx_hal_tim.c ****   * @{
 258:Drivers/STM32L4xx_HAL_Driver/Src/stm32l4xx_hal_tim.c ****   */
ARM GAS  C:\Users\ep_ygh\AppData\Local\Temp\ccFTC33n.s 			page 6


 259:Drivers/STM32L4xx_HAL_Driver/Src/stm32l4xx_hal_tim.c **** /**
 260:Drivers/STM32L4xx_HAL_Driver/Src/stm32l4xx_hal_tim.c ****   * @brief  Initializes the TIM Time base Unit according to the specified
 261:Drivers/STM32L4xx_HAL_Driver/Src/stm32l4xx_hal_tim.c ****   *         parameters in the TIM_HandleTypeDef and initialize the associated handle.
 262:Drivers/STM32L4xx_HAL_Driver/Src/stm32l4xx_hal_tim.c ****   * @note   Switching from Center Aligned counter mode to Edge counter mode (or reverse)
 263:Drivers/STM32L4xx_HAL_Driver/Src/stm32l4xx_hal_tim.c ****   *         requires a timer reset to avoid unexpected direction
 264:Drivers/STM32L4xx_HAL_Driver/Src/stm32l4xx_hal_tim.c ****   *         due to DIR bit readonly in center aligned mode.
 265:Drivers/STM32L4xx_HAL_Driver/Src/stm32l4xx_hal_tim.c ****   *         Ex: call @ref HAL_TIM_Base_DeInit() before HAL_TIM_Base_Init()
 266:Drivers/STM32L4xx_HAL_Driver/Src/stm32l4xx_hal_tim.c ****   * @param  htim TIM Base handle
 267:Drivers/STM32L4xx_HAL_Driver/Src/stm32l4xx_hal_tim.c ****   * @retval HAL status
 268:Drivers/STM32L4xx_HAL_Driver/Src/stm32l4xx_hal_tim.c ****   */
 269:Drivers/STM32L4xx_HAL_Driver/Src/stm32l4xx_hal_tim.c **** HAL_StatusTypeDef HAL_TIM_Base_Init(TIM_HandleTypeDef *htim)
 270:Drivers/STM32L4xx_HAL_Driver/Src/stm32l4xx_hal_tim.c **** {
  29              		.loc 1 270 1
  30              		.cfi_startproc
  31              		@ args = 0, pretend = 0, frame = 8
  32              		@ frame_needed = 1, uses_anonymous_args = 0
  33 0000 80B5     		push	{r7, lr}
  34              	.LCFI0:
  35              		.cfi_def_cfa_offset 8
  36              		.cfi_offset 7, -8
  37              		.cfi_offset 14, -4
  38 0002 82B0     		sub	sp, sp, #8
  39              	.LCFI1:
  40              		.cfi_def_cfa_offset 16
  41 0004 00AF     		add	r7, sp, #0
  42              	.LCFI2:
  43              		.cfi_def_cfa_register 7
  44 0006 7860     		str	r0, [r7, #4]
 271:Drivers/STM32L4xx_HAL_Driver/Src/stm32l4xx_hal_tim.c ****   /* Check the TIM handle allocation */
 272:Drivers/STM32L4xx_HAL_Driver/Src/stm32l4xx_hal_tim.c ****   if (htim == NULL)
  45              		.loc 1 272 6
  46 0008 7B68     		ldr	r3, [r7, #4]
  47 000a 002B     		cmp	r3, #0
  48 000c 01D1     		bne	.L2
 273:Drivers/STM32L4xx_HAL_Driver/Src/stm32l4xx_hal_tim.c ****   {
 274:Drivers/STM32L4xx_HAL_Driver/Src/stm32l4xx_hal_tim.c ****     return HAL_ERROR;
  49              		.loc 1 274 12
  50 000e 0123     		movs	r3, #1
  51 0010 49E0     		b	.L3
  52              	.L2:
 275:Drivers/STM32L4xx_HAL_Driver/Src/stm32l4xx_hal_tim.c ****   }
 276:Drivers/STM32L4xx_HAL_Driver/Src/stm32l4xx_hal_tim.c **** 
 277:Drivers/STM32L4xx_HAL_Driver/Src/stm32l4xx_hal_tim.c ****   /* Check the parameters */
 278:Drivers/STM32L4xx_HAL_Driver/Src/stm32l4xx_hal_tim.c ****   assert_param(IS_TIM_INSTANCE(htim->Instance));
 279:Drivers/STM32L4xx_HAL_Driver/Src/stm32l4xx_hal_tim.c ****   assert_param(IS_TIM_COUNTER_MODE(htim->Init.CounterMode));
 280:Drivers/STM32L4xx_HAL_Driver/Src/stm32l4xx_hal_tim.c ****   assert_param(IS_TIM_CLOCKDIVISION_DIV(htim->Init.ClockDivision));
 281:Drivers/STM32L4xx_HAL_Driver/Src/stm32l4xx_hal_tim.c ****   assert_param(IS_TIM_PERIOD(htim, htim->Init.Period));
 282:Drivers/STM32L4xx_HAL_Driver/Src/stm32l4xx_hal_tim.c ****   assert_param(IS_TIM_AUTORELOAD_PRELOAD(htim->Init.AutoReloadPreload));
 283:Drivers/STM32L4xx_HAL_Driver/Src/stm32l4xx_hal_tim.c **** 
 284:Drivers/STM32L4xx_HAL_Driver/Src/stm32l4xx_hal_tim.c ****   if (htim->State == HAL_TIM_STATE_RESET)
  53              		.loc 1 284 11
  54 0012 7B68     		ldr	r3, [r7, #4]
  55 0014 93F83D30 		ldrb	r3, [r3, #61]
  56 0018 DBB2     		uxtb	r3, r3
  57              		.loc 1 284 6
  58 001a 002B     		cmp	r3, #0
  59 001c 06D1     		bne	.L4
ARM GAS  C:\Users\ep_ygh\AppData\Local\Temp\ccFTC33n.s 			page 7


 285:Drivers/STM32L4xx_HAL_Driver/Src/stm32l4xx_hal_tim.c ****   {
 286:Drivers/STM32L4xx_HAL_Driver/Src/stm32l4xx_hal_tim.c ****     /* Allocate lock resource and initialize it */
 287:Drivers/STM32L4xx_HAL_Driver/Src/stm32l4xx_hal_tim.c ****     htim->Lock = HAL_UNLOCKED;
  60              		.loc 1 287 16
  61 001e 7B68     		ldr	r3, [r7, #4]
  62 0020 0022     		movs	r2, #0
  63 0022 83F83C20 		strb	r2, [r3, #60]
 288:Drivers/STM32L4xx_HAL_Driver/Src/stm32l4xx_hal_tim.c **** 
 289:Drivers/STM32L4xx_HAL_Driver/Src/stm32l4xx_hal_tim.c **** #if (USE_HAL_TIM_REGISTER_CALLBACKS == 1)
 290:Drivers/STM32L4xx_HAL_Driver/Src/stm32l4xx_hal_tim.c ****     /* Reset interrupt callbacks to legacy weak callbacks */
 291:Drivers/STM32L4xx_HAL_Driver/Src/stm32l4xx_hal_tim.c ****     TIM_ResetCallback(htim);
 292:Drivers/STM32L4xx_HAL_Driver/Src/stm32l4xx_hal_tim.c **** 
 293:Drivers/STM32L4xx_HAL_Driver/Src/stm32l4xx_hal_tim.c ****     if (htim->Base_MspInitCallback == NULL)
 294:Drivers/STM32L4xx_HAL_Driver/Src/stm32l4xx_hal_tim.c ****     {
 295:Drivers/STM32L4xx_HAL_Driver/Src/stm32l4xx_hal_tim.c ****       htim->Base_MspInitCallback = HAL_TIM_Base_MspInit;
 296:Drivers/STM32L4xx_HAL_Driver/Src/stm32l4xx_hal_tim.c ****     }
 297:Drivers/STM32L4xx_HAL_Driver/Src/stm32l4xx_hal_tim.c ****     /* Init the low level hardware : GPIO, CLOCK, NVIC */
 298:Drivers/STM32L4xx_HAL_Driver/Src/stm32l4xx_hal_tim.c ****     htim->Base_MspInitCallback(htim);
 299:Drivers/STM32L4xx_HAL_Driver/Src/stm32l4xx_hal_tim.c **** #else
 300:Drivers/STM32L4xx_HAL_Driver/Src/stm32l4xx_hal_tim.c ****     /* Init the low level hardware : GPIO, CLOCK, NVIC */
 301:Drivers/STM32L4xx_HAL_Driver/Src/stm32l4xx_hal_tim.c ****     HAL_TIM_Base_MspInit(htim);
  64              		.loc 1 301 5
  65 0026 7868     		ldr	r0, [r7, #4]
  66 0028 FFF7FEFF 		bl	HAL_TIM_Base_MspInit
  67              	.L4:
 302:Drivers/STM32L4xx_HAL_Driver/Src/stm32l4xx_hal_tim.c **** #endif /* USE_HAL_TIM_REGISTER_CALLBACKS */
 303:Drivers/STM32L4xx_HAL_Driver/Src/stm32l4xx_hal_tim.c ****   }
 304:Drivers/STM32L4xx_HAL_Driver/Src/stm32l4xx_hal_tim.c **** 
 305:Drivers/STM32L4xx_HAL_Driver/Src/stm32l4xx_hal_tim.c ****   /* Set the TIM state */
 306:Drivers/STM32L4xx_HAL_Driver/Src/stm32l4xx_hal_tim.c ****   htim->State = HAL_TIM_STATE_BUSY;
  68              		.loc 1 306 15
  69 002c 7B68     		ldr	r3, [r7, #4]
  70 002e 0222     		movs	r2, #2
  71 0030 83F83D20 		strb	r2, [r3, #61]
 307:Drivers/STM32L4xx_HAL_Driver/Src/stm32l4xx_hal_tim.c **** 
 308:Drivers/STM32L4xx_HAL_Driver/Src/stm32l4xx_hal_tim.c ****   /* Set the Time Base configuration */
 309:Drivers/STM32L4xx_HAL_Driver/Src/stm32l4xx_hal_tim.c ****   TIM_Base_SetConfig(htim->Instance, &htim->Init);
  72              		.loc 1 309 3
  73 0034 7B68     		ldr	r3, [r7, #4]
  74 0036 1A68     		ldr	r2, [r3]
  75              		.loc 1 309 38
  76 0038 7B68     		ldr	r3, [r7, #4]
  77 003a 0433     		adds	r3, r3, #4
  78              		.loc 1 309 3
  79 003c 1946     		mov	r1, r3
  80 003e 1046     		mov	r0, r2
  81 0040 FFF7FEFF 		bl	TIM_Base_SetConfig
 310:Drivers/STM32L4xx_HAL_Driver/Src/stm32l4xx_hal_tim.c **** 
 311:Drivers/STM32L4xx_HAL_Driver/Src/stm32l4xx_hal_tim.c ****   /* Initialize the DMA burst operation state */
 312:Drivers/STM32L4xx_HAL_Driver/Src/stm32l4xx_hal_tim.c ****   htim->DMABurstState = HAL_DMA_BURST_STATE_READY;
  82              		.loc 1 312 23
  83 0044 7B68     		ldr	r3, [r7, #4]
  84 0046 0122     		movs	r2, #1
  85 0048 83F84820 		strb	r2, [r3, #72]
 313:Drivers/STM32L4xx_HAL_Driver/Src/stm32l4xx_hal_tim.c **** 
 314:Drivers/STM32L4xx_HAL_Driver/Src/stm32l4xx_hal_tim.c ****   /* Initialize the TIM channels state */
 315:Drivers/STM32L4xx_HAL_Driver/Src/stm32l4xx_hal_tim.c ****   TIM_CHANNEL_STATE_SET_ALL(htim, HAL_TIM_CHANNEL_STATE_READY);
ARM GAS  C:\Users\ep_ygh\AppData\Local\Temp\ccFTC33n.s 			page 8


  86              		.loc 1 315 3
  87 004c 7B68     		ldr	r3, [r7, #4]
  88 004e 0122     		movs	r2, #1
  89 0050 83F83E20 		strb	r2, [r3, #62]
  90 0054 7B68     		ldr	r3, [r7, #4]
  91 0056 0122     		movs	r2, #1
  92 0058 83F83F20 		strb	r2, [r3, #63]
  93 005c 7B68     		ldr	r3, [r7, #4]
  94 005e 0122     		movs	r2, #1
  95 0060 83F84020 		strb	r2, [r3, #64]
  96 0064 7B68     		ldr	r3, [r7, #4]
  97 0066 0122     		movs	r2, #1
  98 0068 83F84120 		strb	r2, [r3, #65]
  99 006c 7B68     		ldr	r3, [r7, #4]
 100 006e 0122     		movs	r2, #1
 101 0070 83F84220 		strb	r2, [r3, #66]
 102 0074 7B68     		ldr	r3, [r7, #4]
 103 0076 0122     		movs	r2, #1
 104 0078 83F84320 		strb	r2, [r3, #67]
 316:Drivers/STM32L4xx_HAL_Driver/Src/stm32l4xx_hal_tim.c ****   TIM_CHANNEL_N_STATE_SET_ALL(htim, HAL_TIM_CHANNEL_STATE_READY);
 105              		.loc 1 316 3
 106 007c 7B68     		ldr	r3, [r7, #4]
 107 007e 0122     		movs	r2, #1
 108 0080 83F84420 		strb	r2, [r3, #68]
 109 0084 7B68     		ldr	r3, [r7, #4]
 110 0086 0122     		movs	r2, #1
 111 0088 83F84520 		strb	r2, [r3, #69]
 112 008c 7B68     		ldr	r3, [r7, #4]
 113 008e 0122     		movs	r2, #1
 114 0090 83F84620 		strb	r2, [r3, #70]
 115 0094 7B68     		ldr	r3, [r7, #4]
 116 0096 0122     		movs	r2, #1
 117 0098 83F84720 		strb	r2, [r3, #71]
 317:Drivers/STM32L4xx_HAL_Driver/Src/stm32l4xx_hal_tim.c **** 
 318:Drivers/STM32L4xx_HAL_Driver/Src/stm32l4xx_hal_tim.c ****   /* Initialize the TIM state*/
 319:Drivers/STM32L4xx_HAL_Driver/Src/stm32l4xx_hal_tim.c ****   htim->State = HAL_TIM_STATE_READY;
 118              		.loc 1 319 15
 119 009c 7B68     		ldr	r3, [r7, #4]
 120 009e 0122     		movs	r2, #1
 121 00a0 83F83D20 		strb	r2, [r3, #61]
 320:Drivers/STM32L4xx_HAL_Driver/Src/stm32l4xx_hal_tim.c **** 
 321:Drivers/STM32L4xx_HAL_Driver/Src/stm32l4xx_hal_tim.c ****   return HAL_OK;
 122              		.loc 1 321 10
 123 00a4 0023     		movs	r3, #0
 124              	.L3:
 322:Drivers/STM32L4xx_HAL_Driver/Src/stm32l4xx_hal_tim.c **** }
 125              		.loc 1 322 1
 126 00a6 1846     		mov	r0, r3
 127 00a8 0837     		adds	r7, r7, #8
 128              	.LCFI3:
 129              		.cfi_def_cfa_offset 8
 130 00aa BD46     		mov	sp, r7
 131              	.LCFI4:
 132              		.cfi_def_cfa_register 13
 133              		@ sp needed
 134 00ac 80BD     		pop	{r7, pc}
 135              		.cfi_endproc
ARM GAS  C:\Users\ep_ygh\AppData\Local\Temp\ccFTC33n.s 			page 9


 136              	.LFE317:
 138              		.section	.text.HAL_TIM_Base_DeInit,"ax",%progbits
 139              		.align	1
 140              		.global	HAL_TIM_Base_DeInit
 141              		.syntax unified
 142              		.thumb
 143              		.thumb_func
 145              	HAL_TIM_Base_DeInit:
 146              	.LFB318:
 323:Drivers/STM32L4xx_HAL_Driver/Src/stm32l4xx_hal_tim.c **** 
 324:Drivers/STM32L4xx_HAL_Driver/Src/stm32l4xx_hal_tim.c **** /**
 325:Drivers/STM32L4xx_HAL_Driver/Src/stm32l4xx_hal_tim.c ****   * @brief  DeInitializes the TIM Base peripheral
 326:Drivers/STM32L4xx_HAL_Driver/Src/stm32l4xx_hal_tim.c ****   * @param  htim TIM Base handle
 327:Drivers/STM32L4xx_HAL_Driver/Src/stm32l4xx_hal_tim.c ****   * @retval HAL status
 328:Drivers/STM32L4xx_HAL_Driver/Src/stm32l4xx_hal_tim.c ****   */
 329:Drivers/STM32L4xx_HAL_Driver/Src/stm32l4xx_hal_tim.c **** HAL_StatusTypeDef HAL_TIM_Base_DeInit(TIM_HandleTypeDef *htim)
 330:Drivers/STM32L4xx_HAL_Driver/Src/stm32l4xx_hal_tim.c **** {
 147              		.loc 1 330 1
 148              		.cfi_startproc
 149              		@ args = 0, pretend = 0, frame = 8
 150              		@ frame_needed = 1, uses_anonymous_args = 0
 151 0000 80B5     		push	{r7, lr}
 152              	.LCFI5:
 153              		.cfi_def_cfa_offset 8
 154              		.cfi_offset 7, -8
 155              		.cfi_offset 14, -4
 156 0002 82B0     		sub	sp, sp, #8
 157              	.LCFI6:
 158              		.cfi_def_cfa_offset 16
 159 0004 00AF     		add	r7, sp, #0
 160              	.LCFI7:
 161              		.cfi_def_cfa_register 7
 162 0006 7860     		str	r0, [r7, #4]
 331:Drivers/STM32L4xx_HAL_Driver/Src/stm32l4xx_hal_tim.c ****   /* Check the parameters */
 332:Drivers/STM32L4xx_HAL_Driver/Src/stm32l4xx_hal_tim.c ****   assert_param(IS_TIM_INSTANCE(htim->Instance));
 333:Drivers/STM32L4xx_HAL_Driver/Src/stm32l4xx_hal_tim.c **** 
 334:Drivers/STM32L4xx_HAL_Driver/Src/stm32l4xx_hal_tim.c ****   htim->State = HAL_TIM_STATE_BUSY;
 163              		.loc 1 334 15
 164 0008 7B68     		ldr	r3, [r7, #4]
 165 000a 0222     		movs	r2, #2
 166 000c 83F83D20 		strb	r2, [r3, #61]
 335:Drivers/STM32L4xx_HAL_Driver/Src/stm32l4xx_hal_tim.c **** 
 336:Drivers/STM32L4xx_HAL_Driver/Src/stm32l4xx_hal_tim.c ****   /* Disable the TIM Peripheral Clock */
 337:Drivers/STM32L4xx_HAL_Driver/Src/stm32l4xx_hal_tim.c ****   __HAL_TIM_DISABLE(htim);
 167              		.loc 1 337 3
 168 0010 7B68     		ldr	r3, [r7, #4]
 169 0012 1B68     		ldr	r3, [r3]
 170 0014 1A6A     		ldr	r2, [r3, #32]
 171 0016 41F21113 		movw	r3, #4369
 172 001a 1340     		ands	r3, r3, r2
 173 001c 002B     		cmp	r3, #0
 174 001e 0FD1     		bne	.L6
 175              		.loc 1 337 3 is_stmt 0 discriminator 1
 176 0020 7B68     		ldr	r3, [r7, #4]
 177 0022 1B68     		ldr	r3, [r3]
 178 0024 1A6A     		ldr	r2, [r3, #32]
 179 0026 40F24443 		movw	r3, #1092
ARM GAS  C:\Users\ep_ygh\AppData\Local\Temp\ccFTC33n.s 			page 10


 180 002a 1340     		ands	r3, r3, r2
 181 002c 002B     		cmp	r3, #0
 182 002e 07D1     		bne	.L6
 183              		.loc 1 337 3 discriminator 2
 184 0030 7B68     		ldr	r3, [r7, #4]
 185 0032 1B68     		ldr	r3, [r3]
 186 0034 1A68     		ldr	r2, [r3]
 187 0036 7B68     		ldr	r3, [r7, #4]
 188 0038 1B68     		ldr	r3, [r3]
 189 003a 22F00102 		bic	r2, r2, #1
 190 003e 1A60     		str	r2, [r3]
 191              	.L6:
 338:Drivers/STM32L4xx_HAL_Driver/Src/stm32l4xx_hal_tim.c **** 
 339:Drivers/STM32L4xx_HAL_Driver/Src/stm32l4xx_hal_tim.c **** #if (USE_HAL_TIM_REGISTER_CALLBACKS == 1)
 340:Drivers/STM32L4xx_HAL_Driver/Src/stm32l4xx_hal_tim.c ****   if (htim->Base_MspDeInitCallback == NULL)
 341:Drivers/STM32L4xx_HAL_Driver/Src/stm32l4xx_hal_tim.c ****   {
 342:Drivers/STM32L4xx_HAL_Driver/Src/stm32l4xx_hal_tim.c ****     htim->Base_MspDeInitCallback = HAL_TIM_Base_MspDeInit;
 343:Drivers/STM32L4xx_HAL_Driver/Src/stm32l4xx_hal_tim.c ****   }
 344:Drivers/STM32L4xx_HAL_Driver/Src/stm32l4xx_hal_tim.c ****   /* DeInit the low level hardware */
 345:Drivers/STM32L4xx_HAL_Driver/Src/stm32l4xx_hal_tim.c ****   htim->Base_MspDeInitCallback(htim);
 346:Drivers/STM32L4xx_HAL_Driver/Src/stm32l4xx_hal_tim.c **** #else
 347:Drivers/STM32L4xx_HAL_Driver/Src/stm32l4xx_hal_tim.c ****   /* DeInit the low level hardware: GPIO, CLOCK, NVIC */
 348:Drivers/STM32L4xx_HAL_Driver/Src/stm32l4xx_hal_tim.c ****   HAL_TIM_Base_MspDeInit(htim);
 192              		.loc 1 348 3 is_stmt 1
 193 0040 7868     		ldr	r0, [r7, #4]
 194 0042 FFF7FEFF 		bl	HAL_TIM_Base_MspDeInit
 349:Drivers/STM32L4xx_HAL_Driver/Src/stm32l4xx_hal_tim.c **** #endif /* USE_HAL_TIM_REGISTER_CALLBACKS */
 350:Drivers/STM32L4xx_HAL_Driver/Src/stm32l4xx_hal_tim.c **** 
 351:Drivers/STM32L4xx_HAL_Driver/Src/stm32l4xx_hal_tim.c ****   /* Change the DMA burst operation state */
 352:Drivers/STM32L4xx_HAL_Driver/Src/stm32l4xx_hal_tim.c ****   htim->DMABurstState = HAL_DMA_BURST_STATE_RESET;
 195              		.loc 1 352 23
 196 0046 7B68     		ldr	r3, [r7, #4]
 197 0048 0022     		movs	r2, #0
 198 004a 83F84820 		strb	r2, [r3, #72]
 353:Drivers/STM32L4xx_HAL_Driver/Src/stm32l4xx_hal_tim.c **** 
 354:Drivers/STM32L4xx_HAL_Driver/Src/stm32l4xx_hal_tim.c ****   /* Change the TIM channels state */
 355:Drivers/STM32L4xx_HAL_Driver/Src/stm32l4xx_hal_tim.c ****   TIM_CHANNEL_STATE_SET_ALL(htim, HAL_TIM_CHANNEL_STATE_RESET);
 199              		.loc 1 355 3
 200 004e 7B68     		ldr	r3, [r7, #4]
 201 0050 0022     		movs	r2, #0
 202 0052 83F83E20 		strb	r2, [r3, #62]
 203 0056 7B68     		ldr	r3, [r7, #4]
 204 0058 0022     		movs	r2, #0
 205 005a 83F83F20 		strb	r2, [r3, #63]
 206 005e 7B68     		ldr	r3, [r7, #4]
 207 0060 0022     		movs	r2, #0
 208 0062 83F84020 		strb	r2, [r3, #64]
 209 0066 7B68     		ldr	r3, [r7, #4]
 210 0068 0022     		movs	r2, #0
 211 006a 83F84120 		strb	r2, [r3, #65]
 212 006e 7B68     		ldr	r3, [r7, #4]
 213 0070 0022     		movs	r2, #0
 214 0072 83F84220 		strb	r2, [r3, #66]
 215 0076 7B68     		ldr	r3, [r7, #4]
 216 0078 0022     		movs	r2, #0
 217 007a 83F84320 		strb	r2, [r3, #67]
 356:Drivers/STM32L4xx_HAL_Driver/Src/stm32l4xx_hal_tim.c ****   TIM_CHANNEL_N_STATE_SET_ALL(htim, HAL_TIM_CHANNEL_STATE_RESET);
ARM GAS  C:\Users\ep_ygh\AppData\Local\Temp\ccFTC33n.s 			page 11


 218              		.loc 1 356 3
 219 007e 7B68     		ldr	r3, [r7, #4]
 220 0080 0022     		movs	r2, #0
 221 0082 83F84420 		strb	r2, [r3, #68]
 222 0086 7B68     		ldr	r3, [r7, #4]
 223 0088 0022     		movs	r2, #0
 224 008a 83F84520 		strb	r2, [r3, #69]
 225 008e 7B68     		ldr	r3, [r7, #4]
 226 0090 0022     		movs	r2, #0
 227 0092 83F84620 		strb	r2, [r3, #70]
 228 0096 7B68     		ldr	r3, [r7, #4]
 229 0098 0022     		movs	r2, #0
 230 009a 83F84720 		strb	r2, [r3, #71]
 357:Drivers/STM32L4xx_HAL_Driver/Src/stm32l4xx_hal_tim.c **** 
 358:Drivers/STM32L4xx_HAL_Driver/Src/stm32l4xx_hal_tim.c ****   /* Change TIM state */
 359:Drivers/STM32L4xx_HAL_Driver/Src/stm32l4xx_hal_tim.c ****   htim->State = HAL_TIM_STATE_RESET;
 231              		.loc 1 359 15
 232 009e 7B68     		ldr	r3, [r7, #4]
 233 00a0 0022     		movs	r2, #0
 234 00a2 83F83D20 		strb	r2, [r3, #61]
 360:Drivers/STM32L4xx_HAL_Driver/Src/stm32l4xx_hal_tim.c **** 
 361:Drivers/STM32L4xx_HAL_Driver/Src/stm32l4xx_hal_tim.c ****   /* Release Lock */
 362:Drivers/STM32L4xx_HAL_Driver/Src/stm32l4xx_hal_tim.c ****   __HAL_UNLOCK(htim);
 235              		.loc 1 362 3
 236 00a6 7B68     		ldr	r3, [r7, #4]
 237 00a8 0022     		movs	r2, #0
 238 00aa 83F83C20 		strb	r2, [r3, #60]
 363:Drivers/STM32L4xx_HAL_Driver/Src/stm32l4xx_hal_tim.c **** 
 364:Drivers/STM32L4xx_HAL_Driver/Src/stm32l4xx_hal_tim.c ****   return HAL_OK;
 239              		.loc 1 364 10
 240 00ae 0023     		movs	r3, #0
 365:Drivers/STM32L4xx_HAL_Driver/Src/stm32l4xx_hal_tim.c **** }
 241              		.loc 1 365 1
 242 00b0 1846     		mov	r0, r3
 243 00b2 0837     		adds	r7, r7, #8
 244              	.LCFI8:
 245              		.cfi_def_cfa_offset 8
 246 00b4 BD46     		mov	sp, r7
 247              	.LCFI9:
 248              		.cfi_def_cfa_register 13
 249              		@ sp needed
 250 00b6 80BD     		pop	{r7, pc}
 251              		.cfi_endproc
 252              	.LFE318:
 254              		.section	.text.HAL_TIM_Base_MspInit,"ax",%progbits
 255              		.align	1
 256              		.weak	HAL_TIM_Base_MspInit
 257              		.syntax unified
 258              		.thumb
 259              		.thumb_func
 261              	HAL_TIM_Base_MspInit:
 262              	.LFB319:
 366:Drivers/STM32L4xx_HAL_Driver/Src/stm32l4xx_hal_tim.c **** 
 367:Drivers/STM32L4xx_HAL_Driver/Src/stm32l4xx_hal_tim.c **** /**
 368:Drivers/STM32L4xx_HAL_Driver/Src/stm32l4xx_hal_tim.c ****   * @brief  Initializes the TIM Base MSP.
 369:Drivers/STM32L4xx_HAL_Driver/Src/stm32l4xx_hal_tim.c ****   * @param  htim TIM Base handle
 370:Drivers/STM32L4xx_HAL_Driver/Src/stm32l4xx_hal_tim.c ****   * @retval None
ARM GAS  C:\Users\ep_ygh\AppData\Local\Temp\ccFTC33n.s 			page 12


 371:Drivers/STM32L4xx_HAL_Driver/Src/stm32l4xx_hal_tim.c ****   */
 372:Drivers/STM32L4xx_HAL_Driver/Src/stm32l4xx_hal_tim.c **** __weak void HAL_TIM_Base_MspInit(TIM_HandleTypeDef *htim)
 373:Drivers/STM32L4xx_HAL_Driver/Src/stm32l4xx_hal_tim.c **** {
 263              		.loc 1 373 1
 264              		.cfi_startproc
 265              		@ args = 0, pretend = 0, frame = 8
 266              		@ frame_needed = 1, uses_anonymous_args = 0
 267              		@ link register save eliminated.
 268 0000 80B4     		push	{r7}
 269              	.LCFI10:
 270              		.cfi_def_cfa_offset 4
 271              		.cfi_offset 7, -4
 272 0002 83B0     		sub	sp, sp, #12
 273              	.LCFI11:
 274              		.cfi_def_cfa_offset 16
 275 0004 00AF     		add	r7, sp, #0
 276              	.LCFI12:
 277              		.cfi_def_cfa_register 7
 278 0006 7860     		str	r0, [r7, #4]
 374:Drivers/STM32L4xx_HAL_Driver/Src/stm32l4xx_hal_tim.c ****   /* Prevent unused argument(s) compilation warning */
 375:Drivers/STM32L4xx_HAL_Driver/Src/stm32l4xx_hal_tim.c ****   UNUSED(htim);
 376:Drivers/STM32L4xx_HAL_Driver/Src/stm32l4xx_hal_tim.c **** 
 377:Drivers/STM32L4xx_HAL_Driver/Src/stm32l4xx_hal_tim.c ****   /* NOTE : This function should not be modified, when the callback is needed,
 378:Drivers/STM32L4xx_HAL_Driver/Src/stm32l4xx_hal_tim.c ****             the HAL_TIM_Base_MspInit could be implemented in the user file
 379:Drivers/STM32L4xx_HAL_Driver/Src/stm32l4xx_hal_tim.c ****    */
 380:Drivers/STM32L4xx_HAL_Driver/Src/stm32l4xx_hal_tim.c **** }
 279              		.loc 1 380 1
 280 0008 00BF     		nop
 281 000a 0C37     		adds	r7, r7, #12
 282              	.LCFI13:
 283              		.cfi_def_cfa_offset 4
 284 000c BD46     		mov	sp, r7
 285              	.LCFI14:
 286              		.cfi_def_cfa_register 13
 287              		@ sp needed
 288 000e 5DF8047B 		ldr	r7, [sp], #4
 289              	.LCFI15:
 290              		.cfi_restore 7
 291              		.cfi_def_cfa_offset 0
 292 0012 7047     		bx	lr
 293              		.cfi_endproc
 294              	.LFE319:
 296              		.section	.text.HAL_TIM_Base_MspDeInit,"ax",%progbits
 297              		.align	1
 298              		.weak	HAL_TIM_Base_MspDeInit
 299              		.syntax unified
 300              		.thumb
 301              		.thumb_func
 303              	HAL_TIM_Base_MspDeInit:
 304              	.LFB320:
 381:Drivers/STM32L4xx_HAL_Driver/Src/stm32l4xx_hal_tim.c **** 
 382:Drivers/STM32L4xx_HAL_Driver/Src/stm32l4xx_hal_tim.c **** /**
 383:Drivers/STM32L4xx_HAL_Driver/Src/stm32l4xx_hal_tim.c ****   * @brief  DeInitializes TIM Base MSP.
 384:Drivers/STM32L4xx_HAL_Driver/Src/stm32l4xx_hal_tim.c ****   * @param  htim TIM Base handle
 385:Drivers/STM32L4xx_HAL_Driver/Src/stm32l4xx_hal_tim.c ****   * @retval None
 386:Drivers/STM32L4xx_HAL_Driver/Src/stm32l4xx_hal_tim.c ****   */
 387:Drivers/STM32L4xx_HAL_Driver/Src/stm32l4xx_hal_tim.c **** __weak void HAL_TIM_Base_MspDeInit(TIM_HandleTypeDef *htim)
ARM GAS  C:\Users\ep_ygh\AppData\Local\Temp\ccFTC33n.s 			page 13


 388:Drivers/STM32L4xx_HAL_Driver/Src/stm32l4xx_hal_tim.c **** {
 305              		.loc 1 388 1
 306              		.cfi_startproc
 307              		@ args = 0, pretend = 0, frame = 8
 308              		@ frame_needed = 1, uses_anonymous_args = 0
 309              		@ link register save eliminated.
 310 0000 80B4     		push	{r7}
 311              	.LCFI16:
 312              		.cfi_def_cfa_offset 4
 313              		.cfi_offset 7, -4
 314 0002 83B0     		sub	sp, sp, #12
 315              	.LCFI17:
 316              		.cfi_def_cfa_offset 16
 317 0004 00AF     		add	r7, sp, #0
 318              	.LCFI18:
 319              		.cfi_def_cfa_register 7
 320 0006 7860     		str	r0, [r7, #4]
 389:Drivers/STM32L4xx_HAL_Driver/Src/stm32l4xx_hal_tim.c ****   /* Prevent unused argument(s) compilation warning */
 390:Drivers/STM32L4xx_HAL_Driver/Src/stm32l4xx_hal_tim.c ****   UNUSED(htim);
 391:Drivers/STM32L4xx_HAL_Driver/Src/stm32l4xx_hal_tim.c **** 
 392:Drivers/STM32L4xx_HAL_Driver/Src/stm32l4xx_hal_tim.c ****   /* NOTE : This function should not be modified, when the callback is needed,
 393:Drivers/STM32L4xx_HAL_Driver/Src/stm32l4xx_hal_tim.c ****             the HAL_TIM_Base_MspDeInit could be implemented in the user file
 394:Drivers/STM32L4xx_HAL_Driver/Src/stm32l4xx_hal_tim.c ****    */
 395:Drivers/STM32L4xx_HAL_Driver/Src/stm32l4xx_hal_tim.c **** }
 321              		.loc 1 395 1
 322 0008 00BF     		nop
 323 000a 0C37     		adds	r7, r7, #12
 324              	.LCFI19:
 325              		.cfi_def_cfa_offset 4
 326 000c BD46     		mov	sp, r7
 327              	.LCFI20:
 328              		.cfi_def_cfa_register 13
 329              		@ sp needed
 330 000e 5DF8047B 		ldr	r7, [sp], #4
 331              	.LCFI21:
 332              		.cfi_restore 7
 333              		.cfi_def_cfa_offset 0
 334 0012 7047     		bx	lr
 335              		.cfi_endproc
 336              	.LFE320:
 338              		.section	.text.HAL_TIM_Base_Start,"ax",%progbits
 339              		.align	1
 340              		.global	HAL_TIM_Base_Start
 341              		.syntax unified
 342              		.thumb
 343              		.thumb_func
 345              	HAL_TIM_Base_Start:
 346              	.LFB321:
 396:Drivers/STM32L4xx_HAL_Driver/Src/stm32l4xx_hal_tim.c **** 
 397:Drivers/STM32L4xx_HAL_Driver/Src/stm32l4xx_hal_tim.c **** 
 398:Drivers/STM32L4xx_HAL_Driver/Src/stm32l4xx_hal_tim.c **** /**
 399:Drivers/STM32L4xx_HAL_Driver/Src/stm32l4xx_hal_tim.c ****   * @brief  Starts the TIM Base generation.
 400:Drivers/STM32L4xx_HAL_Driver/Src/stm32l4xx_hal_tim.c ****   * @param  htim TIM Base handle
 401:Drivers/STM32L4xx_HAL_Driver/Src/stm32l4xx_hal_tim.c ****   * @retval HAL status
 402:Drivers/STM32L4xx_HAL_Driver/Src/stm32l4xx_hal_tim.c ****   */
 403:Drivers/STM32L4xx_HAL_Driver/Src/stm32l4xx_hal_tim.c **** HAL_StatusTypeDef HAL_TIM_Base_Start(TIM_HandleTypeDef *htim)
 404:Drivers/STM32L4xx_HAL_Driver/Src/stm32l4xx_hal_tim.c **** {
ARM GAS  C:\Users\ep_ygh\AppData\Local\Temp\ccFTC33n.s 			page 14


 347              		.loc 1 404 1
 348              		.cfi_startproc
 349              		@ args = 0, pretend = 0, frame = 16
 350              		@ frame_needed = 1, uses_anonymous_args = 0
 351              		@ link register save eliminated.
 352 0000 80B4     		push	{r7}
 353              	.LCFI22:
 354              		.cfi_def_cfa_offset 4
 355              		.cfi_offset 7, -4
 356 0002 85B0     		sub	sp, sp, #20
 357              	.LCFI23:
 358              		.cfi_def_cfa_offset 24
 359 0004 00AF     		add	r7, sp, #0
 360              	.LCFI24:
 361              		.cfi_def_cfa_register 7
 362 0006 7860     		str	r0, [r7, #4]
 405:Drivers/STM32L4xx_HAL_Driver/Src/stm32l4xx_hal_tim.c ****   uint32_t tmpsmcr;
 406:Drivers/STM32L4xx_HAL_Driver/Src/stm32l4xx_hal_tim.c **** 
 407:Drivers/STM32L4xx_HAL_Driver/Src/stm32l4xx_hal_tim.c ****   /* Check the parameters */
 408:Drivers/STM32L4xx_HAL_Driver/Src/stm32l4xx_hal_tim.c ****   assert_param(IS_TIM_INSTANCE(htim->Instance));
 409:Drivers/STM32L4xx_HAL_Driver/Src/stm32l4xx_hal_tim.c **** 
 410:Drivers/STM32L4xx_HAL_Driver/Src/stm32l4xx_hal_tim.c ****   /* Check the TIM state */
 411:Drivers/STM32L4xx_HAL_Driver/Src/stm32l4xx_hal_tim.c ****   if (htim->State != HAL_TIM_STATE_READY)
 363              		.loc 1 411 11
 364 0008 7B68     		ldr	r3, [r7, #4]
 365 000a 93F83D30 		ldrb	r3, [r3, #61]
 366 000e DBB2     		uxtb	r3, r3
 367              		.loc 1 411 6
 368 0010 012B     		cmp	r3, #1
 369 0012 01D0     		beq	.L11
 412:Drivers/STM32L4xx_HAL_Driver/Src/stm32l4xx_hal_tim.c ****   {
 413:Drivers/STM32L4xx_HAL_Driver/Src/stm32l4xx_hal_tim.c ****     return HAL_ERROR;
 370              		.loc 1 413 12
 371 0014 0123     		movs	r3, #1
 372 0016 47E0     		b	.L12
 373              	.L11:
 414:Drivers/STM32L4xx_HAL_Driver/Src/stm32l4xx_hal_tim.c ****   }
 415:Drivers/STM32L4xx_HAL_Driver/Src/stm32l4xx_hal_tim.c **** 
 416:Drivers/STM32L4xx_HAL_Driver/Src/stm32l4xx_hal_tim.c ****   /* Set the TIM state */
 417:Drivers/STM32L4xx_HAL_Driver/Src/stm32l4xx_hal_tim.c ****   htim->State = HAL_TIM_STATE_BUSY;
 374              		.loc 1 417 15
 375 0018 7B68     		ldr	r3, [r7, #4]
 376 001a 0222     		movs	r2, #2
 377 001c 83F83D20 		strb	r2, [r3, #61]
 418:Drivers/STM32L4xx_HAL_Driver/Src/stm32l4xx_hal_tim.c **** 
 419:Drivers/STM32L4xx_HAL_Driver/Src/stm32l4xx_hal_tim.c ****   /* Enable the Peripheral, except in trigger mode where enable is automatically done with trigger 
 420:Drivers/STM32L4xx_HAL_Driver/Src/stm32l4xx_hal_tim.c ****   if (IS_TIM_SLAVE_INSTANCE(htim->Instance))
 378              		.loc 1 420 7
 379 0020 7B68     		ldr	r3, [r7, #4]
 380 0022 1B68     		ldr	r3, [r3]
 381              		.loc 1 420 6
 382 0024 234A     		ldr	r2, .L18
 383 0026 9342     		cmp	r3, r2
 384 0028 1DD0     		beq	.L13
 385              		.loc 1 420 7 discriminator 1
 386 002a 7B68     		ldr	r3, [r7, #4]
 387 002c 1B68     		ldr	r3, [r3]
ARM GAS  C:\Users\ep_ygh\AppData\Local\Temp\ccFTC33n.s 			page 15


 388 002e B3F1804F 		cmp	r3, #1073741824
 389 0032 18D0     		beq	.L13
 390              		.loc 1 420 7 is_stmt 0 discriminator 2
 391 0034 7B68     		ldr	r3, [r7, #4]
 392 0036 1B68     		ldr	r3, [r3]
 393 0038 1F4A     		ldr	r2, .L18+4
 394 003a 9342     		cmp	r3, r2
 395 003c 13D0     		beq	.L13
 396              		.loc 1 420 7 discriminator 3
 397 003e 7B68     		ldr	r3, [r7, #4]
 398 0040 1B68     		ldr	r3, [r3]
 399 0042 1E4A     		ldr	r2, .L18+8
 400 0044 9342     		cmp	r3, r2
 401 0046 0ED0     		beq	.L13
 402              		.loc 1 420 7 discriminator 4
 403 0048 7B68     		ldr	r3, [r7, #4]
 404 004a 1B68     		ldr	r3, [r3]
 405 004c 1C4A     		ldr	r2, .L18+12
 406 004e 9342     		cmp	r3, r2
 407 0050 09D0     		beq	.L13
 408              		.loc 1 420 7 discriminator 5
 409 0052 7B68     		ldr	r3, [r7, #4]
 410 0054 1B68     		ldr	r3, [r3]
 411 0056 1B4A     		ldr	r2, .L18+16
 412 0058 9342     		cmp	r3, r2
 413 005a 04D0     		beq	.L13
 414              		.loc 1 420 7 discriminator 6
 415 005c 7B68     		ldr	r3, [r7, #4]
 416 005e 1B68     		ldr	r3, [r3]
 417 0060 194A     		ldr	r2, .L18+20
 418 0062 9342     		cmp	r3, r2
 419 0064 15D1     		bne	.L14
 420              	.L13:
 421:Drivers/STM32L4xx_HAL_Driver/Src/stm32l4xx_hal_tim.c ****   {
 422:Drivers/STM32L4xx_HAL_Driver/Src/stm32l4xx_hal_tim.c ****     tmpsmcr = htim->Instance->SMCR & TIM_SMCR_SMS;
 421              		.loc 1 422 19 is_stmt 1
 422 0066 7B68     		ldr	r3, [r7, #4]
 423 0068 1B68     		ldr	r3, [r3]
 424              		.loc 1 422 29
 425 006a 9A68     		ldr	r2, [r3, #8]
 426              		.loc 1 422 13
 427 006c 174B     		ldr	r3, .L18+24
 428 006e 1340     		ands	r3, r3, r2
 429 0070 FB60     		str	r3, [r7, #12]
 423:Drivers/STM32L4xx_HAL_Driver/Src/stm32l4xx_hal_tim.c ****     if (!IS_TIM_SLAVEMODE_TRIGGER_ENABLED(tmpsmcr))
 430              		.loc 1 423 8
 431 0072 FB68     		ldr	r3, [r7, #12]
 432 0074 062B     		cmp	r3, #6
 433 0076 15D0     		beq	.L17
 434              		.loc 1 423 9 discriminator 1
 435 0078 FB68     		ldr	r3, [r7, #12]
 436 007a B3F5803F 		cmp	r3, #65536
 437 007e 11D0     		beq	.L17
 424:Drivers/STM32L4xx_HAL_Driver/Src/stm32l4xx_hal_tim.c ****     {
 425:Drivers/STM32L4xx_HAL_Driver/Src/stm32l4xx_hal_tim.c ****       __HAL_TIM_ENABLE(htim);
 438              		.loc 1 425 7
 439 0080 7B68     		ldr	r3, [r7, #4]
ARM GAS  C:\Users\ep_ygh\AppData\Local\Temp\ccFTC33n.s 			page 16


 440 0082 1B68     		ldr	r3, [r3]
 441 0084 1A68     		ldr	r2, [r3]
 442 0086 7B68     		ldr	r3, [r7, #4]
 443 0088 1B68     		ldr	r3, [r3]
 444 008a 42F00102 		orr	r2, r2, #1
 445 008e 1A60     		str	r2, [r3]
 423:Drivers/STM32L4xx_HAL_Driver/Src/stm32l4xx_hal_tim.c ****     if (!IS_TIM_SLAVEMODE_TRIGGER_ENABLED(tmpsmcr))
 446              		.loc 1 423 8
 447 0090 08E0     		b	.L17
 448              	.L14:
 426:Drivers/STM32L4xx_HAL_Driver/Src/stm32l4xx_hal_tim.c ****     }
 427:Drivers/STM32L4xx_HAL_Driver/Src/stm32l4xx_hal_tim.c ****   }
 428:Drivers/STM32L4xx_HAL_Driver/Src/stm32l4xx_hal_tim.c ****   else
 429:Drivers/STM32L4xx_HAL_Driver/Src/stm32l4xx_hal_tim.c ****   {
 430:Drivers/STM32L4xx_HAL_Driver/Src/stm32l4xx_hal_tim.c ****     __HAL_TIM_ENABLE(htim);
 449              		.loc 1 430 5
 450 0092 7B68     		ldr	r3, [r7, #4]
 451 0094 1B68     		ldr	r3, [r3]
 452 0096 1A68     		ldr	r2, [r3]
 453 0098 7B68     		ldr	r3, [r7, #4]
 454 009a 1B68     		ldr	r3, [r3]
 455 009c 42F00102 		orr	r2, r2, #1
 456 00a0 1A60     		str	r2, [r3]
 457 00a2 00E0     		b	.L16
 458              	.L17:
 423:Drivers/STM32L4xx_HAL_Driver/Src/stm32l4xx_hal_tim.c ****     {
 459              		.loc 1 423 8
 460 00a4 00BF     		nop
 461              	.L16:
 431:Drivers/STM32L4xx_HAL_Driver/Src/stm32l4xx_hal_tim.c ****   }
 432:Drivers/STM32L4xx_HAL_Driver/Src/stm32l4xx_hal_tim.c **** 
 433:Drivers/STM32L4xx_HAL_Driver/Src/stm32l4xx_hal_tim.c ****   /* Return function status */
 434:Drivers/STM32L4xx_HAL_Driver/Src/stm32l4xx_hal_tim.c ****   return HAL_OK;
 462              		.loc 1 434 10
 463 00a6 0023     		movs	r3, #0
 464              	.L12:
 435:Drivers/STM32L4xx_HAL_Driver/Src/stm32l4xx_hal_tim.c **** }
 465              		.loc 1 435 1
 466 00a8 1846     		mov	r0, r3
 467 00aa 1437     		adds	r7, r7, #20
 468              	.LCFI25:
 469              		.cfi_def_cfa_offset 4
 470 00ac BD46     		mov	sp, r7
 471              	.LCFI26:
 472              		.cfi_def_cfa_register 13
 473              		@ sp needed
 474 00ae 5DF8047B 		ldr	r7, [sp], #4
 475              	.LCFI27:
 476              		.cfi_restore 7
 477              		.cfi_def_cfa_offset 0
 478 00b2 7047     		bx	lr
 479              	.L19:
 480              		.align	2
 481              	.L18:
 482 00b4 002C0140 		.word	1073818624
 483 00b8 00040040 		.word	1073742848
 484 00bc 00080040 		.word	1073743872
ARM GAS  C:\Users\ep_ygh\AppData\Local\Temp\ccFTC33n.s 			page 17


 485 00c0 000C0040 		.word	1073744896
 486 00c4 00340140 		.word	1073820672
 487 00c8 00400140 		.word	1073823744
 488 00cc 07000100 		.word	65543
 489              		.cfi_endproc
 490              	.LFE321:
 492              		.section	.text.HAL_TIM_Base_Stop,"ax",%progbits
 493              		.align	1
 494              		.global	HAL_TIM_Base_Stop
 495              		.syntax unified
 496              		.thumb
 497              		.thumb_func
 499              	HAL_TIM_Base_Stop:
 500              	.LFB322:
 436:Drivers/STM32L4xx_HAL_Driver/Src/stm32l4xx_hal_tim.c **** 
 437:Drivers/STM32L4xx_HAL_Driver/Src/stm32l4xx_hal_tim.c **** /**
 438:Drivers/STM32L4xx_HAL_Driver/Src/stm32l4xx_hal_tim.c ****   * @brief  Stops the TIM Base generation.
 439:Drivers/STM32L4xx_HAL_Driver/Src/stm32l4xx_hal_tim.c ****   * @param  htim TIM Base handle
 440:Drivers/STM32L4xx_HAL_Driver/Src/stm32l4xx_hal_tim.c ****   * @retval HAL status
 441:Drivers/STM32L4xx_HAL_Driver/Src/stm32l4xx_hal_tim.c ****   */
 442:Drivers/STM32L4xx_HAL_Driver/Src/stm32l4xx_hal_tim.c **** HAL_StatusTypeDef HAL_TIM_Base_Stop(TIM_HandleTypeDef *htim)
 443:Drivers/STM32L4xx_HAL_Driver/Src/stm32l4xx_hal_tim.c **** {
 501              		.loc 1 443 1
 502              		.cfi_startproc
 503              		@ args = 0, pretend = 0, frame = 8
 504              		@ frame_needed = 1, uses_anonymous_args = 0
 505              		@ link register save eliminated.
 506 0000 80B4     		push	{r7}
 507              	.LCFI28:
 508              		.cfi_def_cfa_offset 4
 509              		.cfi_offset 7, -4
 510 0002 83B0     		sub	sp, sp, #12
 511              	.LCFI29:
 512              		.cfi_def_cfa_offset 16
 513 0004 00AF     		add	r7, sp, #0
 514              	.LCFI30:
 515              		.cfi_def_cfa_register 7
 516 0006 7860     		str	r0, [r7, #4]
 444:Drivers/STM32L4xx_HAL_Driver/Src/stm32l4xx_hal_tim.c ****   /* Check the parameters */
 445:Drivers/STM32L4xx_HAL_Driver/Src/stm32l4xx_hal_tim.c ****   assert_param(IS_TIM_INSTANCE(htim->Instance));
 446:Drivers/STM32L4xx_HAL_Driver/Src/stm32l4xx_hal_tim.c **** 
 447:Drivers/STM32L4xx_HAL_Driver/Src/stm32l4xx_hal_tim.c ****   /* Disable the Peripheral */
 448:Drivers/STM32L4xx_HAL_Driver/Src/stm32l4xx_hal_tim.c ****   __HAL_TIM_DISABLE(htim);
 517              		.loc 1 448 3
 518 0008 7B68     		ldr	r3, [r7, #4]
 519 000a 1B68     		ldr	r3, [r3]
 520 000c 1A6A     		ldr	r2, [r3, #32]
 521 000e 41F21113 		movw	r3, #4369
 522 0012 1340     		ands	r3, r3, r2
 523 0014 002B     		cmp	r3, #0
 524 0016 0FD1     		bne	.L21
 525              		.loc 1 448 3 is_stmt 0 discriminator 1
 526 0018 7B68     		ldr	r3, [r7, #4]
 527 001a 1B68     		ldr	r3, [r3]
 528 001c 1A6A     		ldr	r2, [r3, #32]
 529 001e 40F24443 		movw	r3, #1092
 530 0022 1340     		ands	r3, r3, r2
ARM GAS  C:\Users\ep_ygh\AppData\Local\Temp\ccFTC33n.s 			page 18


 531 0024 002B     		cmp	r3, #0
 532 0026 07D1     		bne	.L21
 533              		.loc 1 448 3 discriminator 2
 534 0028 7B68     		ldr	r3, [r7, #4]
 535 002a 1B68     		ldr	r3, [r3]
 536 002c 1A68     		ldr	r2, [r3]
 537 002e 7B68     		ldr	r3, [r7, #4]
 538 0030 1B68     		ldr	r3, [r3]
 539 0032 22F00102 		bic	r2, r2, #1
 540 0036 1A60     		str	r2, [r3]
 541              	.L21:
 449:Drivers/STM32L4xx_HAL_Driver/Src/stm32l4xx_hal_tim.c **** 
 450:Drivers/STM32L4xx_HAL_Driver/Src/stm32l4xx_hal_tim.c ****   /* Set the TIM state */
 451:Drivers/STM32L4xx_HAL_Driver/Src/stm32l4xx_hal_tim.c ****   htim->State = HAL_TIM_STATE_READY;
 542              		.loc 1 451 15 is_stmt 1
 543 0038 7B68     		ldr	r3, [r7, #4]
 544 003a 0122     		movs	r2, #1
 545 003c 83F83D20 		strb	r2, [r3, #61]
 452:Drivers/STM32L4xx_HAL_Driver/Src/stm32l4xx_hal_tim.c **** 
 453:Drivers/STM32L4xx_HAL_Driver/Src/stm32l4xx_hal_tim.c ****   /* Return function status */
 454:Drivers/STM32L4xx_HAL_Driver/Src/stm32l4xx_hal_tim.c ****   return HAL_OK;
 546              		.loc 1 454 10
 547 0040 0023     		movs	r3, #0
 455:Drivers/STM32L4xx_HAL_Driver/Src/stm32l4xx_hal_tim.c **** }
 548              		.loc 1 455 1
 549 0042 1846     		mov	r0, r3
 550 0044 0C37     		adds	r7, r7, #12
 551              	.LCFI31:
 552              		.cfi_def_cfa_offset 4
 553 0046 BD46     		mov	sp, r7
 554              	.LCFI32:
 555              		.cfi_def_cfa_register 13
 556              		@ sp needed
 557 0048 5DF8047B 		ldr	r7, [sp], #4
 558              	.LCFI33:
 559              		.cfi_restore 7
 560              		.cfi_def_cfa_offset 0
 561 004c 7047     		bx	lr
 562              		.cfi_endproc
 563              	.LFE322:
 565              		.section	.text.HAL_TIM_Base_Start_IT,"ax",%progbits
 566              		.align	1
 567              		.global	HAL_TIM_Base_Start_IT
 568              		.syntax unified
 569              		.thumb
 570              		.thumb_func
 572              	HAL_TIM_Base_Start_IT:
 573              	.LFB323:
 456:Drivers/STM32L4xx_HAL_Driver/Src/stm32l4xx_hal_tim.c **** 
 457:Drivers/STM32L4xx_HAL_Driver/Src/stm32l4xx_hal_tim.c **** /**
 458:Drivers/STM32L4xx_HAL_Driver/Src/stm32l4xx_hal_tim.c ****   * @brief  Starts the TIM Base generation in interrupt mode.
 459:Drivers/STM32L4xx_HAL_Driver/Src/stm32l4xx_hal_tim.c ****   * @param  htim TIM Base handle
 460:Drivers/STM32L4xx_HAL_Driver/Src/stm32l4xx_hal_tim.c ****   * @retval HAL status
 461:Drivers/STM32L4xx_HAL_Driver/Src/stm32l4xx_hal_tim.c ****   */
 462:Drivers/STM32L4xx_HAL_Driver/Src/stm32l4xx_hal_tim.c **** HAL_StatusTypeDef HAL_TIM_Base_Start_IT(TIM_HandleTypeDef *htim)
 463:Drivers/STM32L4xx_HAL_Driver/Src/stm32l4xx_hal_tim.c **** {
 574              		.loc 1 463 1
ARM GAS  C:\Users\ep_ygh\AppData\Local\Temp\ccFTC33n.s 			page 19


 575              		.cfi_startproc
 576              		@ args = 0, pretend = 0, frame = 16
 577              		@ frame_needed = 1, uses_anonymous_args = 0
 578              		@ link register save eliminated.
 579 0000 80B4     		push	{r7}
 580              	.LCFI34:
 581              		.cfi_def_cfa_offset 4
 582              		.cfi_offset 7, -4
 583 0002 85B0     		sub	sp, sp, #20
 584              	.LCFI35:
 585              		.cfi_def_cfa_offset 24
 586 0004 00AF     		add	r7, sp, #0
 587              	.LCFI36:
 588              		.cfi_def_cfa_register 7
 589 0006 7860     		str	r0, [r7, #4]
 464:Drivers/STM32L4xx_HAL_Driver/Src/stm32l4xx_hal_tim.c ****   uint32_t tmpsmcr;
 465:Drivers/STM32L4xx_HAL_Driver/Src/stm32l4xx_hal_tim.c **** 
 466:Drivers/STM32L4xx_HAL_Driver/Src/stm32l4xx_hal_tim.c ****   /* Check the parameters */
 467:Drivers/STM32L4xx_HAL_Driver/Src/stm32l4xx_hal_tim.c ****   assert_param(IS_TIM_INSTANCE(htim->Instance));
 468:Drivers/STM32L4xx_HAL_Driver/Src/stm32l4xx_hal_tim.c **** 
 469:Drivers/STM32L4xx_HAL_Driver/Src/stm32l4xx_hal_tim.c ****   /* Check the TIM state */
 470:Drivers/STM32L4xx_HAL_Driver/Src/stm32l4xx_hal_tim.c ****   if (htim->State != HAL_TIM_STATE_READY)
 590              		.loc 1 470 11
 591 0008 7B68     		ldr	r3, [r7, #4]
 592 000a 93F83D30 		ldrb	r3, [r3, #61]
 593 000e DBB2     		uxtb	r3, r3
 594              		.loc 1 470 6
 595 0010 012B     		cmp	r3, #1
 596 0012 01D0     		beq	.L24
 471:Drivers/STM32L4xx_HAL_Driver/Src/stm32l4xx_hal_tim.c ****   {
 472:Drivers/STM32L4xx_HAL_Driver/Src/stm32l4xx_hal_tim.c ****     return HAL_ERROR;
 597              		.loc 1 472 12
 598 0014 0123     		movs	r3, #1
 599 0016 4FE0     		b	.L25
 600              	.L24:
 473:Drivers/STM32L4xx_HAL_Driver/Src/stm32l4xx_hal_tim.c ****   }
 474:Drivers/STM32L4xx_HAL_Driver/Src/stm32l4xx_hal_tim.c **** 
 475:Drivers/STM32L4xx_HAL_Driver/Src/stm32l4xx_hal_tim.c ****   /* Set the TIM state */
 476:Drivers/STM32L4xx_HAL_Driver/Src/stm32l4xx_hal_tim.c ****   htim->State = HAL_TIM_STATE_BUSY;
 601              		.loc 1 476 15
 602 0018 7B68     		ldr	r3, [r7, #4]
 603 001a 0222     		movs	r2, #2
 604 001c 83F83D20 		strb	r2, [r3, #61]
 477:Drivers/STM32L4xx_HAL_Driver/Src/stm32l4xx_hal_tim.c **** 
 478:Drivers/STM32L4xx_HAL_Driver/Src/stm32l4xx_hal_tim.c ****   /* Enable the TIM Update interrupt */
 479:Drivers/STM32L4xx_HAL_Driver/Src/stm32l4xx_hal_tim.c ****   __HAL_TIM_ENABLE_IT(htim, TIM_IT_UPDATE);
 605              		.loc 1 479 3
 606 0020 7B68     		ldr	r3, [r7, #4]
 607 0022 1B68     		ldr	r3, [r3]
 608 0024 DA68     		ldr	r2, [r3, #12]
 609 0026 7B68     		ldr	r3, [r7, #4]
 610 0028 1B68     		ldr	r3, [r3]
 611 002a 42F00102 		orr	r2, r2, #1
 612 002e DA60     		str	r2, [r3, #12]
 480:Drivers/STM32L4xx_HAL_Driver/Src/stm32l4xx_hal_tim.c **** 
 481:Drivers/STM32L4xx_HAL_Driver/Src/stm32l4xx_hal_tim.c ****   /* Enable the Peripheral, except in trigger mode where enable is automatically done with trigger 
 482:Drivers/STM32L4xx_HAL_Driver/Src/stm32l4xx_hal_tim.c ****   if (IS_TIM_SLAVE_INSTANCE(htim->Instance))
ARM GAS  C:\Users\ep_ygh\AppData\Local\Temp\ccFTC33n.s 			page 20


 613              		.loc 1 482 7
 614 0030 7B68     		ldr	r3, [r7, #4]
 615 0032 1B68     		ldr	r3, [r3]
 616              		.loc 1 482 6
 617 0034 234A     		ldr	r2, .L31
 618 0036 9342     		cmp	r3, r2
 619 0038 1DD0     		beq	.L26
 620              		.loc 1 482 7 discriminator 1
 621 003a 7B68     		ldr	r3, [r7, #4]
 622 003c 1B68     		ldr	r3, [r3]
 623 003e B3F1804F 		cmp	r3, #1073741824
 624 0042 18D0     		beq	.L26
 625              		.loc 1 482 7 is_stmt 0 discriminator 2
 626 0044 7B68     		ldr	r3, [r7, #4]
 627 0046 1B68     		ldr	r3, [r3]
 628 0048 1F4A     		ldr	r2, .L31+4
 629 004a 9342     		cmp	r3, r2
 630 004c 13D0     		beq	.L26
 631              		.loc 1 482 7 discriminator 3
 632 004e 7B68     		ldr	r3, [r7, #4]
 633 0050 1B68     		ldr	r3, [r3]
 634 0052 1E4A     		ldr	r2, .L31+8
 635 0054 9342     		cmp	r3, r2
 636 0056 0ED0     		beq	.L26
 637              		.loc 1 482 7 discriminator 4
 638 0058 7B68     		ldr	r3, [r7, #4]
 639 005a 1B68     		ldr	r3, [r3]
 640 005c 1C4A     		ldr	r2, .L31+12
 641 005e 9342     		cmp	r3, r2
 642 0060 09D0     		beq	.L26
 643              		.loc 1 482 7 discriminator 5
 644 0062 7B68     		ldr	r3, [r7, #4]
 645 0064 1B68     		ldr	r3, [r3]
 646 0066 1B4A     		ldr	r2, .L31+16
 647 0068 9342     		cmp	r3, r2
 648 006a 04D0     		beq	.L26
 649              		.loc 1 482 7 discriminator 6
 650 006c 7B68     		ldr	r3, [r7, #4]
 651 006e 1B68     		ldr	r3, [r3]
 652 0070 194A     		ldr	r2, .L31+20
 653 0072 9342     		cmp	r3, r2
 654 0074 15D1     		bne	.L27
 655              	.L26:
 483:Drivers/STM32L4xx_HAL_Driver/Src/stm32l4xx_hal_tim.c ****   {
 484:Drivers/STM32L4xx_HAL_Driver/Src/stm32l4xx_hal_tim.c ****     tmpsmcr = htim->Instance->SMCR & TIM_SMCR_SMS;
 656              		.loc 1 484 19 is_stmt 1
 657 0076 7B68     		ldr	r3, [r7, #4]
 658 0078 1B68     		ldr	r3, [r3]
 659              		.loc 1 484 29
 660 007a 9A68     		ldr	r2, [r3, #8]
 661              		.loc 1 484 13
 662 007c 174B     		ldr	r3, .L31+24
 663 007e 1340     		ands	r3, r3, r2
 664 0080 FB60     		str	r3, [r7, #12]
 485:Drivers/STM32L4xx_HAL_Driver/Src/stm32l4xx_hal_tim.c ****     if (!IS_TIM_SLAVEMODE_TRIGGER_ENABLED(tmpsmcr))
 665              		.loc 1 485 8
 666 0082 FB68     		ldr	r3, [r7, #12]
ARM GAS  C:\Users\ep_ygh\AppData\Local\Temp\ccFTC33n.s 			page 21


 667 0084 062B     		cmp	r3, #6
 668 0086 15D0     		beq	.L30
 669              		.loc 1 485 9 discriminator 1
 670 0088 FB68     		ldr	r3, [r7, #12]
 671 008a B3F5803F 		cmp	r3, #65536
 672 008e 11D0     		beq	.L30
 486:Drivers/STM32L4xx_HAL_Driver/Src/stm32l4xx_hal_tim.c ****     {
 487:Drivers/STM32L4xx_HAL_Driver/Src/stm32l4xx_hal_tim.c ****       __HAL_TIM_ENABLE(htim);
 673              		.loc 1 487 7
 674 0090 7B68     		ldr	r3, [r7, #4]
 675 0092 1B68     		ldr	r3, [r3]
 676 0094 1A68     		ldr	r2, [r3]
 677 0096 7B68     		ldr	r3, [r7, #4]
 678 0098 1B68     		ldr	r3, [r3]
 679 009a 42F00102 		orr	r2, r2, #1
 680 009e 1A60     		str	r2, [r3]
 485:Drivers/STM32L4xx_HAL_Driver/Src/stm32l4xx_hal_tim.c ****     if (!IS_TIM_SLAVEMODE_TRIGGER_ENABLED(tmpsmcr))
 681              		.loc 1 485 8
 682 00a0 08E0     		b	.L30
 683              	.L27:
 488:Drivers/STM32L4xx_HAL_Driver/Src/stm32l4xx_hal_tim.c ****     }
 489:Drivers/STM32L4xx_HAL_Driver/Src/stm32l4xx_hal_tim.c ****   }
 490:Drivers/STM32L4xx_HAL_Driver/Src/stm32l4xx_hal_tim.c ****   else
 491:Drivers/STM32L4xx_HAL_Driver/Src/stm32l4xx_hal_tim.c ****   {
 492:Drivers/STM32L4xx_HAL_Driver/Src/stm32l4xx_hal_tim.c ****     __HAL_TIM_ENABLE(htim);
 684              		.loc 1 492 5
 685 00a2 7B68     		ldr	r3, [r7, #4]
 686 00a4 1B68     		ldr	r3, [r3]
 687 00a6 1A68     		ldr	r2, [r3]
 688 00a8 7B68     		ldr	r3, [r7, #4]
 689 00aa 1B68     		ldr	r3, [r3]
 690 00ac 42F00102 		orr	r2, r2, #1
 691 00b0 1A60     		str	r2, [r3]
 692 00b2 00E0     		b	.L29
 693              	.L30:
 485:Drivers/STM32L4xx_HAL_Driver/Src/stm32l4xx_hal_tim.c ****     {
 694              		.loc 1 485 8
 695 00b4 00BF     		nop
 696              	.L29:
 493:Drivers/STM32L4xx_HAL_Driver/Src/stm32l4xx_hal_tim.c ****   }
 494:Drivers/STM32L4xx_HAL_Driver/Src/stm32l4xx_hal_tim.c **** 
 495:Drivers/STM32L4xx_HAL_Driver/Src/stm32l4xx_hal_tim.c ****   /* Return function status */
 496:Drivers/STM32L4xx_HAL_Driver/Src/stm32l4xx_hal_tim.c ****   return HAL_OK;
 697              		.loc 1 496 10
 698 00b6 0023     		movs	r3, #0
 699              	.L25:
 497:Drivers/STM32L4xx_HAL_Driver/Src/stm32l4xx_hal_tim.c **** }
 700              		.loc 1 497 1
 701 00b8 1846     		mov	r0, r3
 702 00ba 1437     		adds	r7, r7, #20
 703              	.LCFI37:
 704              		.cfi_def_cfa_offset 4
 705 00bc BD46     		mov	sp, r7
 706              	.LCFI38:
 707              		.cfi_def_cfa_register 13
 708              		@ sp needed
 709 00be 5DF8047B 		ldr	r7, [sp], #4
ARM GAS  C:\Users\ep_ygh\AppData\Local\Temp\ccFTC33n.s 			page 22


 710              	.LCFI39:
 711              		.cfi_restore 7
 712              		.cfi_def_cfa_offset 0
 713 00c2 7047     		bx	lr
 714              	.L32:
 715              		.align	2
 716              	.L31:
 717 00c4 002C0140 		.word	1073818624
 718 00c8 00040040 		.word	1073742848
 719 00cc 00080040 		.word	1073743872
 720 00d0 000C0040 		.word	1073744896
 721 00d4 00340140 		.word	1073820672
 722 00d8 00400140 		.word	1073823744
 723 00dc 07000100 		.word	65543
 724              		.cfi_endproc
 725              	.LFE323:
 727              		.section	.text.HAL_TIM_Base_Stop_IT,"ax",%progbits
 728              		.align	1
 729              		.global	HAL_TIM_Base_Stop_IT
 730              		.syntax unified
 731              		.thumb
 732              		.thumb_func
 734              	HAL_TIM_Base_Stop_IT:
 735              	.LFB324:
 498:Drivers/STM32L4xx_HAL_Driver/Src/stm32l4xx_hal_tim.c **** 
 499:Drivers/STM32L4xx_HAL_Driver/Src/stm32l4xx_hal_tim.c **** /**
 500:Drivers/STM32L4xx_HAL_Driver/Src/stm32l4xx_hal_tim.c ****   * @brief  Stops the TIM Base generation in interrupt mode.
 501:Drivers/STM32L4xx_HAL_Driver/Src/stm32l4xx_hal_tim.c ****   * @param  htim TIM Base handle
 502:Drivers/STM32L4xx_HAL_Driver/Src/stm32l4xx_hal_tim.c ****   * @retval HAL status
 503:Drivers/STM32L4xx_HAL_Driver/Src/stm32l4xx_hal_tim.c ****   */
 504:Drivers/STM32L4xx_HAL_Driver/Src/stm32l4xx_hal_tim.c **** HAL_StatusTypeDef HAL_TIM_Base_Stop_IT(TIM_HandleTypeDef *htim)
 505:Drivers/STM32L4xx_HAL_Driver/Src/stm32l4xx_hal_tim.c **** {
 736              		.loc 1 505 1
 737              		.cfi_startproc
 738              		@ args = 0, pretend = 0, frame = 8
 739              		@ frame_needed = 1, uses_anonymous_args = 0
 740              		@ link register save eliminated.
 741 0000 80B4     		push	{r7}
 742              	.LCFI40:
 743              		.cfi_def_cfa_offset 4
 744              		.cfi_offset 7, -4
 745 0002 83B0     		sub	sp, sp, #12
 746              	.LCFI41:
 747              		.cfi_def_cfa_offset 16
 748 0004 00AF     		add	r7, sp, #0
 749              	.LCFI42:
 750              		.cfi_def_cfa_register 7
 751 0006 7860     		str	r0, [r7, #4]
 506:Drivers/STM32L4xx_HAL_Driver/Src/stm32l4xx_hal_tim.c ****   /* Check the parameters */
 507:Drivers/STM32L4xx_HAL_Driver/Src/stm32l4xx_hal_tim.c ****   assert_param(IS_TIM_INSTANCE(htim->Instance));
 508:Drivers/STM32L4xx_HAL_Driver/Src/stm32l4xx_hal_tim.c **** 
 509:Drivers/STM32L4xx_HAL_Driver/Src/stm32l4xx_hal_tim.c ****   /* Disable the TIM Update interrupt */
 510:Drivers/STM32L4xx_HAL_Driver/Src/stm32l4xx_hal_tim.c ****   __HAL_TIM_DISABLE_IT(htim, TIM_IT_UPDATE);
 752              		.loc 1 510 3
 753 0008 7B68     		ldr	r3, [r7, #4]
 754 000a 1B68     		ldr	r3, [r3]
 755 000c DA68     		ldr	r2, [r3, #12]
ARM GAS  C:\Users\ep_ygh\AppData\Local\Temp\ccFTC33n.s 			page 23


 756 000e 7B68     		ldr	r3, [r7, #4]
 757 0010 1B68     		ldr	r3, [r3]
 758 0012 22F00102 		bic	r2, r2, #1
 759 0016 DA60     		str	r2, [r3, #12]
 511:Drivers/STM32L4xx_HAL_Driver/Src/stm32l4xx_hal_tim.c **** 
 512:Drivers/STM32L4xx_HAL_Driver/Src/stm32l4xx_hal_tim.c ****   /* Disable the Peripheral */
 513:Drivers/STM32L4xx_HAL_Driver/Src/stm32l4xx_hal_tim.c ****   __HAL_TIM_DISABLE(htim);
 760              		.loc 1 513 3
 761 0018 7B68     		ldr	r3, [r7, #4]
 762 001a 1B68     		ldr	r3, [r3]
 763 001c 1A6A     		ldr	r2, [r3, #32]
 764 001e 41F21113 		movw	r3, #4369
 765 0022 1340     		ands	r3, r3, r2
 766 0024 002B     		cmp	r3, #0
 767 0026 0FD1     		bne	.L34
 768              		.loc 1 513 3 is_stmt 0 discriminator 1
 769 0028 7B68     		ldr	r3, [r7, #4]
 770 002a 1B68     		ldr	r3, [r3]
 771 002c 1A6A     		ldr	r2, [r3, #32]
 772 002e 40F24443 		movw	r3, #1092
 773 0032 1340     		ands	r3, r3, r2
 774 0034 002B     		cmp	r3, #0
 775 0036 07D1     		bne	.L34
 776              		.loc 1 513 3 discriminator 2
 777 0038 7B68     		ldr	r3, [r7, #4]
 778 003a 1B68     		ldr	r3, [r3]
 779 003c 1A68     		ldr	r2, [r3]
 780 003e 7B68     		ldr	r3, [r7, #4]
 781 0040 1B68     		ldr	r3, [r3]
 782 0042 22F00102 		bic	r2, r2, #1
 783 0046 1A60     		str	r2, [r3]
 784              	.L34:
 514:Drivers/STM32L4xx_HAL_Driver/Src/stm32l4xx_hal_tim.c **** 
 515:Drivers/STM32L4xx_HAL_Driver/Src/stm32l4xx_hal_tim.c ****   /* Set the TIM state */
 516:Drivers/STM32L4xx_HAL_Driver/Src/stm32l4xx_hal_tim.c ****   htim->State = HAL_TIM_STATE_READY;
 785              		.loc 1 516 15 is_stmt 1
 786 0048 7B68     		ldr	r3, [r7, #4]
 787 004a 0122     		movs	r2, #1
 788 004c 83F83D20 		strb	r2, [r3, #61]
 517:Drivers/STM32L4xx_HAL_Driver/Src/stm32l4xx_hal_tim.c **** 
 518:Drivers/STM32L4xx_HAL_Driver/Src/stm32l4xx_hal_tim.c ****   /* Return function status */
 519:Drivers/STM32L4xx_HAL_Driver/Src/stm32l4xx_hal_tim.c ****   return HAL_OK;
 789              		.loc 1 519 10
 790 0050 0023     		movs	r3, #0
 520:Drivers/STM32L4xx_HAL_Driver/Src/stm32l4xx_hal_tim.c **** }
 791              		.loc 1 520 1
 792 0052 1846     		mov	r0, r3
 793 0054 0C37     		adds	r7, r7, #12
 794              	.LCFI43:
 795              		.cfi_def_cfa_offset 4
 796 0056 BD46     		mov	sp, r7
 797              	.LCFI44:
 798              		.cfi_def_cfa_register 13
 799              		@ sp needed
 800 0058 5DF8047B 		ldr	r7, [sp], #4
 801              	.LCFI45:
 802              		.cfi_restore 7
ARM GAS  C:\Users\ep_ygh\AppData\Local\Temp\ccFTC33n.s 			page 24


 803              		.cfi_def_cfa_offset 0
 804 005c 7047     		bx	lr
 805              		.cfi_endproc
 806              	.LFE324:
 808              		.section	.text.HAL_TIM_Base_Start_DMA,"ax",%progbits
 809              		.align	1
 810              		.global	HAL_TIM_Base_Start_DMA
 811              		.syntax unified
 812              		.thumb
 813              		.thumb_func
 815              	HAL_TIM_Base_Start_DMA:
 816              	.LFB325:
 521:Drivers/STM32L4xx_HAL_Driver/Src/stm32l4xx_hal_tim.c **** 
 522:Drivers/STM32L4xx_HAL_Driver/Src/stm32l4xx_hal_tim.c **** /**
 523:Drivers/STM32L4xx_HAL_Driver/Src/stm32l4xx_hal_tim.c ****   * @brief  Starts the TIM Base generation in DMA mode.
 524:Drivers/STM32L4xx_HAL_Driver/Src/stm32l4xx_hal_tim.c ****   * @param  htim TIM Base handle
 525:Drivers/STM32L4xx_HAL_Driver/Src/stm32l4xx_hal_tim.c ****   * @param  pData The source Buffer address.
 526:Drivers/STM32L4xx_HAL_Driver/Src/stm32l4xx_hal_tim.c ****   * @param  Length The length of data to be transferred from memory to peripheral.
 527:Drivers/STM32L4xx_HAL_Driver/Src/stm32l4xx_hal_tim.c ****   * @retval HAL status
 528:Drivers/STM32L4xx_HAL_Driver/Src/stm32l4xx_hal_tim.c ****   */
 529:Drivers/STM32L4xx_HAL_Driver/Src/stm32l4xx_hal_tim.c **** HAL_StatusTypeDef HAL_TIM_Base_Start_DMA(TIM_HandleTypeDef *htim, const uint32_t *pData, uint16_t L
 530:Drivers/STM32L4xx_HAL_Driver/Src/stm32l4xx_hal_tim.c **** {
 817              		.loc 1 530 1
 818              		.cfi_startproc
 819              		@ args = 0, pretend = 0, frame = 24
 820              		@ frame_needed = 1, uses_anonymous_args = 0
 821 0000 80B5     		push	{r7, lr}
 822              	.LCFI46:
 823              		.cfi_def_cfa_offset 8
 824              		.cfi_offset 7, -8
 825              		.cfi_offset 14, -4
 826 0002 86B0     		sub	sp, sp, #24
 827              	.LCFI47:
 828              		.cfi_def_cfa_offset 32
 829 0004 00AF     		add	r7, sp, #0
 830              	.LCFI48:
 831              		.cfi_def_cfa_register 7
 832 0006 F860     		str	r0, [r7, #12]
 833 0008 B960     		str	r1, [r7, #8]
 834 000a 1346     		mov	r3, r2
 835 000c FB80     		strh	r3, [r7, #6]	@ movhi
 531:Drivers/STM32L4xx_HAL_Driver/Src/stm32l4xx_hal_tim.c ****   uint32_t tmpsmcr;
 532:Drivers/STM32L4xx_HAL_Driver/Src/stm32l4xx_hal_tim.c **** 
 533:Drivers/STM32L4xx_HAL_Driver/Src/stm32l4xx_hal_tim.c ****   /* Check the parameters */
 534:Drivers/STM32L4xx_HAL_Driver/Src/stm32l4xx_hal_tim.c ****   assert_param(IS_TIM_DMA_INSTANCE(htim->Instance));
 535:Drivers/STM32L4xx_HAL_Driver/Src/stm32l4xx_hal_tim.c **** 
 536:Drivers/STM32L4xx_HAL_Driver/Src/stm32l4xx_hal_tim.c ****   /* Set the TIM state */
 537:Drivers/STM32L4xx_HAL_Driver/Src/stm32l4xx_hal_tim.c ****   if (htim->State == HAL_TIM_STATE_BUSY)
 836              		.loc 1 537 11
 837 000e FB68     		ldr	r3, [r7, #12]
 838 0010 93F83D30 		ldrb	r3, [r3, #61]
 839 0014 DBB2     		uxtb	r3, r3
 840              		.loc 1 537 6
 841 0016 022B     		cmp	r3, #2
 842 0018 01D1     		bne	.L37
 538:Drivers/STM32L4xx_HAL_Driver/Src/stm32l4xx_hal_tim.c ****   {
 539:Drivers/STM32L4xx_HAL_Driver/Src/stm32l4xx_hal_tim.c ****     return HAL_BUSY;
ARM GAS  C:\Users\ep_ygh\AppData\Local\Temp\ccFTC33n.s 			page 25


 843              		.loc 1 539 12
 844 001a 0223     		movs	r3, #2
 845 001c 7BE0     		b	.L38
 846              	.L37:
 540:Drivers/STM32L4xx_HAL_Driver/Src/stm32l4xx_hal_tim.c ****   }
 541:Drivers/STM32L4xx_HAL_Driver/Src/stm32l4xx_hal_tim.c ****   else if (htim->State == HAL_TIM_STATE_READY)
 847              		.loc 1 541 16
 848 001e FB68     		ldr	r3, [r7, #12]
 849 0020 93F83D30 		ldrb	r3, [r3, #61]
 850 0024 DBB2     		uxtb	r3, r3
 851              		.loc 1 541 11
 852 0026 012B     		cmp	r3, #1
 853 0028 25D1     		bne	.L39
 542:Drivers/STM32L4xx_HAL_Driver/Src/stm32l4xx_hal_tim.c ****   {
 543:Drivers/STM32L4xx_HAL_Driver/Src/stm32l4xx_hal_tim.c ****     if ((pData == NULL) || (Length == 0U))
 854              		.loc 1 543 8
 855 002a BB68     		ldr	r3, [r7, #8]
 856 002c 002B     		cmp	r3, #0
 857 002e 02D0     		beq	.L40
 858              		.loc 1 543 25 discriminator 1
 859 0030 FB88     		ldrh	r3, [r7, #6]
 860 0032 002B     		cmp	r3, #0
 861 0034 01D1     		bne	.L41
 862              	.L40:
 544:Drivers/STM32L4xx_HAL_Driver/Src/stm32l4xx_hal_tim.c ****     {
 545:Drivers/STM32L4xx_HAL_Driver/Src/stm32l4xx_hal_tim.c ****       return HAL_ERROR;
 863              		.loc 1 545 14
 864 0036 0123     		movs	r3, #1
 865 0038 6DE0     		b	.L38
 866              	.L41:
 546:Drivers/STM32L4xx_HAL_Driver/Src/stm32l4xx_hal_tim.c ****     }
 547:Drivers/STM32L4xx_HAL_Driver/Src/stm32l4xx_hal_tim.c ****     else
 548:Drivers/STM32L4xx_HAL_Driver/Src/stm32l4xx_hal_tim.c ****     {
 549:Drivers/STM32L4xx_HAL_Driver/Src/stm32l4xx_hal_tim.c ****       htim->State = HAL_TIM_STATE_BUSY;
 867              		.loc 1 549 19
 868 003a FB68     		ldr	r3, [r7, #12]
 869 003c 0222     		movs	r2, #2
 870 003e 83F83D20 		strb	r2, [r3, #61]
 550:Drivers/STM32L4xx_HAL_Driver/Src/stm32l4xx_hal_tim.c ****     }
 551:Drivers/STM32L4xx_HAL_Driver/Src/stm32l4xx_hal_tim.c ****   }
 552:Drivers/STM32L4xx_HAL_Driver/Src/stm32l4xx_hal_tim.c ****   else
 553:Drivers/STM32L4xx_HAL_Driver/Src/stm32l4xx_hal_tim.c ****   {
 554:Drivers/STM32L4xx_HAL_Driver/Src/stm32l4xx_hal_tim.c ****     return HAL_ERROR;
 555:Drivers/STM32L4xx_HAL_Driver/Src/stm32l4xx_hal_tim.c ****   }
 556:Drivers/STM32L4xx_HAL_Driver/Src/stm32l4xx_hal_tim.c **** 
 557:Drivers/STM32L4xx_HAL_Driver/Src/stm32l4xx_hal_tim.c ****   /* Set the DMA Period elapsed callbacks */
 558:Drivers/STM32L4xx_HAL_Driver/Src/stm32l4xx_hal_tim.c ****   htim->hdma[TIM_DMA_ID_UPDATE]->XferCpltCallback = TIM_DMAPeriodElapsedCplt;
 871              		.loc 1 558 13
 872 0042 FB68     		ldr	r3, [r7, #12]
 873 0044 1B6A     		ldr	r3, [r3, #32]
 874              		.loc 1 558 51
 875 0046 364A     		ldr	r2, .L50
 876 0048 DA62     		str	r2, [r3, #44]
 559:Drivers/STM32L4xx_HAL_Driver/Src/stm32l4xx_hal_tim.c ****   htim->hdma[TIM_DMA_ID_UPDATE]->XferHalfCpltCallback = TIM_DMAPeriodElapsedHalfCplt;
 877              		.loc 1 559 13
 878 004a FB68     		ldr	r3, [r7, #12]
 879 004c 1B6A     		ldr	r3, [r3, #32]
ARM GAS  C:\Users\ep_ygh\AppData\Local\Temp\ccFTC33n.s 			page 26


 880              		.loc 1 559 55
 881 004e 354A     		ldr	r2, .L50+4
 882 0050 1A63     		str	r2, [r3, #48]
 560:Drivers/STM32L4xx_HAL_Driver/Src/stm32l4xx_hal_tim.c **** 
 561:Drivers/STM32L4xx_HAL_Driver/Src/stm32l4xx_hal_tim.c ****   /* Set the DMA error callback */
 562:Drivers/STM32L4xx_HAL_Driver/Src/stm32l4xx_hal_tim.c ****   htim->hdma[TIM_DMA_ID_UPDATE]->XferErrorCallback = TIM_DMAError ;
 883              		.loc 1 562 13
 884 0052 FB68     		ldr	r3, [r7, #12]
 885 0054 1B6A     		ldr	r3, [r3, #32]
 886              		.loc 1 562 52
 887 0056 344A     		ldr	r2, .L50+8
 888 0058 5A63     		str	r2, [r3, #52]
 563:Drivers/STM32L4xx_HAL_Driver/Src/stm32l4xx_hal_tim.c **** 
 564:Drivers/STM32L4xx_HAL_Driver/Src/stm32l4xx_hal_tim.c ****   /* Enable the DMA channel */
 565:Drivers/STM32L4xx_HAL_Driver/Src/stm32l4xx_hal_tim.c ****   if (HAL_DMA_Start_IT(htim->hdma[TIM_DMA_ID_UPDATE], (uint32_t)pData, (uint32_t)&htim->Instance->A
 889              		.loc 1 565 7
 890 005a FB68     		ldr	r3, [r7, #12]
 891 005c 186A     		ldr	r0, [r3, #32]
 892 005e B968     		ldr	r1, [r7, #8]
 893              		.loc 1 565 87
 894 0060 FB68     		ldr	r3, [r7, #12]
 895 0062 1B68     		ldr	r3, [r3]
 896              		.loc 1 565 82
 897 0064 2C33     		adds	r3, r3, #44
 898              		.loc 1 565 7
 899 0066 1A46     		mov	r2, r3
 900 0068 FB88     		ldrh	r3, [r7, #6]
 901 006a FFF7FEFF 		bl	HAL_DMA_Start_IT
 902 006e 0346     		mov	r3, r0
 903              		.loc 1 565 6
 904 0070 002B     		cmp	r3, #0
 905 0072 04D0     		beq	.L43
 906 0074 01E0     		b	.L48
 907              	.L39:
 554:Drivers/STM32L4xx_HAL_Driver/Src/stm32l4xx_hal_tim.c ****   }
 908              		.loc 1 554 12
 909 0076 0123     		movs	r3, #1
 910 0078 4DE0     		b	.L38
 911              	.L48:
 566:Drivers/STM32L4xx_HAL_Driver/Src/stm32l4xx_hal_tim.c ****                        Length) != HAL_OK)
 567:Drivers/STM32L4xx_HAL_Driver/Src/stm32l4xx_hal_tim.c ****   {
 568:Drivers/STM32L4xx_HAL_Driver/Src/stm32l4xx_hal_tim.c ****     /* Return error status */
 569:Drivers/STM32L4xx_HAL_Driver/Src/stm32l4xx_hal_tim.c ****     return HAL_ERROR;
 912              		.loc 1 569 12
 913 007a 0123     		movs	r3, #1
 914 007c 4BE0     		b	.L38
 915              	.L43:
 570:Drivers/STM32L4xx_HAL_Driver/Src/stm32l4xx_hal_tim.c ****   }
 571:Drivers/STM32L4xx_HAL_Driver/Src/stm32l4xx_hal_tim.c **** 
 572:Drivers/STM32L4xx_HAL_Driver/Src/stm32l4xx_hal_tim.c ****   /* Enable the TIM Update DMA request */
 573:Drivers/STM32L4xx_HAL_Driver/Src/stm32l4xx_hal_tim.c ****   __HAL_TIM_ENABLE_DMA(htim, TIM_DMA_UPDATE);
 916              		.loc 1 573 3
 917 007e FB68     		ldr	r3, [r7, #12]
 918 0080 1B68     		ldr	r3, [r3]
 919 0082 DA68     		ldr	r2, [r3, #12]
 920 0084 FB68     		ldr	r3, [r7, #12]
 921 0086 1B68     		ldr	r3, [r3]
ARM GAS  C:\Users\ep_ygh\AppData\Local\Temp\ccFTC33n.s 			page 27


 922 0088 42F48072 		orr	r2, r2, #256
 923 008c DA60     		str	r2, [r3, #12]
 574:Drivers/STM32L4xx_HAL_Driver/Src/stm32l4xx_hal_tim.c **** 
 575:Drivers/STM32L4xx_HAL_Driver/Src/stm32l4xx_hal_tim.c ****   /* Enable the Peripheral, except in trigger mode where enable is automatically done with trigger 
 576:Drivers/STM32L4xx_HAL_Driver/Src/stm32l4xx_hal_tim.c ****   if (IS_TIM_SLAVE_INSTANCE(htim->Instance))
 924              		.loc 1 576 7
 925 008e FB68     		ldr	r3, [r7, #12]
 926 0090 1B68     		ldr	r3, [r3]
 927              		.loc 1 576 6
 928 0092 264A     		ldr	r2, .L50+12
 929 0094 9342     		cmp	r3, r2
 930 0096 1DD0     		beq	.L44
 931              		.loc 1 576 7 discriminator 1
 932 0098 FB68     		ldr	r3, [r7, #12]
 933 009a 1B68     		ldr	r3, [r3]
 934 009c B3F1804F 		cmp	r3, #1073741824
 935 00a0 18D0     		beq	.L44
 936              		.loc 1 576 7 is_stmt 0 discriminator 2
 937 00a2 FB68     		ldr	r3, [r7, #12]
 938 00a4 1B68     		ldr	r3, [r3]
 939 00a6 224A     		ldr	r2, .L50+16
 940 00a8 9342     		cmp	r3, r2
 941 00aa 13D0     		beq	.L44
 942              		.loc 1 576 7 discriminator 3
 943 00ac FB68     		ldr	r3, [r7, #12]
 944 00ae 1B68     		ldr	r3, [r3]
 945 00b0 204A     		ldr	r2, .L50+20
 946 00b2 9342     		cmp	r3, r2
 947 00b4 0ED0     		beq	.L44
 948              		.loc 1 576 7 discriminator 4
 949 00b6 FB68     		ldr	r3, [r7, #12]
 950 00b8 1B68     		ldr	r3, [r3]
 951 00ba 1F4A     		ldr	r2, .L50+24
 952 00bc 9342     		cmp	r3, r2
 953 00be 09D0     		beq	.L44
 954              		.loc 1 576 7 discriminator 5
 955 00c0 FB68     		ldr	r3, [r7, #12]
 956 00c2 1B68     		ldr	r3, [r3]
 957 00c4 1D4A     		ldr	r2, .L50+28
 958 00c6 9342     		cmp	r3, r2
 959 00c8 04D0     		beq	.L44
 960              		.loc 1 576 7 discriminator 6
 961 00ca FB68     		ldr	r3, [r7, #12]
 962 00cc 1B68     		ldr	r3, [r3]
 963 00ce 1C4A     		ldr	r2, .L50+32
 964 00d0 9342     		cmp	r3, r2
 965 00d2 15D1     		bne	.L45
 966              	.L44:
 577:Drivers/STM32L4xx_HAL_Driver/Src/stm32l4xx_hal_tim.c ****   {
 578:Drivers/STM32L4xx_HAL_Driver/Src/stm32l4xx_hal_tim.c ****     tmpsmcr = htim->Instance->SMCR & TIM_SMCR_SMS;
 967              		.loc 1 578 19 is_stmt 1
 968 00d4 FB68     		ldr	r3, [r7, #12]
 969 00d6 1B68     		ldr	r3, [r3]
 970              		.loc 1 578 29
 971 00d8 9A68     		ldr	r2, [r3, #8]
 972              		.loc 1 578 13
 973 00da 1A4B     		ldr	r3, .L50+36
ARM GAS  C:\Users\ep_ygh\AppData\Local\Temp\ccFTC33n.s 			page 28


 974 00dc 1340     		ands	r3, r3, r2
 975 00de 7B61     		str	r3, [r7, #20]
 579:Drivers/STM32L4xx_HAL_Driver/Src/stm32l4xx_hal_tim.c ****     if (!IS_TIM_SLAVEMODE_TRIGGER_ENABLED(tmpsmcr))
 976              		.loc 1 579 8
 977 00e0 7B69     		ldr	r3, [r7, #20]
 978 00e2 062B     		cmp	r3, #6
 979 00e4 15D0     		beq	.L49
 980              		.loc 1 579 9 discriminator 1
 981 00e6 7B69     		ldr	r3, [r7, #20]
 982 00e8 B3F5803F 		cmp	r3, #65536
 983 00ec 11D0     		beq	.L49
 580:Drivers/STM32L4xx_HAL_Driver/Src/stm32l4xx_hal_tim.c ****     {
 581:Drivers/STM32L4xx_HAL_Driver/Src/stm32l4xx_hal_tim.c ****       __HAL_TIM_ENABLE(htim);
 984              		.loc 1 581 7
 985 00ee FB68     		ldr	r3, [r7, #12]
 986 00f0 1B68     		ldr	r3, [r3]
 987 00f2 1A68     		ldr	r2, [r3]
 988 00f4 FB68     		ldr	r3, [r7, #12]
 989 00f6 1B68     		ldr	r3, [r3]
 990 00f8 42F00102 		orr	r2, r2, #1
 991 00fc 1A60     		str	r2, [r3]
 579:Drivers/STM32L4xx_HAL_Driver/Src/stm32l4xx_hal_tim.c ****     if (!IS_TIM_SLAVEMODE_TRIGGER_ENABLED(tmpsmcr))
 992              		.loc 1 579 8
 993 00fe 08E0     		b	.L49
 994              	.L45:
 582:Drivers/STM32L4xx_HAL_Driver/Src/stm32l4xx_hal_tim.c ****     }
 583:Drivers/STM32L4xx_HAL_Driver/Src/stm32l4xx_hal_tim.c ****   }
 584:Drivers/STM32L4xx_HAL_Driver/Src/stm32l4xx_hal_tim.c ****   else
 585:Drivers/STM32L4xx_HAL_Driver/Src/stm32l4xx_hal_tim.c ****   {
 586:Drivers/STM32L4xx_HAL_Driver/Src/stm32l4xx_hal_tim.c ****     __HAL_TIM_ENABLE(htim);
 995              		.loc 1 586 5
 996 0100 FB68     		ldr	r3, [r7, #12]
 997 0102 1B68     		ldr	r3, [r3]
 998 0104 1A68     		ldr	r2, [r3]
 999 0106 FB68     		ldr	r3, [r7, #12]
 1000 0108 1B68     		ldr	r3, [r3]
 1001 010a 42F00102 		orr	r2, r2, #1
 1002 010e 1A60     		str	r2, [r3]
 1003 0110 00E0     		b	.L47
 1004              	.L49:
 579:Drivers/STM32L4xx_HAL_Driver/Src/stm32l4xx_hal_tim.c ****     {
 1005              		.loc 1 579 8
 1006 0112 00BF     		nop
 1007              	.L47:
 587:Drivers/STM32L4xx_HAL_Driver/Src/stm32l4xx_hal_tim.c ****   }
 588:Drivers/STM32L4xx_HAL_Driver/Src/stm32l4xx_hal_tim.c **** 
 589:Drivers/STM32L4xx_HAL_Driver/Src/stm32l4xx_hal_tim.c ****   /* Return function status */
 590:Drivers/STM32L4xx_HAL_Driver/Src/stm32l4xx_hal_tim.c ****   return HAL_OK;
 1008              		.loc 1 590 10
 1009 0114 0023     		movs	r3, #0
 1010              	.L38:
 591:Drivers/STM32L4xx_HAL_Driver/Src/stm32l4xx_hal_tim.c **** }
 1011              		.loc 1 591 1
 1012 0116 1846     		mov	r0, r3
 1013 0118 1837     		adds	r7, r7, #24
 1014              	.LCFI49:
 1015              		.cfi_def_cfa_offset 8
ARM GAS  C:\Users\ep_ygh\AppData\Local\Temp\ccFTC33n.s 			page 29


 1016 011a BD46     		mov	sp, r7
 1017              	.LCFI50:
 1018              		.cfi_def_cfa_register 13
 1019              		@ sp needed
 1020 011c 80BD     		pop	{r7, pc}
 1021              	.L51:
 1022 011e 00BF     		.align	2
 1023              	.L50:
 1024 0120 00000000 		.word	TIM_DMAPeriodElapsedCplt
 1025 0124 00000000 		.word	TIM_DMAPeriodElapsedHalfCplt
 1026 0128 00000000 		.word	TIM_DMAError
 1027 012c 002C0140 		.word	1073818624
 1028 0130 00040040 		.word	1073742848
 1029 0134 00080040 		.word	1073743872
 1030 0138 000C0040 		.word	1073744896
 1031 013c 00340140 		.word	1073820672
 1032 0140 00400140 		.word	1073823744
 1033 0144 07000100 		.word	65543
 1034              		.cfi_endproc
 1035              	.LFE325:
 1037              		.section	.text.HAL_TIM_Base_Stop_DMA,"ax",%progbits
 1038              		.align	1
 1039              		.global	HAL_TIM_Base_Stop_DMA
 1040              		.syntax unified
 1041              		.thumb
 1042              		.thumb_func
 1044              	HAL_TIM_Base_Stop_DMA:
 1045              	.LFB326:
 592:Drivers/STM32L4xx_HAL_Driver/Src/stm32l4xx_hal_tim.c **** 
 593:Drivers/STM32L4xx_HAL_Driver/Src/stm32l4xx_hal_tim.c **** /**
 594:Drivers/STM32L4xx_HAL_Driver/Src/stm32l4xx_hal_tim.c ****   * @brief  Stops the TIM Base generation in DMA mode.
 595:Drivers/STM32L4xx_HAL_Driver/Src/stm32l4xx_hal_tim.c ****   * @param  htim TIM Base handle
 596:Drivers/STM32L4xx_HAL_Driver/Src/stm32l4xx_hal_tim.c ****   * @retval HAL status
 597:Drivers/STM32L4xx_HAL_Driver/Src/stm32l4xx_hal_tim.c ****   */
 598:Drivers/STM32L4xx_HAL_Driver/Src/stm32l4xx_hal_tim.c **** HAL_StatusTypeDef HAL_TIM_Base_Stop_DMA(TIM_HandleTypeDef *htim)
 599:Drivers/STM32L4xx_HAL_Driver/Src/stm32l4xx_hal_tim.c **** {
 1046              		.loc 1 599 1
 1047              		.cfi_startproc
 1048              		@ args = 0, pretend = 0, frame = 8
 1049              		@ frame_needed = 1, uses_anonymous_args = 0
 1050 0000 80B5     		push	{r7, lr}
 1051              	.LCFI51:
 1052              		.cfi_def_cfa_offset 8
 1053              		.cfi_offset 7, -8
 1054              		.cfi_offset 14, -4
 1055 0002 82B0     		sub	sp, sp, #8
 1056              	.LCFI52:
 1057              		.cfi_def_cfa_offset 16
 1058 0004 00AF     		add	r7, sp, #0
 1059              	.LCFI53:
 1060              		.cfi_def_cfa_register 7
 1061 0006 7860     		str	r0, [r7, #4]
 600:Drivers/STM32L4xx_HAL_Driver/Src/stm32l4xx_hal_tim.c ****   /* Check the parameters */
 601:Drivers/STM32L4xx_HAL_Driver/Src/stm32l4xx_hal_tim.c ****   assert_param(IS_TIM_DMA_INSTANCE(htim->Instance));
 602:Drivers/STM32L4xx_HAL_Driver/Src/stm32l4xx_hal_tim.c **** 
 603:Drivers/STM32L4xx_HAL_Driver/Src/stm32l4xx_hal_tim.c ****   /* Disable the TIM Update DMA request */
 604:Drivers/STM32L4xx_HAL_Driver/Src/stm32l4xx_hal_tim.c ****   __HAL_TIM_DISABLE_DMA(htim, TIM_DMA_UPDATE);
ARM GAS  C:\Users\ep_ygh\AppData\Local\Temp\ccFTC33n.s 			page 30


 1062              		.loc 1 604 3
 1063 0008 7B68     		ldr	r3, [r7, #4]
 1064 000a 1B68     		ldr	r3, [r3]
 1065 000c DA68     		ldr	r2, [r3, #12]
 1066 000e 7B68     		ldr	r3, [r7, #4]
 1067 0010 1B68     		ldr	r3, [r3]
 1068 0012 22F48072 		bic	r2, r2, #256
 1069 0016 DA60     		str	r2, [r3, #12]
 605:Drivers/STM32L4xx_HAL_Driver/Src/stm32l4xx_hal_tim.c **** 
 606:Drivers/STM32L4xx_HAL_Driver/Src/stm32l4xx_hal_tim.c ****   (void)HAL_DMA_Abort_IT(htim->hdma[TIM_DMA_ID_UPDATE]);
 1070              		.loc 1 606 9
 1071 0018 7B68     		ldr	r3, [r7, #4]
 1072 001a 1B6A     		ldr	r3, [r3, #32]
 1073 001c 1846     		mov	r0, r3
 1074 001e FFF7FEFF 		bl	HAL_DMA_Abort_IT
 607:Drivers/STM32L4xx_HAL_Driver/Src/stm32l4xx_hal_tim.c **** 
 608:Drivers/STM32L4xx_HAL_Driver/Src/stm32l4xx_hal_tim.c ****   /* Disable the Peripheral */
 609:Drivers/STM32L4xx_HAL_Driver/Src/stm32l4xx_hal_tim.c ****   __HAL_TIM_DISABLE(htim);
 1075              		.loc 1 609 3
 1076 0022 7B68     		ldr	r3, [r7, #4]
 1077 0024 1B68     		ldr	r3, [r3]
 1078 0026 1A6A     		ldr	r2, [r3, #32]
 1079 0028 41F21113 		movw	r3, #4369
 1080 002c 1340     		ands	r3, r3, r2
 1081 002e 002B     		cmp	r3, #0
 1082 0030 0FD1     		bne	.L53
 1083              		.loc 1 609 3 is_stmt 0 discriminator 1
 1084 0032 7B68     		ldr	r3, [r7, #4]
 1085 0034 1B68     		ldr	r3, [r3]
 1086 0036 1A6A     		ldr	r2, [r3, #32]
 1087 0038 40F24443 		movw	r3, #1092
 1088 003c 1340     		ands	r3, r3, r2
 1089 003e 002B     		cmp	r3, #0
 1090 0040 07D1     		bne	.L53
 1091              		.loc 1 609 3 discriminator 2
 1092 0042 7B68     		ldr	r3, [r7, #4]
 1093 0044 1B68     		ldr	r3, [r3]
 1094 0046 1A68     		ldr	r2, [r3]
 1095 0048 7B68     		ldr	r3, [r7, #4]
 1096 004a 1B68     		ldr	r3, [r3]
 1097 004c 22F00102 		bic	r2, r2, #1
 1098 0050 1A60     		str	r2, [r3]
 1099              	.L53:
 610:Drivers/STM32L4xx_HAL_Driver/Src/stm32l4xx_hal_tim.c **** 
 611:Drivers/STM32L4xx_HAL_Driver/Src/stm32l4xx_hal_tim.c ****   /* Set the TIM state */
 612:Drivers/STM32L4xx_HAL_Driver/Src/stm32l4xx_hal_tim.c ****   htim->State = HAL_TIM_STATE_READY;
 1100              		.loc 1 612 15 is_stmt 1
 1101 0052 7B68     		ldr	r3, [r7, #4]
 1102 0054 0122     		movs	r2, #1
 1103 0056 83F83D20 		strb	r2, [r3, #61]
 613:Drivers/STM32L4xx_HAL_Driver/Src/stm32l4xx_hal_tim.c **** 
 614:Drivers/STM32L4xx_HAL_Driver/Src/stm32l4xx_hal_tim.c ****   /* Return function status */
 615:Drivers/STM32L4xx_HAL_Driver/Src/stm32l4xx_hal_tim.c ****   return HAL_OK;
 1104              		.loc 1 615 10
 1105 005a 0023     		movs	r3, #0
 616:Drivers/STM32L4xx_HAL_Driver/Src/stm32l4xx_hal_tim.c **** }
 1106              		.loc 1 616 1
ARM GAS  C:\Users\ep_ygh\AppData\Local\Temp\ccFTC33n.s 			page 31


 1107 005c 1846     		mov	r0, r3
 1108 005e 0837     		adds	r7, r7, #8
 1109              	.LCFI54:
 1110              		.cfi_def_cfa_offset 8
 1111 0060 BD46     		mov	sp, r7
 1112              	.LCFI55:
 1113              		.cfi_def_cfa_register 13
 1114              		@ sp needed
 1115 0062 80BD     		pop	{r7, pc}
 1116              		.cfi_endproc
 1117              	.LFE326:
 1119              		.section	.text.HAL_TIM_OC_Init,"ax",%progbits
 1120              		.align	1
 1121              		.global	HAL_TIM_OC_Init
 1122              		.syntax unified
 1123              		.thumb
 1124              		.thumb_func
 1126              	HAL_TIM_OC_Init:
 1127              	.LFB327:
 617:Drivers/STM32L4xx_HAL_Driver/Src/stm32l4xx_hal_tim.c **** 
 618:Drivers/STM32L4xx_HAL_Driver/Src/stm32l4xx_hal_tim.c **** /**
 619:Drivers/STM32L4xx_HAL_Driver/Src/stm32l4xx_hal_tim.c ****   * @}
 620:Drivers/STM32L4xx_HAL_Driver/Src/stm32l4xx_hal_tim.c ****   */
 621:Drivers/STM32L4xx_HAL_Driver/Src/stm32l4xx_hal_tim.c **** 
 622:Drivers/STM32L4xx_HAL_Driver/Src/stm32l4xx_hal_tim.c **** /** @defgroup TIM_Exported_Functions_Group2 TIM Output Compare functions
 623:Drivers/STM32L4xx_HAL_Driver/Src/stm32l4xx_hal_tim.c ****   *  @brief    TIM Output Compare functions
 624:Drivers/STM32L4xx_HAL_Driver/Src/stm32l4xx_hal_tim.c ****   *
 625:Drivers/STM32L4xx_HAL_Driver/Src/stm32l4xx_hal_tim.c **** @verbatim
 626:Drivers/STM32L4xx_HAL_Driver/Src/stm32l4xx_hal_tim.c ****   ==============================================================================
 627:Drivers/STM32L4xx_HAL_Driver/Src/stm32l4xx_hal_tim.c ****                   ##### TIM Output Compare functions #####
 628:Drivers/STM32L4xx_HAL_Driver/Src/stm32l4xx_hal_tim.c ****   ==============================================================================
 629:Drivers/STM32L4xx_HAL_Driver/Src/stm32l4xx_hal_tim.c ****   [..]
 630:Drivers/STM32L4xx_HAL_Driver/Src/stm32l4xx_hal_tim.c ****     This section provides functions allowing to:
 631:Drivers/STM32L4xx_HAL_Driver/Src/stm32l4xx_hal_tim.c ****     (+) Initialize and configure the TIM Output Compare.
 632:Drivers/STM32L4xx_HAL_Driver/Src/stm32l4xx_hal_tim.c ****     (+) De-initialize the TIM Output Compare.
 633:Drivers/STM32L4xx_HAL_Driver/Src/stm32l4xx_hal_tim.c ****     (+) Start the TIM Output Compare.
 634:Drivers/STM32L4xx_HAL_Driver/Src/stm32l4xx_hal_tim.c ****     (+) Stop the TIM Output Compare.
 635:Drivers/STM32L4xx_HAL_Driver/Src/stm32l4xx_hal_tim.c ****     (+) Start the TIM Output Compare and enable interrupt.
 636:Drivers/STM32L4xx_HAL_Driver/Src/stm32l4xx_hal_tim.c ****     (+) Stop the TIM Output Compare and disable interrupt.
 637:Drivers/STM32L4xx_HAL_Driver/Src/stm32l4xx_hal_tim.c ****     (+) Start the TIM Output Compare and enable DMA transfer.
 638:Drivers/STM32L4xx_HAL_Driver/Src/stm32l4xx_hal_tim.c ****     (+) Stop the TIM Output Compare and disable DMA transfer.
 639:Drivers/STM32L4xx_HAL_Driver/Src/stm32l4xx_hal_tim.c **** 
 640:Drivers/STM32L4xx_HAL_Driver/Src/stm32l4xx_hal_tim.c **** @endverbatim
 641:Drivers/STM32L4xx_HAL_Driver/Src/stm32l4xx_hal_tim.c ****   * @{
 642:Drivers/STM32L4xx_HAL_Driver/Src/stm32l4xx_hal_tim.c ****   */
 643:Drivers/STM32L4xx_HAL_Driver/Src/stm32l4xx_hal_tim.c **** /**
 644:Drivers/STM32L4xx_HAL_Driver/Src/stm32l4xx_hal_tim.c ****   * @brief  Initializes the TIM Output Compare according to the specified
 645:Drivers/STM32L4xx_HAL_Driver/Src/stm32l4xx_hal_tim.c ****   *         parameters in the TIM_HandleTypeDef and initializes the associated handle.
 646:Drivers/STM32L4xx_HAL_Driver/Src/stm32l4xx_hal_tim.c ****   * @note   Switching from Center Aligned counter mode to Edge counter mode (or reverse)
 647:Drivers/STM32L4xx_HAL_Driver/Src/stm32l4xx_hal_tim.c ****   *         requires a timer reset to avoid unexpected direction
 648:Drivers/STM32L4xx_HAL_Driver/Src/stm32l4xx_hal_tim.c ****   *         due to DIR bit readonly in center aligned mode.
 649:Drivers/STM32L4xx_HAL_Driver/Src/stm32l4xx_hal_tim.c ****   *         Ex: call @ref HAL_TIM_OC_DeInit() before HAL_TIM_OC_Init()
 650:Drivers/STM32L4xx_HAL_Driver/Src/stm32l4xx_hal_tim.c ****   * @param  htim TIM Output Compare handle
 651:Drivers/STM32L4xx_HAL_Driver/Src/stm32l4xx_hal_tim.c ****   * @retval HAL status
 652:Drivers/STM32L4xx_HAL_Driver/Src/stm32l4xx_hal_tim.c ****   */
 653:Drivers/STM32L4xx_HAL_Driver/Src/stm32l4xx_hal_tim.c **** HAL_StatusTypeDef HAL_TIM_OC_Init(TIM_HandleTypeDef *htim)
 654:Drivers/STM32L4xx_HAL_Driver/Src/stm32l4xx_hal_tim.c **** {
ARM GAS  C:\Users\ep_ygh\AppData\Local\Temp\ccFTC33n.s 			page 32


 1128              		.loc 1 654 1
 1129              		.cfi_startproc
 1130              		@ args = 0, pretend = 0, frame = 8
 1131              		@ frame_needed = 1, uses_anonymous_args = 0
 1132 0000 80B5     		push	{r7, lr}
 1133              	.LCFI56:
 1134              		.cfi_def_cfa_offset 8
 1135              		.cfi_offset 7, -8
 1136              		.cfi_offset 14, -4
 1137 0002 82B0     		sub	sp, sp, #8
 1138              	.LCFI57:
 1139              		.cfi_def_cfa_offset 16
 1140 0004 00AF     		add	r7, sp, #0
 1141              	.LCFI58:
 1142              		.cfi_def_cfa_register 7
 1143 0006 7860     		str	r0, [r7, #4]
 655:Drivers/STM32L4xx_HAL_Driver/Src/stm32l4xx_hal_tim.c ****   /* Check the TIM handle allocation */
 656:Drivers/STM32L4xx_HAL_Driver/Src/stm32l4xx_hal_tim.c ****   if (htim == NULL)
 1144              		.loc 1 656 6
 1145 0008 7B68     		ldr	r3, [r7, #4]
 1146 000a 002B     		cmp	r3, #0
 1147 000c 01D1     		bne	.L56
 657:Drivers/STM32L4xx_HAL_Driver/Src/stm32l4xx_hal_tim.c ****   {
 658:Drivers/STM32L4xx_HAL_Driver/Src/stm32l4xx_hal_tim.c ****     return HAL_ERROR;
 1148              		.loc 1 658 12
 1149 000e 0123     		movs	r3, #1
 1150 0010 49E0     		b	.L57
 1151              	.L56:
 659:Drivers/STM32L4xx_HAL_Driver/Src/stm32l4xx_hal_tim.c ****   }
 660:Drivers/STM32L4xx_HAL_Driver/Src/stm32l4xx_hal_tim.c **** 
 661:Drivers/STM32L4xx_HAL_Driver/Src/stm32l4xx_hal_tim.c ****   /* Check the parameters */
 662:Drivers/STM32L4xx_HAL_Driver/Src/stm32l4xx_hal_tim.c ****   assert_param(IS_TIM_INSTANCE(htim->Instance));
 663:Drivers/STM32L4xx_HAL_Driver/Src/stm32l4xx_hal_tim.c ****   assert_param(IS_TIM_COUNTER_MODE(htim->Init.CounterMode));
 664:Drivers/STM32L4xx_HAL_Driver/Src/stm32l4xx_hal_tim.c ****   assert_param(IS_TIM_CLOCKDIVISION_DIV(htim->Init.ClockDivision));
 665:Drivers/STM32L4xx_HAL_Driver/Src/stm32l4xx_hal_tim.c ****   assert_param(IS_TIM_PERIOD(htim, htim->Init.Period));
 666:Drivers/STM32L4xx_HAL_Driver/Src/stm32l4xx_hal_tim.c ****   assert_param(IS_TIM_AUTORELOAD_PRELOAD(htim->Init.AutoReloadPreload));
 667:Drivers/STM32L4xx_HAL_Driver/Src/stm32l4xx_hal_tim.c **** 
 668:Drivers/STM32L4xx_HAL_Driver/Src/stm32l4xx_hal_tim.c ****   if (htim->State == HAL_TIM_STATE_RESET)
 1152              		.loc 1 668 11
 1153 0012 7B68     		ldr	r3, [r7, #4]
 1154 0014 93F83D30 		ldrb	r3, [r3, #61]
 1155 0018 DBB2     		uxtb	r3, r3
 1156              		.loc 1 668 6
 1157 001a 002B     		cmp	r3, #0
 1158 001c 06D1     		bne	.L58
 669:Drivers/STM32L4xx_HAL_Driver/Src/stm32l4xx_hal_tim.c ****   {
 670:Drivers/STM32L4xx_HAL_Driver/Src/stm32l4xx_hal_tim.c ****     /* Allocate lock resource and initialize it */
 671:Drivers/STM32L4xx_HAL_Driver/Src/stm32l4xx_hal_tim.c ****     htim->Lock = HAL_UNLOCKED;
 1159              		.loc 1 671 16
 1160 001e 7B68     		ldr	r3, [r7, #4]
 1161 0020 0022     		movs	r2, #0
 1162 0022 83F83C20 		strb	r2, [r3, #60]
 672:Drivers/STM32L4xx_HAL_Driver/Src/stm32l4xx_hal_tim.c **** 
 673:Drivers/STM32L4xx_HAL_Driver/Src/stm32l4xx_hal_tim.c **** #if (USE_HAL_TIM_REGISTER_CALLBACKS == 1)
 674:Drivers/STM32L4xx_HAL_Driver/Src/stm32l4xx_hal_tim.c ****     /* Reset interrupt callbacks to legacy weak callbacks */
 675:Drivers/STM32L4xx_HAL_Driver/Src/stm32l4xx_hal_tim.c ****     TIM_ResetCallback(htim);
 676:Drivers/STM32L4xx_HAL_Driver/Src/stm32l4xx_hal_tim.c **** 
ARM GAS  C:\Users\ep_ygh\AppData\Local\Temp\ccFTC33n.s 			page 33


 677:Drivers/STM32L4xx_HAL_Driver/Src/stm32l4xx_hal_tim.c ****     if (htim->OC_MspInitCallback == NULL)
 678:Drivers/STM32L4xx_HAL_Driver/Src/stm32l4xx_hal_tim.c ****     {
 679:Drivers/STM32L4xx_HAL_Driver/Src/stm32l4xx_hal_tim.c ****       htim->OC_MspInitCallback = HAL_TIM_OC_MspInit;
 680:Drivers/STM32L4xx_HAL_Driver/Src/stm32l4xx_hal_tim.c ****     }
 681:Drivers/STM32L4xx_HAL_Driver/Src/stm32l4xx_hal_tim.c ****     /* Init the low level hardware : GPIO, CLOCK, NVIC */
 682:Drivers/STM32L4xx_HAL_Driver/Src/stm32l4xx_hal_tim.c ****     htim->OC_MspInitCallback(htim);
 683:Drivers/STM32L4xx_HAL_Driver/Src/stm32l4xx_hal_tim.c **** #else
 684:Drivers/STM32L4xx_HAL_Driver/Src/stm32l4xx_hal_tim.c ****     /* Init the low level hardware : GPIO, CLOCK, NVIC and DMA */
 685:Drivers/STM32L4xx_HAL_Driver/Src/stm32l4xx_hal_tim.c ****     HAL_TIM_OC_MspInit(htim);
 1163              		.loc 1 685 5
 1164 0026 7868     		ldr	r0, [r7, #4]
 1165 0028 FFF7FEFF 		bl	HAL_TIM_OC_MspInit
 1166              	.L58:
 686:Drivers/STM32L4xx_HAL_Driver/Src/stm32l4xx_hal_tim.c **** #endif /* USE_HAL_TIM_REGISTER_CALLBACKS */
 687:Drivers/STM32L4xx_HAL_Driver/Src/stm32l4xx_hal_tim.c ****   }
 688:Drivers/STM32L4xx_HAL_Driver/Src/stm32l4xx_hal_tim.c **** 
 689:Drivers/STM32L4xx_HAL_Driver/Src/stm32l4xx_hal_tim.c ****   /* Set the TIM state */
 690:Drivers/STM32L4xx_HAL_Driver/Src/stm32l4xx_hal_tim.c ****   htim->State = HAL_TIM_STATE_BUSY;
 1167              		.loc 1 690 15
 1168 002c 7B68     		ldr	r3, [r7, #4]
 1169 002e 0222     		movs	r2, #2
 1170 0030 83F83D20 		strb	r2, [r3, #61]
 691:Drivers/STM32L4xx_HAL_Driver/Src/stm32l4xx_hal_tim.c **** 
 692:Drivers/STM32L4xx_HAL_Driver/Src/stm32l4xx_hal_tim.c ****   /* Init the base time for the Output Compare */
 693:Drivers/STM32L4xx_HAL_Driver/Src/stm32l4xx_hal_tim.c ****   TIM_Base_SetConfig(htim->Instance,  &htim->Init);
 1171              		.loc 1 693 3
 1172 0034 7B68     		ldr	r3, [r7, #4]
 1173 0036 1A68     		ldr	r2, [r3]
 1174              		.loc 1 693 39
 1175 0038 7B68     		ldr	r3, [r7, #4]
 1176 003a 0433     		adds	r3, r3, #4
 1177              		.loc 1 693 3
 1178 003c 1946     		mov	r1, r3
 1179 003e 1046     		mov	r0, r2
 1180 0040 FFF7FEFF 		bl	TIM_Base_SetConfig
 694:Drivers/STM32L4xx_HAL_Driver/Src/stm32l4xx_hal_tim.c **** 
 695:Drivers/STM32L4xx_HAL_Driver/Src/stm32l4xx_hal_tim.c ****   /* Initialize the DMA burst operation state */
 696:Drivers/STM32L4xx_HAL_Driver/Src/stm32l4xx_hal_tim.c ****   htim->DMABurstState = HAL_DMA_BURST_STATE_READY;
 1181              		.loc 1 696 23
 1182 0044 7B68     		ldr	r3, [r7, #4]
 1183 0046 0122     		movs	r2, #1
 1184 0048 83F84820 		strb	r2, [r3, #72]
 697:Drivers/STM32L4xx_HAL_Driver/Src/stm32l4xx_hal_tim.c **** 
 698:Drivers/STM32L4xx_HAL_Driver/Src/stm32l4xx_hal_tim.c ****   /* Initialize the TIM channels state */
 699:Drivers/STM32L4xx_HAL_Driver/Src/stm32l4xx_hal_tim.c ****   TIM_CHANNEL_STATE_SET_ALL(htim, HAL_TIM_CHANNEL_STATE_READY);
 1185              		.loc 1 699 3
 1186 004c 7B68     		ldr	r3, [r7, #4]
 1187 004e 0122     		movs	r2, #1
 1188 0050 83F83E20 		strb	r2, [r3, #62]
 1189 0054 7B68     		ldr	r3, [r7, #4]
 1190 0056 0122     		movs	r2, #1
 1191 0058 83F83F20 		strb	r2, [r3, #63]
 1192 005c 7B68     		ldr	r3, [r7, #4]
 1193 005e 0122     		movs	r2, #1
 1194 0060 83F84020 		strb	r2, [r3, #64]
 1195 0064 7B68     		ldr	r3, [r7, #4]
 1196 0066 0122     		movs	r2, #1
ARM GAS  C:\Users\ep_ygh\AppData\Local\Temp\ccFTC33n.s 			page 34


 1197 0068 83F84120 		strb	r2, [r3, #65]
 1198 006c 7B68     		ldr	r3, [r7, #4]
 1199 006e 0122     		movs	r2, #1
 1200 0070 83F84220 		strb	r2, [r3, #66]
 1201 0074 7B68     		ldr	r3, [r7, #4]
 1202 0076 0122     		movs	r2, #1
 1203 0078 83F84320 		strb	r2, [r3, #67]
 700:Drivers/STM32L4xx_HAL_Driver/Src/stm32l4xx_hal_tim.c ****   TIM_CHANNEL_N_STATE_SET_ALL(htim, HAL_TIM_CHANNEL_STATE_READY);
 1204              		.loc 1 700 3
 1205 007c 7B68     		ldr	r3, [r7, #4]
 1206 007e 0122     		movs	r2, #1
 1207 0080 83F84420 		strb	r2, [r3, #68]
 1208 0084 7B68     		ldr	r3, [r7, #4]
 1209 0086 0122     		movs	r2, #1
 1210 0088 83F84520 		strb	r2, [r3, #69]
 1211 008c 7B68     		ldr	r3, [r7, #4]
 1212 008e 0122     		movs	r2, #1
 1213 0090 83F84620 		strb	r2, [r3, #70]
 1214 0094 7B68     		ldr	r3, [r7, #4]
 1215 0096 0122     		movs	r2, #1
 1216 0098 83F84720 		strb	r2, [r3, #71]
 701:Drivers/STM32L4xx_HAL_Driver/Src/stm32l4xx_hal_tim.c **** 
 702:Drivers/STM32L4xx_HAL_Driver/Src/stm32l4xx_hal_tim.c ****   /* Initialize the TIM state*/
 703:Drivers/STM32L4xx_HAL_Driver/Src/stm32l4xx_hal_tim.c ****   htim->State = HAL_TIM_STATE_READY;
 1217              		.loc 1 703 15
 1218 009c 7B68     		ldr	r3, [r7, #4]
 1219 009e 0122     		movs	r2, #1
 1220 00a0 83F83D20 		strb	r2, [r3, #61]
 704:Drivers/STM32L4xx_HAL_Driver/Src/stm32l4xx_hal_tim.c **** 
 705:Drivers/STM32L4xx_HAL_Driver/Src/stm32l4xx_hal_tim.c ****   return HAL_OK;
 1221              		.loc 1 705 10
 1222 00a4 0023     		movs	r3, #0
 1223              	.L57:
 706:Drivers/STM32L4xx_HAL_Driver/Src/stm32l4xx_hal_tim.c **** }
 1224              		.loc 1 706 1
 1225 00a6 1846     		mov	r0, r3
 1226 00a8 0837     		adds	r7, r7, #8
 1227              	.LCFI59:
 1228              		.cfi_def_cfa_offset 8
 1229 00aa BD46     		mov	sp, r7
 1230              	.LCFI60:
 1231              		.cfi_def_cfa_register 13
 1232              		@ sp needed
 1233 00ac 80BD     		pop	{r7, pc}
 1234              		.cfi_endproc
 1235              	.LFE327:
 1237              		.section	.text.HAL_TIM_OC_DeInit,"ax",%progbits
 1238              		.align	1
 1239              		.global	HAL_TIM_OC_DeInit
 1240              		.syntax unified
 1241              		.thumb
 1242              		.thumb_func
 1244              	HAL_TIM_OC_DeInit:
 1245              	.LFB328:
 707:Drivers/STM32L4xx_HAL_Driver/Src/stm32l4xx_hal_tim.c **** 
 708:Drivers/STM32L4xx_HAL_Driver/Src/stm32l4xx_hal_tim.c **** /**
 709:Drivers/STM32L4xx_HAL_Driver/Src/stm32l4xx_hal_tim.c ****   * @brief  DeInitializes the TIM peripheral
ARM GAS  C:\Users\ep_ygh\AppData\Local\Temp\ccFTC33n.s 			page 35


 710:Drivers/STM32L4xx_HAL_Driver/Src/stm32l4xx_hal_tim.c ****   * @param  htim TIM Output Compare handle
 711:Drivers/STM32L4xx_HAL_Driver/Src/stm32l4xx_hal_tim.c ****   * @retval HAL status
 712:Drivers/STM32L4xx_HAL_Driver/Src/stm32l4xx_hal_tim.c ****   */
 713:Drivers/STM32L4xx_HAL_Driver/Src/stm32l4xx_hal_tim.c **** HAL_StatusTypeDef HAL_TIM_OC_DeInit(TIM_HandleTypeDef *htim)
 714:Drivers/STM32L4xx_HAL_Driver/Src/stm32l4xx_hal_tim.c **** {
 1246              		.loc 1 714 1
 1247              		.cfi_startproc
 1248              		@ args = 0, pretend = 0, frame = 8
 1249              		@ frame_needed = 1, uses_anonymous_args = 0
 1250 0000 80B5     		push	{r7, lr}
 1251              	.LCFI61:
 1252              		.cfi_def_cfa_offset 8
 1253              		.cfi_offset 7, -8
 1254              		.cfi_offset 14, -4
 1255 0002 82B0     		sub	sp, sp, #8
 1256              	.LCFI62:
 1257              		.cfi_def_cfa_offset 16
 1258 0004 00AF     		add	r7, sp, #0
 1259              	.LCFI63:
 1260              		.cfi_def_cfa_register 7
 1261 0006 7860     		str	r0, [r7, #4]
 715:Drivers/STM32L4xx_HAL_Driver/Src/stm32l4xx_hal_tim.c ****   /* Check the parameters */
 716:Drivers/STM32L4xx_HAL_Driver/Src/stm32l4xx_hal_tim.c ****   assert_param(IS_TIM_INSTANCE(htim->Instance));
 717:Drivers/STM32L4xx_HAL_Driver/Src/stm32l4xx_hal_tim.c **** 
 718:Drivers/STM32L4xx_HAL_Driver/Src/stm32l4xx_hal_tim.c ****   htim->State = HAL_TIM_STATE_BUSY;
 1262              		.loc 1 718 15
 1263 0008 7B68     		ldr	r3, [r7, #4]
 1264 000a 0222     		movs	r2, #2
 1265 000c 83F83D20 		strb	r2, [r3, #61]
 719:Drivers/STM32L4xx_HAL_Driver/Src/stm32l4xx_hal_tim.c **** 
 720:Drivers/STM32L4xx_HAL_Driver/Src/stm32l4xx_hal_tim.c ****   /* Disable the TIM Peripheral Clock */
 721:Drivers/STM32L4xx_HAL_Driver/Src/stm32l4xx_hal_tim.c ****   __HAL_TIM_DISABLE(htim);
 1266              		.loc 1 721 3
 1267 0010 7B68     		ldr	r3, [r7, #4]
 1268 0012 1B68     		ldr	r3, [r3]
 1269 0014 1A6A     		ldr	r2, [r3, #32]
 1270 0016 41F21113 		movw	r3, #4369
 1271 001a 1340     		ands	r3, r3, r2
 1272 001c 002B     		cmp	r3, #0
 1273 001e 0FD1     		bne	.L60
 1274              		.loc 1 721 3 is_stmt 0 discriminator 1
 1275 0020 7B68     		ldr	r3, [r7, #4]
 1276 0022 1B68     		ldr	r3, [r3]
 1277 0024 1A6A     		ldr	r2, [r3, #32]
 1278 0026 40F24443 		movw	r3, #1092
 1279 002a 1340     		ands	r3, r3, r2
 1280 002c 002B     		cmp	r3, #0
 1281 002e 07D1     		bne	.L60
 1282              		.loc 1 721 3 discriminator 2
 1283 0030 7B68     		ldr	r3, [r7, #4]
 1284 0032 1B68     		ldr	r3, [r3]
 1285 0034 1A68     		ldr	r2, [r3]
 1286 0036 7B68     		ldr	r3, [r7, #4]
 1287 0038 1B68     		ldr	r3, [r3]
 1288 003a 22F00102 		bic	r2, r2, #1
 1289 003e 1A60     		str	r2, [r3]
 1290              	.L60:
ARM GAS  C:\Users\ep_ygh\AppData\Local\Temp\ccFTC33n.s 			page 36


 722:Drivers/STM32L4xx_HAL_Driver/Src/stm32l4xx_hal_tim.c **** 
 723:Drivers/STM32L4xx_HAL_Driver/Src/stm32l4xx_hal_tim.c **** #if (USE_HAL_TIM_REGISTER_CALLBACKS == 1)
 724:Drivers/STM32L4xx_HAL_Driver/Src/stm32l4xx_hal_tim.c ****   if (htim->OC_MspDeInitCallback == NULL)
 725:Drivers/STM32L4xx_HAL_Driver/Src/stm32l4xx_hal_tim.c ****   {
 726:Drivers/STM32L4xx_HAL_Driver/Src/stm32l4xx_hal_tim.c ****     htim->OC_MspDeInitCallback = HAL_TIM_OC_MspDeInit;
 727:Drivers/STM32L4xx_HAL_Driver/Src/stm32l4xx_hal_tim.c ****   }
 728:Drivers/STM32L4xx_HAL_Driver/Src/stm32l4xx_hal_tim.c ****   /* DeInit the low level hardware */
 729:Drivers/STM32L4xx_HAL_Driver/Src/stm32l4xx_hal_tim.c ****   htim->OC_MspDeInitCallback(htim);
 730:Drivers/STM32L4xx_HAL_Driver/Src/stm32l4xx_hal_tim.c **** #else
 731:Drivers/STM32L4xx_HAL_Driver/Src/stm32l4xx_hal_tim.c ****   /* DeInit the low level hardware: GPIO, CLOCK, NVIC and DMA */
 732:Drivers/STM32L4xx_HAL_Driver/Src/stm32l4xx_hal_tim.c ****   HAL_TIM_OC_MspDeInit(htim);
 1291              		.loc 1 732 3 is_stmt 1
 1292 0040 7868     		ldr	r0, [r7, #4]
 1293 0042 FFF7FEFF 		bl	HAL_TIM_OC_MspDeInit
 733:Drivers/STM32L4xx_HAL_Driver/Src/stm32l4xx_hal_tim.c **** #endif /* USE_HAL_TIM_REGISTER_CALLBACKS */
 734:Drivers/STM32L4xx_HAL_Driver/Src/stm32l4xx_hal_tim.c **** 
 735:Drivers/STM32L4xx_HAL_Driver/Src/stm32l4xx_hal_tim.c ****   /* Change the DMA burst operation state */
 736:Drivers/STM32L4xx_HAL_Driver/Src/stm32l4xx_hal_tim.c ****   htim->DMABurstState = HAL_DMA_BURST_STATE_RESET;
 1294              		.loc 1 736 23
 1295 0046 7B68     		ldr	r3, [r7, #4]
 1296 0048 0022     		movs	r2, #0
 1297 004a 83F84820 		strb	r2, [r3, #72]
 737:Drivers/STM32L4xx_HAL_Driver/Src/stm32l4xx_hal_tim.c **** 
 738:Drivers/STM32L4xx_HAL_Driver/Src/stm32l4xx_hal_tim.c ****   /* Change the TIM channels state */
 739:Drivers/STM32L4xx_HAL_Driver/Src/stm32l4xx_hal_tim.c ****   TIM_CHANNEL_STATE_SET_ALL(htim, HAL_TIM_CHANNEL_STATE_RESET);
 1298              		.loc 1 739 3
 1299 004e 7B68     		ldr	r3, [r7, #4]
 1300 0050 0022     		movs	r2, #0
 1301 0052 83F83E20 		strb	r2, [r3, #62]
 1302 0056 7B68     		ldr	r3, [r7, #4]
 1303 0058 0022     		movs	r2, #0
 1304 005a 83F83F20 		strb	r2, [r3, #63]
 1305 005e 7B68     		ldr	r3, [r7, #4]
 1306 0060 0022     		movs	r2, #0
 1307 0062 83F84020 		strb	r2, [r3, #64]
 1308 0066 7B68     		ldr	r3, [r7, #4]
 1309 0068 0022     		movs	r2, #0
 1310 006a 83F84120 		strb	r2, [r3, #65]
 1311 006e 7B68     		ldr	r3, [r7, #4]
 1312 0070 0022     		movs	r2, #0
 1313 0072 83F84220 		strb	r2, [r3, #66]
 1314 0076 7B68     		ldr	r3, [r7, #4]
 1315 0078 0022     		movs	r2, #0
 1316 007a 83F84320 		strb	r2, [r3, #67]
 740:Drivers/STM32L4xx_HAL_Driver/Src/stm32l4xx_hal_tim.c ****   TIM_CHANNEL_N_STATE_SET_ALL(htim, HAL_TIM_CHANNEL_STATE_RESET);
 1317              		.loc 1 740 3
 1318 007e 7B68     		ldr	r3, [r7, #4]
 1319 0080 0022     		movs	r2, #0
 1320 0082 83F84420 		strb	r2, [r3, #68]
 1321 0086 7B68     		ldr	r3, [r7, #4]
 1322 0088 0022     		movs	r2, #0
 1323 008a 83F84520 		strb	r2, [r3, #69]
 1324 008e 7B68     		ldr	r3, [r7, #4]
 1325 0090 0022     		movs	r2, #0
 1326 0092 83F84620 		strb	r2, [r3, #70]
 1327 0096 7B68     		ldr	r3, [r7, #4]
 1328 0098 0022     		movs	r2, #0
ARM GAS  C:\Users\ep_ygh\AppData\Local\Temp\ccFTC33n.s 			page 37


 1329 009a 83F84720 		strb	r2, [r3, #71]
 741:Drivers/STM32L4xx_HAL_Driver/Src/stm32l4xx_hal_tim.c **** 
 742:Drivers/STM32L4xx_HAL_Driver/Src/stm32l4xx_hal_tim.c ****   /* Change TIM state */
 743:Drivers/STM32L4xx_HAL_Driver/Src/stm32l4xx_hal_tim.c ****   htim->State = HAL_TIM_STATE_RESET;
 1330              		.loc 1 743 15
 1331 009e 7B68     		ldr	r3, [r7, #4]
 1332 00a0 0022     		movs	r2, #0
 1333 00a2 83F83D20 		strb	r2, [r3, #61]
 744:Drivers/STM32L4xx_HAL_Driver/Src/stm32l4xx_hal_tim.c **** 
 745:Drivers/STM32L4xx_HAL_Driver/Src/stm32l4xx_hal_tim.c ****   /* Release Lock */
 746:Drivers/STM32L4xx_HAL_Driver/Src/stm32l4xx_hal_tim.c ****   __HAL_UNLOCK(htim);
 1334              		.loc 1 746 3
 1335 00a6 7B68     		ldr	r3, [r7, #4]
 1336 00a8 0022     		movs	r2, #0
 1337 00aa 83F83C20 		strb	r2, [r3, #60]
 747:Drivers/STM32L4xx_HAL_Driver/Src/stm32l4xx_hal_tim.c **** 
 748:Drivers/STM32L4xx_HAL_Driver/Src/stm32l4xx_hal_tim.c ****   return HAL_OK;
 1338              		.loc 1 748 10
 1339 00ae 0023     		movs	r3, #0
 749:Drivers/STM32L4xx_HAL_Driver/Src/stm32l4xx_hal_tim.c **** }
 1340              		.loc 1 749 1
 1341 00b0 1846     		mov	r0, r3
 1342 00b2 0837     		adds	r7, r7, #8
 1343              	.LCFI64:
 1344              		.cfi_def_cfa_offset 8
 1345 00b4 BD46     		mov	sp, r7
 1346              	.LCFI65:
 1347              		.cfi_def_cfa_register 13
 1348              		@ sp needed
 1349 00b6 80BD     		pop	{r7, pc}
 1350              		.cfi_endproc
 1351              	.LFE328:
 1353              		.section	.text.HAL_TIM_OC_MspInit,"ax",%progbits
 1354              		.align	1
 1355              		.weak	HAL_TIM_OC_MspInit
 1356              		.syntax unified
 1357              		.thumb
 1358              		.thumb_func
 1360              	HAL_TIM_OC_MspInit:
 1361              	.LFB329:
 750:Drivers/STM32L4xx_HAL_Driver/Src/stm32l4xx_hal_tim.c **** 
 751:Drivers/STM32L4xx_HAL_Driver/Src/stm32l4xx_hal_tim.c **** /**
 752:Drivers/STM32L4xx_HAL_Driver/Src/stm32l4xx_hal_tim.c ****   * @brief  Initializes the TIM Output Compare MSP.
 753:Drivers/STM32L4xx_HAL_Driver/Src/stm32l4xx_hal_tim.c ****   * @param  htim TIM Output Compare handle
 754:Drivers/STM32L4xx_HAL_Driver/Src/stm32l4xx_hal_tim.c ****   * @retval None
 755:Drivers/STM32L4xx_HAL_Driver/Src/stm32l4xx_hal_tim.c ****   */
 756:Drivers/STM32L4xx_HAL_Driver/Src/stm32l4xx_hal_tim.c **** __weak void HAL_TIM_OC_MspInit(TIM_HandleTypeDef *htim)
 757:Drivers/STM32L4xx_HAL_Driver/Src/stm32l4xx_hal_tim.c **** {
 1362              		.loc 1 757 1
 1363              		.cfi_startproc
 1364              		@ args = 0, pretend = 0, frame = 8
 1365              		@ frame_needed = 1, uses_anonymous_args = 0
 1366              		@ link register save eliminated.
 1367 0000 80B4     		push	{r7}
 1368              	.LCFI66:
 1369              		.cfi_def_cfa_offset 4
 1370              		.cfi_offset 7, -4
ARM GAS  C:\Users\ep_ygh\AppData\Local\Temp\ccFTC33n.s 			page 38


 1371 0002 83B0     		sub	sp, sp, #12
 1372              	.LCFI67:
 1373              		.cfi_def_cfa_offset 16
 1374 0004 00AF     		add	r7, sp, #0
 1375              	.LCFI68:
 1376              		.cfi_def_cfa_register 7
 1377 0006 7860     		str	r0, [r7, #4]
 758:Drivers/STM32L4xx_HAL_Driver/Src/stm32l4xx_hal_tim.c ****   /* Prevent unused argument(s) compilation warning */
 759:Drivers/STM32L4xx_HAL_Driver/Src/stm32l4xx_hal_tim.c ****   UNUSED(htim);
 760:Drivers/STM32L4xx_HAL_Driver/Src/stm32l4xx_hal_tim.c **** 
 761:Drivers/STM32L4xx_HAL_Driver/Src/stm32l4xx_hal_tim.c ****   /* NOTE : This function should not be modified, when the callback is needed,
 762:Drivers/STM32L4xx_HAL_Driver/Src/stm32l4xx_hal_tim.c ****             the HAL_TIM_OC_MspInit could be implemented in the user file
 763:Drivers/STM32L4xx_HAL_Driver/Src/stm32l4xx_hal_tim.c ****    */
 764:Drivers/STM32L4xx_HAL_Driver/Src/stm32l4xx_hal_tim.c **** }
 1378              		.loc 1 764 1
 1379 0008 00BF     		nop
 1380 000a 0C37     		adds	r7, r7, #12
 1381              	.LCFI69:
 1382              		.cfi_def_cfa_offset 4
 1383 000c BD46     		mov	sp, r7
 1384              	.LCFI70:
 1385              		.cfi_def_cfa_register 13
 1386              		@ sp needed
 1387 000e 5DF8047B 		ldr	r7, [sp], #4
 1388              	.LCFI71:
 1389              		.cfi_restore 7
 1390              		.cfi_def_cfa_offset 0
 1391 0012 7047     		bx	lr
 1392              		.cfi_endproc
 1393              	.LFE329:
 1395              		.section	.text.HAL_TIM_OC_MspDeInit,"ax",%progbits
 1396              		.align	1
 1397              		.weak	HAL_TIM_OC_MspDeInit
 1398              		.syntax unified
 1399              		.thumb
 1400              		.thumb_func
 1402              	HAL_TIM_OC_MspDeInit:
 1403              	.LFB330:
 765:Drivers/STM32L4xx_HAL_Driver/Src/stm32l4xx_hal_tim.c **** 
 766:Drivers/STM32L4xx_HAL_Driver/Src/stm32l4xx_hal_tim.c **** /**
 767:Drivers/STM32L4xx_HAL_Driver/Src/stm32l4xx_hal_tim.c ****   * @brief  DeInitializes TIM Output Compare MSP.
 768:Drivers/STM32L4xx_HAL_Driver/Src/stm32l4xx_hal_tim.c ****   * @param  htim TIM Output Compare handle
 769:Drivers/STM32L4xx_HAL_Driver/Src/stm32l4xx_hal_tim.c ****   * @retval None
 770:Drivers/STM32L4xx_HAL_Driver/Src/stm32l4xx_hal_tim.c ****   */
 771:Drivers/STM32L4xx_HAL_Driver/Src/stm32l4xx_hal_tim.c **** __weak void HAL_TIM_OC_MspDeInit(TIM_HandleTypeDef *htim)
 772:Drivers/STM32L4xx_HAL_Driver/Src/stm32l4xx_hal_tim.c **** {
 1404              		.loc 1 772 1
 1405              		.cfi_startproc
 1406              		@ args = 0, pretend = 0, frame = 8
 1407              		@ frame_needed = 1, uses_anonymous_args = 0
 1408              		@ link register save eliminated.
 1409 0000 80B4     		push	{r7}
 1410              	.LCFI72:
 1411              		.cfi_def_cfa_offset 4
 1412              		.cfi_offset 7, -4
 1413 0002 83B0     		sub	sp, sp, #12
 1414              	.LCFI73:
ARM GAS  C:\Users\ep_ygh\AppData\Local\Temp\ccFTC33n.s 			page 39


 1415              		.cfi_def_cfa_offset 16
 1416 0004 00AF     		add	r7, sp, #0
 1417              	.LCFI74:
 1418              		.cfi_def_cfa_register 7
 1419 0006 7860     		str	r0, [r7, #4]
 773:Drivers/STM32L4xx_HAL_Driver/Src/stm32l4xx_hal_tim.c ****   /* Prevent unused argument(s) compilation warning */
 774:Drivers/STM32L4xx_HAL_Driver/Src/stm32l4xx_hal_tim.c ****   UNUSED(htim);
 775:Drivers/STM32L4xx_HAL_Driver/Src/stm32l4xx_hal_tim.c **** 
 776:Drivers/STM32L4xx_HAL_Driver/Src/stm32l4xx_hal_tim.c ****   /* NOTE : This function should not be modified, when the callback is needed,
 777:Drivers/STM32L4xx_HAL_Driver/Src/stm32l4xx_hal_tim.c ****             the HAL_TIM_OC_MspDeInit could be implemented in the user file
 778:Drivers/STM32L4xx_HAL_Driver/Src/stm32l4xx_hal_tim.c ****    */
 779:Drivers/STM32L4xx_HAL_Driver/Src/stm32l4xx_hal_tim.c **** }
 1420              		.loc 1 779 1
 1421 0008 00BF     		nop
 1422 000a 0C37     		adds	r7, r7, #12
 1423              	.LCFI75:
 1424              		.cfi_def_cfa_offset 4
 1425 000c BD46     		mov	sp, r7
 1426              	.LCFI76:
 1427              		.cfi_def_cfa_register 13
 1428              		@ sp needed
 1429 000e 5DF8047B 		ldr	r7, [sp], #4
 1430              	.LCFI77:
 1431              		.cfi_restore 7
 1432              		.cfi_def_cfa_offset 0
 1433 0012 7047     		bx	lr
 1434              		.cfi_endproc
 1435              	.LFE330:
 1437              		.section	.text.HAL_TIM_OC_Start,"ax",%progbits
 1438              		.align	1
 1439              		.global	HAL_TIM_OC_Start
 1440              		.syntax unified
 1441              		.thumb
 1442              		.thumb_func
 1444              	HAL_TIM_OC_Start:
 1445              	.LFB331:
 780:Drivers/STM32L4xx_HAL_Driver/Src/stm32l4xx_hal_tim.c **** 
 781:Drivers/STM32L4xx_HAL_Driver/Src/stm32l4xx_hal_tim.c **** /**
 782:Drivers/STM32L4xx_HAL_Driver/Src/stm32l4xx_hal_tim.c ****   * @brief  Starts the TIM Output Compare signal generation.
 783:Drivers/STM32L4xx_HAL_Driver/Src/stm32l4xx_hal_tim.c ****   * @param  htim TIM Output Compare handle
 784:Drivers/STM32L4xx_HAL_Driver/Src/stm32l4xx_hal_tim.c ****   * @param  Channel TIM Channel to be enabled
 785:Drivers/STM32L4xx_HAL_Driver/Src/stm32l4xx_hal_tim.c ****   *          This parameter can be one of the following values:
 786:Drivers/STM32L4xx_HAL_Driver/Src/stm32l4xx_hal_tim.c ****   *            @arg TIM_CHANNEL_1: TIM Channel 1 selected
 787:Drivers/STM32L4xx_HAL_Driver/Src/stm32l4xx_hal_tim.c ****   *            @arg TIM_CHANNEL_2: TIM Channel 2 selected
 788:Drivers/STM32L4xx_HAL_Driver/Src/stm32l4xx_hal_tim.c ****   *            @arg TIM_CHANNEL_3: TIM Channel 3 selected
 789:Drivers/STM32L4xx_HAL_Driver/Src/stm32l4xx_hal_tim.c ****   *            @arg TIM_CHANNEL_4: TIM Channel 4 selected
 790:Drivers/STM32L4xx_HAL_Driver/Src/stm32l4xx_hal_tim.c ****   *            @arg TIM_CHANNEL_5: TIM Channel 5 selected
 791:Drivers/STM32L4xx_HAL_Driver/Src/stm32l4xx_hal_tim.c ****   *            @arg TIM_CHANNEL_6: TIM Channel 6 selected
 792:Drivers/STM32L4xx_HAL_Driver/Src/stm32l4xx_hal_tim.c ****   * @retval HAL status
 793:Drivers/STM32L4xx_HAL_Driver/Src/stm32l4xx_hal_tim.c ****   */
 794:Drivers/STM32L4xx_HAL_Driver/Src/stm32l4xx_hal_tim.c **** HAL_StatusTypeDef HAL_TIM_OC_Start(TIM_HandleTypeDef *htim, uint32_t Channel)
 795:Drivers/STM32L4xx_HAL_Driver/Src/stm32l4xx_hal_tim.c **** {
 1446              		.loc 1 795 1
 1447              		.cfi_startproc
 1448              		@ args = 0, pretend = 0, frame = 16
 1449              		@ frame_needed = 1, uses_anonymous_args = 0
 1450 0000 80B5     		push	{r7, lr}
ARM GAS  C:\Users\ep_ygh\AppData\Local\Temp\ccFTC33n.s 			page 40


 1451              	.LCFI78:
 1452              		.cfi_def_cfa_offset 8
 1453              		.cfi_offset 7, -8
 1454              		.cfi_offset 14, -4
 1455 0002 84B0     		sub	sp, sp, #16
 1456              	.LCFI79:
 1457              		.cfi_def_cfa_offset 24
 1458 0004 00AF     		add	r7, sp, #0
 1459              	.LCFI80:
 1460              		.cfi_def_cfa_register 7
 1461 0006 7860     		str	r0, [r7, #4]
 1462 0008 3960     		str	r1, [r7]
 796:Drivers/STM32L4xx_HAL_Driver/Src/stm32l4xx_hal_tim.c ****   uint32_t tmpsmcr;
 797:Drivers/STM32L4xx_HAL_Driver/Src/stm32l4xx_hal_tim.c **** 
 798:Drivers/STM32L4xx_HAL_Driver/Src/stm32l4xx_hal_tim.c ****   /* Check the parameters */
 799:Drivers/STM32L4xx_HAL_Driver/Src/stm32l4xx_hal_tim.c ****   assert_param(IS_TIM_CCX_INSTANCE(htim->Instance, Channel));
 800:Drivers/STM32L4xx_HAL_Driver/Src/stm32l4xx_hal_tim.c **** 
 801:Drivers/STM32L4xx_HAL_Driver/Src/stm32l4xx_hal_tim.c ****   /* Check the TIM channel state */
 802:Drivers/STM32L4xx_HAL_Driver/Src/stm32l4xx_hal_tim.c ****   if (TIM_CHANNEL_STATE_GET(htim, Channel) != HAL_TIM_CHANNEL_STATE_READY)
 1463              		.loc 1 802 44
 1464 000a 3B68     		ldr	r3, [r7]
 1465 000c 002B     		cmp	r3, #0
 1466 000e 09D1     		bne	.L65
 1467              		.loc 1 802 7 discriminator 1
 1468 0010 7B68     		ldr	r3, [r7, #4]
 1469 0012 93F83E30 		ldrb	r3, [r3, #62]
 1470 0016 DBB2     		uxtb	r3, r3
 1471              		.loc 1 802 44 discriminator 1
 1472 0018 012B     		cmp	r3, #1
 1473 001a 14BF     		ite	ne
 1474 001c 0123     		movne	r3, #1
 1475 001e 0023     		moveq	r3, #0
 1476 0020 DBB2     		uxtb	r3, r3
 1477 0022 3CE0     		b	.L66
 1478              	.L65:
 1479              		.loc 1 802 44 is_stmt 0 discriminator 2
 1480 0024 3B68     		ldr	r3, [r7]
 1481 0026 042B     		cmp	r3, #4
 1482 0028 09D1     		bne	.L67
 1483              		.loc 1 802 7 is_stmt 1 discriminator 4
 1484 002a 7B68     		ldr	r3, [r7, #4]
 1485 002c 93F83F30 		ldrb	r3, [r3, #63]
 1486 0030 DBB2     		uxtb	r3, r3
 1487              		.loc 1 802 44 discriminator 4
 1488 0032 012B     		cmp	r3, #1
 1489 0034 14BF     		ite	ne
 1490 0036 0123     		movne	r3, #1
 1491 0038 0023     		moveq	r3, #0
 1492 003a DBB2     		uxtb	r3, r3
 1493 003c 2FE0     		b	.L66
 1494              	.L67:
 1495              		.loc 1 802 44 is_stmt 0 discriminator 5
 1496 003e 3B68     		ldr	r3, [r7]
 1497 0040 082B     		cmp	r3, #8
 1498 0042 09D1     		bne	.L69
 1499              		.loc 1 802 7 is_stmt 1 discriminator 7
 1500 0044 7B68     		ldr	r3, [r7, #4]
ARM GAS  C:\Users\ep_ygh\AppData\Local\Temp\ccFTC33n.s 			page 41


 1501 0046 93F84030 		ldrb	r3, [r3, #64]
 1502 004a DBB2     		uxtb	r3, r3
 1503              		.loc 1 802 44 discriminator 7
 1504 004c 012B     		cmp	r3, #1
 1505 004e 14BF     		ite	ne
 1506 0050 0123     		movne	r3, #1
 1507 0052 0023     		moveq	r3, #0
 1508 0054 DBB2     		uxtb	r3, r3
 1509 0056 22E0     		b	.L66
 1510              	.L69:
 1511              		.loc 1 802 44 is_stmt 0 discriminator 8
 1512 0058 3B68     		ldr	r3, [r7]
 1513 005a 0C2B     		cmp	r3, #12
 1514 005c 09D1     		bne	.L71
 1515              		.loc 1 802 7 is_stmt 1 discriminator 10
 1516 005e 7B68     		ldr	r3, [r7, #4]
 1517 0060 93F84130 		ldrb	r3, [r3, #65]
 1518 0064 DBB2     		uxtb	r3, r3
 1519              		.loc 1 802 44 discriminator 10
 1520 0066 012B     		cmp	r3, #1
 1521 0068 14BF     		ite	ne
 1522 006a 0123     		movne	r3, #1
 1523 006c 0023     		moveq	r3, #0
 1524 006e DBB2     		uxtb	r3, r3
 1525 0070 15E0     		b	.L66
 1526              	.L71:
 1527              		.loc 1 802 44 is_stmt 0 discriminator 11
 1528 0072 3B68     		ldr	r3, [r7]
 1529 0074 102B     		cmp	r3, #16
 1530 0076 09D1     		bne	.L73
 1531              		.loc 1 802 7 is_stmt 1 discriminator 13
 1532 0078 7B68     		ldr	r3, [r7, #4]
 1533 007a 93F84230 		ldrb	r3, [r3, #66]
 1534 007e DBB2     		uxtb	r3, r3
 1535              		.loc 1 802 44 discriminator 13
 1536 0080 012B     		cmp	r3, #1
 1537 0082 14BF     		ite	ne
 1538 0084 0123     		movne	r3, #1
 1539 0086 0023     		moveq	r3, #0
 1540 0088 DBB2     		uxtb	r3, r3
 1541 008a 08E0     		b	.L66
 1542              	.L73:
 1543              		.loc 1 802 7 discriminator 14
 1544 008c 7B68     		ldr	r3, [r7, #4]
 1545 008e 93F84330 		ldrb	r3, [r3, #67]
 1546 0092 DBB2     		uxtb	r3, r3
 1547              		.loc 1 802 44 discriminator 14
 1548 0094 012B     		cmp	r3, #1
 1549 0096 14BF     		ite	ne
 1550 0098 0123     		movne	r3, #1
 1551 009a 0023     		moveq	r3, #0
 1552 009c DBB2     		uxtb	r3, r3
 1553              	.L66:
 1554              		.loc 1 802 6 discriminator 20
 1555 009e 002B     		cmp	r3, #0
 1556 00a0 01D0     		beq	.L75
 803:Drivers/STM32L4xx_HAL_Driver/Src/stm32l4xx_hal_tim.c ****   {
ARM GAS  C:\Users\ep_ygh\AppData\Local\Temp\ccFTC33n.s 			page 42


 804:Drivers/STM32L4xx_HAL_Driver/Src/stm32l4xx_hal_tim.c ****     return HAL_ERROR;
 1557              		.loc 1 804 12
 1558 00a2 0123     		movs	r3, #1
 1559 00a4 9CE0     		b	.L76
 1560              	.L75:
 805:Drivers/STM32L4xx_HAL_Driver/Src/stm32l4xx_hal_tim.c ****   }
 806:Drivers/STM32L4xx_HAL_Driver/Src/stm32l4xx_hal_tim.c **** 
 807:Drivers/STM32L4xx_HAL_Driver/Src/stm32l4xx_hal_tim.c ****   /* Set the TIM channel state */
 808:Drivers/STM32L4xx_HAL_Driver/Src/stm32l4xx_hal_tim.c ****   TIM_CHANNEL_STATE_SET(htim, Channel, HAL_TIM_CHANNEL_STATE_BUSY);
 1561              		.loc 1 808 3
 1562 00a6 3B68     		ldr	r3, [r7]
 1563 00a8 002B     		cmp	r3, #0
 1564 00aa 04D1     		bne	.L77
 1565              		.loc 1 808 3 is_stmt 0 discriminator 1
 1566 00ac 7B68     		ldr	r3, [r7, #4]
 1567 00ae 0222     		movs	r2, #2
 1568 00b0 83F83E20 		strb	r2, [r3, #62]
 1569 00b4 23E0     		b	.L78
 1570              	.L77:
 1571              		.loc 1 808 3 discriminator 2
 1572 00b6 3B68     		ldr	r3, [r7]
 1573 00b8 042B     		cmp	r3, #4
 1574 00ba 04D1     		bne	.L79
 1575              		.loc 1 808 3 discriminator 3
 1576 00bc 7B68     		ldr	r3, [r7, #4]
 1577 00be 0222     		movs	r2, #2
 1578 00c0 83F83F20 		strb	r2, [r3, #63]
 1579 00c4 1BE0     		b	.L78
 1580              	.L79:
 1581              		.loc 1 808 3 discriminator 4
 1582 00c6 3B68     		ldr	r3, [r7]
 1583 00c8 082B     		cmp	r3, #8
 1584 00ca 04D1     		bne	.L81
 1585              		.loc 1 808 3 discriminator 6
 1586 00cc 7B68     		ldr	r3, [r7, #4]
 1587 00ce 0222     		movs	r2, #2
 1588 00d0 83F84020 		strb	r2, [r3, #64]
 1589 00d4 13E0     		b	.L78
 1590              	.L81:
 1591              		.loc 1 808 3 discriminator 7
 1592 00d6 3B68     		ldr	r3, [r7]
 1593 00d8 0C2B     		cmp	r3, #12
 1594 00da 04D1     		bne	.L83
 1595              		.loc 1 808 3 discriminator 9
 1596 00dc 7B68     		ldr	r3, [r7, #4]
 1597 00de 0222     		movs	r2, #2
 1598 00e0 83F84120 		strb	r2, [r3, #65]
 1599 00e4 0BE0     		b	.L78
 1600              	.L83:
 1601              		.loc 1 808 3 discriminator 10
 1602 00e6 3B68     		ldr	r3, [r7]
 1603 00e8 102B     		cmp	r3, #16
 1604 00ea 04D1     		bne	.L85
 1605              		.loc 1 808 3 discriminator 12
 1606 00ec 7B68     		ldr	r3, [r7, #4]
 1607 00ee 0222     		movs	r2, #2
 1608 00f0 83F84220 		strb	r2, [r3, #66]
ARM GAS  C:\Users\ep_ygh\AppData\Local\Temp\ccFTC33n.s 			page 43


 1609 00f4 03E0     		b	.L78
 1610              	.L85:
 1611              		.loc 1 808 3 discriminator 13
 1612 00f6 7B68     		ldr	r3, [r7, #4]
 1613 00f8 0222     		movs	r2, #2
 1614 00fa 83F84320 		strb	r2, [r3, #67]
 1615              	.L78:
 809:Drivers/STM32L4xx_HAL_Driver/Src/stm32l4xx_hal_tim.c **** 
 810:Drivers/STM32L4xx_HAL_Driver/Src/stm32l4xx_hal_tim.c ****   /* Enable the Output compare channel */
 811:Drivers/STM32L4xx_HAL_Driver/Src/stm32l4xx_hal_tim.c ****   TIM_CCxChannelCmd(htim->Instance, Channel, TIM_CCx_ENABLE);
 1616              		.loc 1 811 3 is_stmt 1
 1617 00fe 7B68     		ldr	r3, [r7, #4]
 1618 0100 1B68     		ldr	r3, [r3]
 1619 0102 0122     		movs	r2, #1
 1620 0104 3968     		ldr	r1, [r7]
 1621 0106 1846     		mov	r0, r3
 1622 0108 FFF7FEFF 		bl	TIM_CCxChannelCmd
 812:Drivers/STM32L4xx_HAL_Driver/Src/stm32l4xx_hal_tim.c **** 
 813:Drivers/STM32L4xx_HAL_Driver/Src/stm32l4xx_hal_tim.c ****   if (IS_TIM_BREAK_INSTANCE(htim->Instance) != RESET)
 1623              		.loc 1 813 7
 1624 010c 7B68     		ldr	r3, [r7, #4]
 1625 010e 1B68     		ldr	r3, [r3]
 1626 0110 354A     		ldr	r2, .L96
 1627 0112 9342     		cmp	r3, r2
 1628 0114 13D0     		beq	.L87
 1629              		.loc 1 813 7 is_stmt 0 discriminator 2
 1630 0116 7B68     		ldr	r3, [r7, #4]
 1631 0118 1B68     		ldr	r3, [r3]
 1632 011a 344A     		ldr	r2, .L96+4
 1633 011c 9342     		cmp	r3, r2
 1634 011e 0ED0     		beq	.L87
 1635              		.loc 1 813 7 discriminator 4
 1636 0120 7B68     		ldr	r3, [r7, #4]
 1637 0122 1B68     		ldr	r3, [r3]
 1638 0124 324A     		ldr	r2, .L96+8
 1639 0126 9342     		cmp	r3, r2
 1640 0128 09D0     		beq	.L87
 1641              		.loc 1 813 7 discriminator 6
 1642 012a 7B68     		ldr	r3, [r7, #4]
 1643 012c 1B68     		ldr	r3, [r3]
 1644 012e 314A     		ldr	r2, .L96+12
 1645 0130 9342     		cmp	r3, r2
 1646 0132 04D0     		beq	.L87
 1647              		.loc 1 813 7 discriminator 8
 1648 0134 7B68     		ldr	r3, [r7, #4]
 1649 0136 1B68     		ldr	r3, [r3]
 1650 0138 2F4A     		ldr	r2, .L96+16
 1651 013a 9342     		cmp	r3, r2
 1652 013c 01D1     		bne	.L88
 1653              	.L87:
 1654              		.loc 1 813 7 discriminator 9
 1655 013e 0123     		movs	r3, #1
 1656 0140 00E0     		b	.L89
 1657              	.L88:
 1658              		.loc 1 813 7 discriminator 10
 1659 0142 0023     		movs	r3, #0
 1660              	.L89:
ARM GAS  C:\Users\ep_ygh\AppData\Local\Temp\ccFTC33n.s 			page 44


 1661              		.loc 1 813 6 is_stmt 1 discriminator 12
 1662 0144 002B     		cmp	r3, #0
 1663 0146 07D0     		beq	.L90
 814:Drivers/STM32L4xx_HAL_Driver/Src/stm32l4xx_hal_tim.c ****   {
 815:Drivers/STM32L4xx_HAL_Driver/Src/stm32l4xx_hal_tim.c ****     /* Enable the main output */
 816:Drivers/STM32L4xx_HAL_Driver/Src/stm32l4xx_hal_tim.c ****     __HAL_TIM_MOE_ENABLE(htim);
 1664              		.loc 1 816 5
 1665 0148 7B68     		ldr	r3, [r7, #4]
 1666 014a 1B68     		ldr	r3, [r3]
 1667 014c 5A6C     		ldr	r2, [r3, #68]
 1668 014e 7B68     		ldr	r3, [r7, #4]
 1669 0150 1B68     		ldr	r3, [r3]
 1670 0152 42F40042 		orr	r2, r2, #32768
 1671 0156 5A64     		str	r2, [r3, #68]
 1672              	.L90:
 817:Drivers/STM32L4xx_HAL_Driver/Src/stm32l4xx_hal_tim.c ****   }
 818:Drivers/STM32L4xx_HAL_Driver/Src/stm32l4xx_hal_tim.c **** 
 819:Drivers/STM32L4xx_HAL_Driver/Src/stm32l4xx_hal_tim.c ****   /* Enable the Peripheral, except in trigger mode where enable is automatically done with trigger 
 820:Drivers/STM32L4xx_HAL_Driver/Src/stm32l4xx_hal_tim.c ****   if (IS_TIM_SLAVE_INSTANCE(htim->Instance))
 1673              		.loc 1 820 7
 1674 0158 7B68     		ldr	r3, [r7, #4]
 1675 015a 1B68     		ldr	r3, [r3]
 1676              		.loc 1 820 6
 1677 015c 224A     		ldr	r2, .L96
 1678 015e 9342     		cmp	r3, r2
 1679 0160 1DD0     		beq	.L91
 1680              		.loc 1 820 7 discriminator 1
 1681 0162 7B68     		ldr	r3, [r7, #4]
 1682 0164 1B68     		ldr	r3, [r3]
 1683 0166 B3F1804F 		cmp	r3, #1073741824
 1684 016a 18D0     		beq	.L91
 1685              		.loc 1 820 7 is_stmt 0 discriminator 2
 1686 016c 7B68     		ldr	r3, [r7, #4]
 1687 016e 1B68     		ldr	r3, [r3]
 1688 0170 224A     		ldr	r2, .L96+20
 1689 0172 9342     		cmp	r3, r2
 1690 0174 13D0     		beq	.L91
 1691              		.loc 1 820 7 discriminator 3
 1692 0176 7B68     		ldr	r3, [r7, #4]
 1693 0178 1B68     		ldr	r3, [r3]
 1694 017a 214A     		ldr	r2, .L96+24
 1695 017c 9342     		cmp	r3, r2
 1696 017e 0ED0     		beq	.L91
 1697              		.loc 1 820 7 discriminator 4
 1698 0180 7B68     		ldr	r3, [r7, #4]
 1699 0182 1B68     		ldr	r3, [r3]
 1700 0184 1F4A     		ldr	r2, .L96+28
 1701 0186 9342     		cmp	r3, r2
 1702 0188 09D0     		beq	.L91
 1703              		.loc 1 820 7 discriminator 5
 1704 018a 7B68     		ldr	r3, [r7, #4]
 1705 018c 1B68     		ldr	r3, [r3]
 1706 018e 174A     		ldr	r2, .L96+4
 1707 0190 9342     		cmp	r3, r2
 1708 0192 04D0     		beq	.L91
 1709              		.loc 1 820 7 discriminator 6
 1710 0194 7B68     		ldr	r3, [r7, #4]
ARM GAS  C:\Users\ep_ygh\AppData\Local\Temp\ccFTC33n.s 			page 45


 1711 0196 1B68     		ldr	r3, [r3]
 1712 0198 154A     		ldr	r2, .L96+8
 1713 019a 9342     		cmp	r3, r2
 1714 019c 15D1     		bne	.L92
 1715              	.L91:
 821:Drivers/STM32L4xx_HAL_Driver/Src/stm32l4xx_hal_tim.c ****   {
 822:Drivers/STM32L4xx_HAL_Driver/Src/stm32l4xx_hal_tim.c ****     tmpsmcr = htim->Instance->SMCR & TIM_SMCR_SMS;
 1716              		.loc 1 822 19 is_stmt 1
 1717 019e 7B68     		ldr	r3, [r7, #4]
 1718 01a0 1B68     		ldr	r3, [r3]
 1719              		.loc 1 822 29
 1720 01a2 9A68     		ldr	r2, [r3, #8]
 1721              		.loc 1 822 13
 1722 01a4 184B     		ldr	r3, .L96+32
 1723 01a6 1340     		ands	r3, r3, r2
 1724 01a8 FB60     		str	r3, [r7, #12]
 823:Drivers/STM32L4xx_HAL_Driver/Src/stm32l4xx_hal_tim.c ****     if (!IS_TIM_SLAVEMODE_TRIGGER_ENABLED(tmpsmcr))
 1725              		.loc 1 823 8
 1726 01aa FB68     		ldr	r3, [r7, #12]
 1727 01ac 062B     		cmp	r3, #6
 1728 01ae 15D0     		beq	.L95
 1729              		.loc 1 823 9 discriminator 1
 1730 01b0 FB68     		ldr	r3, [r7, #12]
 1731 01b2 B3F5803F 		cmp	r3, #65536
 1732 01b6 11D0     		beq	.L95
 824:Drivers/STM32L4xx_HAL_Driver/Src/stm32l4xx_hal_tim.c ****     {
 825:Drivers/STM32L4xx_HAL_Driver/Src/stm32l4xx_hal_tim.c ****       __HAL_TIM_ENABLE(htim);
 1733              		.loc 1 825 7
 1734 01b8 7B68     		ldr	r3, [r7, #4]
 1735 01ba 1B68     		ldr	r3, [r3]
 1736 01bc 1A68     		ldr	r2, [r3]
 1737 01be 7B68     		ldr	r3, [r7, #4]
 1738 01c0 1B68     		ldr	r3, [r3]
 1739 01c2 42F00102 		orr	r2, r2, #1
 1740 01c6 1A60     		str	r2, [r3]
 823:Drivers/STM32L4xx_HAL_Driver/Src/stm32l4xx_hal_tim.c ****     if (!IS_TIM_SLAVEMODE_TRIGGER_ENABLED(tmpsmcr))
 1741              		.loc 1 823 8
 1742 01c8 08E0     		b	.L95
 1743              	.L92:
 826:Drivers/STM32L4xx_HAL_Driver/Src/stm32l4xx_hal_tim.c ****     }
 827:Drivers/STM32L4xx_HAL_Driver/Src/stm32l4xx_hal_tim.c ****   }
 828:Drivers/STM32L4xx_HAL_Driver/Src/stm32l4xx_hal_tim.c ****   else
 829:Drivers/STM32L4xx_HAL_Driver/Src/stm32l4xx_hal_tim.c ****   {
 830:Drivers/STM32L4xx_HAL_Driver/Src/stm32l4xx_hal_tim.c ****     __HAL_TIM_ENABLE(htim);
 1744              		.loc 1 830 5
 1745 01ca 7B68     		ldr	r3, [r7, #4]
 1746 01cc 1B68     		ldr	r3, [r3]
 1747 01ce 1A68     		ldr	r2, [r3]
 1748 01d0 7B68     		ldr	r3, [r7, #4]
 1749 01d2 1B68     		ldr	r3, [r3]
 1750 01d4 42F00102 		orr	r2, r2, #1
 1751 01d8 1A60     		str	r2, [r3]
 1752 01da 00E0     		b	.L94
 1753              	.L95:
 823:Drivers/STM32L4xx_HAL_Driver/Src/stm32l4xx_hal_tim.c ****     {
 1754              		.loc 1 823 8
 1755 01dc 00BF     		nop
ARM GAS  C:\Users\ep_ygh\AppData\Local\Temp\ccFTC33n.s 			page 46


 1756              	.L94:
 831:Drivers/STM32L4xx_HAL_Driver/Src/stm32l4xx_hal_tim.c ****   }
 832:Drivers/STM32L4xx_HAL_Driver/Src/stm32l4xx_hal_tim.c **** 
 833:Drivers/STM32L4xx_HAL_Driver/Src/stm32l4xx_hal_tim.c ****   /* Return function status */
 834:Drivers/STM32L4xx_HAL_Driver/Src/stm32l4xx_hal_tim.c ****   return HAL_OK;
 1757              		.loc 1 834 10
 1758 01de 0023     		movs	r3, #0
 1759              	.L76:
 835:Drivers/STM32L4xx_HAL_Driver/Src/stm32l4xx_hal_tim.c **** }
 1760              		.loc 1 835 1
 1761 01e0 1846     		mov	r0, r3
 1762 01e2 1037     		adds	r7, r7, #16
 1763              	.LCFI81:
 1764              		.cfi_def_cfa_offset 8
 1765 01e4 BD46     		mov	sp, r7
 1766              	.LCFI82:
 1767              		.cfi_def_cfa_register 13
 1768              		@ sp needed
 1769 01e6 80BD     		pop	{r7, pc}
 1770              	.L97:
 1771              		.align	2
 1772              	.L96:
 1773 01e8 002C0140 		.word	1073818624
 1774 01ec 00340140 		.word	1073820672
 1775 01f0 00400140 		.word	1073823744
 1776 01f4 00440140 		.word	1073824768
 1777 01f8 00480140 		.word	1073825792
 1778 01fc 00040040 		.word	1073742848
 1779 0200 00080040 		.word	1073743872
 1780 0204 000C0040 		.word	1073744896
 1781 0208 07000100 		.word	65543
 1782              		.cfi_endproc
 1783              	.LFE331:
 1785              		.section	.text.HAL_TIM_OC_Stop,"ax",%progbits
 1786              		.align	1
 1787              		.global	HAL_TIM_OC_Stop
 1788              		.syntax unified
 1789              		.thumb
 1790              		.thumb_func
 1792              	HAL_TIM_OC_Stop:
 1793              	.LFB332:
 836:Drivers/STM32L4xx_HAL_Driver/Src/stm32l4xx_hal_tim.c **** 
 837:Drivers/STM32L4xx_HAL_Driver/Src/stm32l4xx_hal_tim.c **** /**
 838:Drivers/STM32L4xx_HAL_Driver/Src/stm32l4xx_hal_tim.c ****   * @brief  Stops the TIM Output Compare signal generation.
 839:Drivers/STM32L4xx_HAL_Driver/Src/stm32l4xx_hal_tim.c ****   * @param  htim TIM Output Compare handle
 840:Drivers/STM32L4xx_HAL_Driver/Src/stm32l4xx_hal_tim.c ****   * @param  Channel TIM Channel to be disabled
 841:Drivers/STM32L4xx_HAL_Driver/Src/stm32l4xx_hal_tim.c ****   *          This parameter can be one of the following values:
 842:Drivers/STM32L4xx_HAL_Driver/Src/stm32l4xx_hal_tim.c ****   *            @arg TIM_CHANNEL_1: TIM Channel 1 selected
 843:Drivers/STM32L4xx_HAL_Driver/Src/stm32l4xx_hal_tim.c ****   *            @arg TIM_CHANNEL_2: TIM Channel 2 selected
 844:Drivers/STM32L4xx_HAL_Driver/Src/stm32l4xx_hal_tim.c ****   *            @arg TIM_CHANNEL_3: TIM Channel 3 selected
 845:Drivers/STM32L4xx_HAL_Driver/Src/stm32l4xx_hal_tim.c ****   *            @arg TIM_CHANNEL_4: TIM Channel 4 selected
 846:Drivers/STM32L4xx_HAL_Driver/Src/stm32l4xx_hal_tim.c ****   *            @arg TIM_CHANNEL_5: TIM Channel 5 selected
 847:Drivers/STM32L4xx_HAL_Driver/Src/stm32l4xx_hal_tim.c ****   *            @arg TIM_CHANNEL_6: TIM Channel 6 selected
 848:Drivers/STM32L4xx_HAL_Driver/Src/stm32l4xx_hal_tim.c ****   * @retval HAL status
 849:Drivers/STM32L4xx_HAL_Driver/Src/stm32l4xx_hal_tim.c ****   */
 850:Drivers/STM32L4xx_HAL_Driver/Src/stm32l4xx_hal_tim.c **** HAL_StatusTypeDef HAL_TIM_OC_Stop(TIM_HandleTypeDef *htim, uint32_t Channel)
 851:Drivers/STM32L4xx_HAL_Driver/Src/stm32l4xx_hal_tim.c **** {
ARM GAS  C:\Users\ep_ygh\AppData\Local\Temp\ccFTC33n.s 			page 47


 1794              		.loc 1 851 1
 1795              		.cfi_startproc
 1796              		@ args = 0, pretend = 0, frame = 8
 1797              		@ frame_needed = 1, uses_anonymous_args = 0
 1798 0000 80B5     		push	{r7, lr}
 1799              	.LCFI83:
 1800              		.cfi_def_cfa_offset 8
 1801              		.cfi_offset 7, -8
 1802              		.cfi_offset 14, -4
 1803 0002 82B0     		sub	sp, sp, #8
 1804              	.LCFI84:
 1805              		.cfi_def_cfa_offset 16
 1806 0004 00AF     		add	r7, sp, #0
 1807              	.LCFI85:
 1808              		.cfi_def_cfa_register 7
 1809 0006 7860     		str	r0, [r7, #4]
 1810 0008 3960     		str	r1, [r7]
 852:Drivers/STM32L4xx_HAL_Driver/Src/stm32l4xx_hal_tim.c ****   /* Check the parameters */
 853:Drivers/STM32L4xx_HAL_Driver/Src/stm32l4xx_hal_tim.c ****   assert_param(IS_TIM_CCX_INSTANCE(htim->Instance, Channel));
 854:Drivers/STM32L4xx_HAL_Driver/Src/stm32l4xx_hal_tim.c **** 
 855:Drivers/STM32L4xx_HAL_Driver/Src/stm32l4xx_hal_tim.c ****   /* Disable the Output compare channel */
 856:Drivers/STM32L4xx_HAL_Driver/Src/stm32l4xx_hal_tim.c ****   TIM_CCxChannelCmd(htim->Instance, Channel, TIM_CCx_DISABLE);
 1811              		.loc 1 856 3
 1812 000a 7B68     		ldr	r3, [r7, #4]
 1813 000c 1B68     		ldr	r3, [r3]
 1814 000e 0022     		movs	r2, #0
 1815 0010 3968     		ldr	r1, [r7]
 1816 0012 1846     		mov	r0, r3
 1817 0014 FFF7FEFF 		bl	TIM_CCxChannelCmd
 857:Drivers/STM32L4xx_HAL_Driver/Src/stm32l4xx_hal_tim.c **** 
 858:Drivers/STM32L4xx_HAL_Driver/Src/stm32l4xx_hal_tim.c ****   if (IS_TIM_BREAK_INSTANCE(htim->Instance) != RESET)
 1818              		.loc 1 858 7
 1819 0018 7B68     		ldr	r3, [r7, #4]
 1820 001a 1B68     		ldr	r3, [r3]
 1821 001c 3E4A     		ldr	r2, .L115
 1822 001e 9342     		cmp	r3, r2
 1823 0020 13D0     		beq	.L99
 1824              		.loc 1 858 7 is_stmt 0 discriminator 2
 1825 0022 7B68     		ldr	r3, [r7, #4]
 1826 0024 1B68     		ldr	r3, [r3]
 1827 0026 3D4A     		ldr	r2, .L115+4
 1828 0028 9342     		cmp	r3, r2
 1829 002a 0ED0     		beq	.L99
 1830              		.loc 1 858 7 discriminator 4
 1831 002c 7B68     		ldr	r3, [r7, #4]
 1832 002e 1B68     		ldr	r3, [r3]
 1833 0030 3B4A     		ldr	r2, .L115+8
 1834 0032 9342     		cmp	r3, r2
 1835 0034 09D0     		beq	.L99
 1836              		.loc 1 858 7 discriminator 6
 1837 0036 7B68     		ldr	r3, [r7, #4]
 1838 0038 1B68     		ldr	r3, [r3]
 1839 003a 3A4A     		ldr	r2, .L115+12
 1840 003c 9342     		cmp	r3, r2
 1841 003e 04D0     		beq	.L99
 1842              		.loc 1 858 7 discriminator 8
 1843 0040 7B68     		ldr	r3, [r7, #4]
ARM GAS  C:\Users\ep_ygh\AppData\Local\Temp\ccFTC33n.s 			page 48


 1844 0042 1B68     		ldr	r3, [r3]
 1845 0044 384A     		ldr	r2, .L115+16
 1846 0046 9342     		cmp	r3, r2
 1847 0048 01D1     		bne	.L100
 1848              	.L99:
 1849              		.loc 1 858 7 discriminator 9
 1850 004a 0123     		movs	r3, #1
 1851 004c 00E0     		b	.L101
 1852              	.L100:
 1853              		.loc 1 858 7 discriminator 10
 1854 004e 0023     		movs	r3, #0
 1855              	.L101:
 1856              		.loc 1 858 6 is_stmt 1 discriminator 12
 1857 0050 002B     		cmp	r3, #0
 1858 0052 17D0     		beq	.L102
 859:Drivers/STM32L4xx_HAL_Driver/Src/stm32l4xx_hal_tim.c ****   {
 860:Drivers/STM32L4xx_HAL_Driver/Src/stm32l4xx_hal_tim.c ****     /* Disable the Main Output */
 861:Drivers/STM32L4xx_HAL_Driver/Src/stm32l4xx_hal_tim.c ****     __HAL_TIM_MOE_DISABLE(htim);
 1859              		.loc 1 861 5
 1860 0054 7B68     		ldr	r3, [r7, #4]
 1861 0056 1B68     		ldr	r3, [r3]
 1862 0058 1A6A     		ldr	r2, [r3, #32]
 1863 005a 41F21113 		movw	r3, #4369
 1864 005e 1340     		ands	r3, r3, r2
 1865 0060 002B     		cmp	r3, #0
 1866 0062 0FD1     		bne	.L102
 1867              		.loc 1 861 5 is_stmt 0 discriminator 1
 1868 0064 7B68     		ldr	r3, [r7, #4]
 1869 0066 1B68     		ldr	r3, [r3]
 1870 0068 1A6A     		ldr	r2, [r3, #32]
 1871 006a 40F24443 		movw	r3, #1092
 1872 006e 1340     		ands	r3, r3, r2
 1873 0070 002B     		cmp	r3, #0
 1874 0072 07D1     		bne	.L102
 1875              		.loc 1 861 5 discriminator 2
 1876 0074 7B68     		ldr	r3, [r7, #4]
 1877 0076 1B68     		ldr	r3, [r3]
 1878 0078 5A6C     		ldr	r2, [r3, #68]
 1879 007a 7B68     		ldr	r3, [r7, #4]
 1880 007c 1B68     		ldr	r3, [r3]
 1881 007e 22F40042 		bic	r2, r2, #32768
 1882 0082 5A64     		str	r2, [r3, #68]
 1883              	.L102:
 862:Drivers/STM32L4xx_HAL_Driver/Src/stm32l4xx_hal_tim.c ****   }
 863:Drivers/STM32L4xx_HAL_Driver/Src/stm32l4xx_hal_tim.c **** 
 864:Drivers/STM32L4xx_HAL_Driver/Src/stm32l4xx_hal_tim.c ****   /* Disable the Peripheral */
 865:Drivers/STM32L4xx_HAL_Driver/Src/stm32l4xx_hal_tim.c ****   __HAL_TIM_DISABLE(htim);
 1884              		.loc 1 865 3 is_stmt 1
 1885 0084 7B68     		ldr	r3, [r7, #4]
 1886 0086 1B68     		ldr	r3, [r3]
 1887 0088 1A6A     		ldr	r2, [r3, #32]
 1888 008a 41F21113 		movw	r3, #4369
 1889 008e 1340     		ands	r3, r3, r2
 1890 0090 002B     		cmp	r3, #0
 1891 0092 0FD1     		bne	.L103
 1892              		.loc 1 865 3 is_stmt 0 discriminator 1
 1893 0094 7B68     		ldr	r3, [r7, #4]
ARM GAS  C:\Users\ep_ygh\AppData\Local\Temp\ccFTC33n.s 			page 49


 1894 0096 1B68     		ldr	r3, [r3]
 1895 0098 1A6A     		ldr	r2, [r3, #32]
 1896 009a 40F24443 		movw	r3, #1092
 1897 009e 1340     		ands	r3, r3, r2
 1898 00a0 002B     		cmp	r3, #0
 1899 00a2 07D1     		bne	.L103
 1900              		.loc 1 865 3 discriminator 2
 1901 00a4 7B68     		ldr	r3, [r7, #4]
 1902 00a6 1B68     		ldr	r3, [r3]
 1903 00a8 1A68     		ldr	r2, [r3]
 1904 00aa 7B68     		ldr	r3, [r7, #4]
 1905 00ac 1B68     		ldr	r3, [r3]
 1906 00ae 22F00102 		bic	r2, r2, #1
 1907 00b2 1A60     		str	r2, [r3]
 1908              	.L103:
 866:Drivers/STM32L4xx_HAL_Driver/Src/stm32l4xx_hal_tim.c **** 
 867:Drivers/STM32L4xx_HAL_Driver/Src/stm32l4xx_hal_tim.c ****   /* Set the TIM channel state */
 868:Drivers/STM32L4xx_HAL_Driver/Src/stm32l4xx_hal_tim.c ****   TIM_CHANNEL_STATE_SET(htim, Channel, HAL_TIM_CHANNEL_STATE_READY);
 1909              		.loc 1 868 3 is_stmt 1
 1910 00b4 3B68     		ldr	r3, [r7]
 1911 00b6 002B     		cmp	r3, #0
 1912 00b8 04D1     		bne	.L104
 1913              		.loc 1 868 3 is_stmt 0 discriminator 1
 1914 00ba 7B68     		ldr	r3, [r7, #4]
 1915 00bc 0122     		movs	r2, #1
 1916 00be 83F83E20 		strb	r2, [r3, #62]
 1917 00c2 23E0     		b	.L105
 1918              	.L104:
 1919              		.loc 1 868 3 discriminator 2
 1920 00c4 3B68     		ldr	r3, [r7]
 1921 00c6 042B     		cmp	r3, #4
 1922 00c8 04D1     		bne	.L106
 1923              		.loc 1 868 3 discriminator 3
 1924 00ca 7B68     		ldr	r3, [r7, #4]
 1925 00cc 0122     		movs	r2, #1
 1926 00ce 83F83F20 		strb	r2, [r3, #63]
 1927 00d2 1BE0     		b	.L105
 1928              	.L106:
 1929              		.loc 1 868 3 discriminator 4
 1930 00d4 3B68     		ldr	r3, [r7]
 1931 00d6 082B     		cmp	r3, #8
 1932 00d8 04D1     		bne	.L108
 1933              		.loc 1 868 3 discriminator 6
 1934 00da 7B68     		ldr	r3, [r7, #4]
 1935 00dc 0122     		movs	r2, #1
 1936 00de 83F84020 		strb	r2, [r3, #64]
 1937 00e2 13E0     		b	.L105
 1938              	.L108:
 1939              		.loc 1 868 3 discriminator 7
 1940 00e4 3B68     		ldr	r3, [r7]
 1941 00e6 0C2B     		cmp	r3, #12
 1942 00e8 04D1     		bne	.L110
 1943              		.loc 1 868 3 discriminator 9
 1944 00ea 7B68     		ldr	r3, [r7, #4]
 1945 00ec 0122     		movs	r2, #1
 1946 00ee 83F84120 		strb	r2, [r3, #65]
 1947 00f2 0BE0     		b	.L105
ARM GAS  C:\Users\ep_ygh\AppData\Local\Temp\ccFTC33n.s 			page 50


 1948              	.L110:
 1949              		.loc 1 868 3 discriminator 10
 1950 00f4 3B68     		ldr	r3, [r7]
 1951 00f6 102B     		cmp	r3, #16
 1952 00f8 04D1     		bne	.L112
 1953              		.loc 1 868 3 discriminator 12
 1954 00fa 7B68     		ldr	r3, [r7, #4]
 1955 00fc 0122     		movs	r2, #1
 1956 00fe 83F84220 		strb	r2, [r3, #66]
 1957 0102 03E0     		b	.L105
 1958              	.L112:
 1959              		.loc 1 868 3 discriminator 13
 1960 0104 7B68     		ldr	r3, [r7, #4]
 1961 0106 0122     		movs	r2, #1
 1962 0108 83F84320 		strb	r2, [r3, #67]
 1963              	.L105:
 869:Drivers/STM32L4xx_HAL_Driver/Src/stm32l4xx_hal_tim.c **** 
 870:Drivers/STM32L4xx_HAL_Driver/Src/stm32l4xx_hal_tim.c ****   /* Return function status */
 871:Drivers/STM32L4xx_HAL_Driver/Src/stm32l4xx_hal_tim.c ****   return HAL_OK;
 1964              		.loc 1 871 10 is_stmt 1
 1965 010c 0023     		movs	r3, #0
 872:Drivers/STM32L4xx_HAL_Driver/Src/stm32l4xx_hal_tim.c **** }
 1966              		.loc 1 872 1
 1967 010e 1846     		mov	r0, r3
 1968 0110 0837     		adds	r7, r7, #8
 1969              	.LCFI86:
 1970              		.cfi_def_cfa_offset 8
 1971 0112 BD46     		mov	sp, r7
 1972              	.LCFI87:
 1973              		.cfi_def_cfa_register 13
 1974              		@ sp needed
 1975 0114 80BD     		pop	{r7, pc}
 1976              	.L116:
 1977 0116 00BF     		.align	2
 1978              	.L115:
 1979 0118 002C0140 		.word	1073818624
 1980 011c 00340140 		.word	1073820672
 1981 0120 00400140 		.word	1073823744
 1982 0124 00440140 		.word	1073824768
 1983 0128 00480140 		.word	1073825792
 1984              		.cfi_endproc
 1985              	.LFE332:
 1987              		.section	.text.HAL_TIM_OC_Start_IT,"ax",%progbits
 1988              		.align	1
 1989              		.global	HAL_TIM_OC_Start_IT
 1990              		.syntax unified
 1991              		.thumb
 1992              		.thumb_func
 1994              	HAL_TIM_OC_Start_IT:
 1995              	.LFB333:
 873:Drivers/STM32L4xx_HAL_Driver/Src/stm32l4xx_hal_tim.c **** 
 874:Drivers/STM32L4xx_HAL_Driver/Src/stm32l4xx_hal_tim.c **** /**
 875:Drivers/STM32L4xx_HAL_Driver/Src/stm32l4xx_hal_tim.c ****   * @brief  Starts the TIM Output Compare signal generation in interrupt mode.
 876:Drivers/STM32L4xx_HAL_Driver/Src/stm32l4xx_hal_tim.c ****   * @param  htim TIM Output Compare handle
 877:Drivers/STM32L4xx_HAL_Driver/Src/stm32l4xx_hal_tim.c ****   * @param  Channel TIM Channel to be enabled
 878:Drivers/STM32L4xx_HAL_Driver/Src/stm32l4xx_hal_tim.c ****   *          This parameter can be one of the following values:
 879:Drivers/STM32L4xx_HAL_Driver/Src/stm32l4xx_hal_tim.c ****   *            @arg TIM_CHANNEL_1: TIM Channel 1 selected
ARM GAS  C:\Users\ep_ygh\AppData\Local\Temp\ccFTC33n.s 			page 51


 880:Drivers/STM32L4xx_HAL_Driver/Src/stm32l4xx_hal_tim.c ****   *            @arg TIM_CHANNEL_2: TIM Channel 2 selected
 881:Drivers/STM32L4xx_HAL_Driver/Src/stm32l4xx_hal_tim.c ****   *            @arg TIM_CHANNEL_3: TIM Channel 3 selected
 882:Drivers/STM32L4xx_HAL_Driver/Src/stm32l4xx_hal_tim.c ****   *            @arg TIM_CHANNEL_4: TIM Channel 4 selected
 883:Drivers/STM32L4xx_HAL_Driver/Src/stm32l4xx_hal_tim.c ****   * @retval HAL status
 884:Drivers/STM32L4xx_HAL_Driver/Src/stm32l4xx_hal_tim.c ****   */
 885:Drivers/STM32L4xx_HAL_Driver/Src/stm32l4xx_hal_tim.c **** HAL_StatusTypeDef HAL_TIM_OC_Start_IT(TIM_HandleTypeDef *htim, uint32_t Channel)
 886:Drivers/STM32L4xx_HAL_Driver/Src/stm32l4xx_hal_tim.c **** {
 1996              		.loc 1 886 1
 1997              		.cfi_startproc
 1998              		@ args = 0, pretend = 0, frame = 16
 1999              		@ frame_needed = 1, uses_anonymous_args = 0
 2000 0000 80B5     		push	{r7, lr}
 2001              	.LCFI88:
 2002              		.cfi_def_cfa_offset 8
 2003              		.cfi_offset 7, -8
 2004              		.cfi_offset 14, -4
 2005 0002 84B0     		sub	sp, sp, #16
 2006              	.LCFI89:
 2007              		.cfi_def_cfa_offset 24
 2008 0004 00AF     		add	r7, sp, #0
 2009              	.LCFI90:
 2010              		.cfi_def_cfa_register 7
 2011 0006 7860     		str	r0, [r7, #4]
 2012 0008 3960     		str	r1, [r7]
 887:Drivers/STM32L4xx_HAL_Driver/Src/stm32l4xx_hal_tim.c ****   HAL_StatusTypeDef status = HAL_OK;
 2013              		.loc 1 887 21
 2014 000a 0023     		movs	r3, #0
 2015 000c FB73     		strb	r3, [r7, #15]
 888:Drivers/STM32L4xx_HAL_Driver/Src/stm32l4xx_hal_tim.c ****   uint32_t tmpsmcr;
 889:Drivers/STM32L4xx_HAL_Driver/Src/stm32l4xx_hal_tim.c **** 
 890:Drivers/STM32L4xx_HAL_Driver/Src/stm32l4xx_hal_tim.c ****   /* Check the parameters */
 891:Drivers/STM32L4xx_HAL_Driver/Src/stm32l4xx_hal_tim.c ****   assert_param(IS_TIM_CCX_CHANNEL(htim->Instance, Channel));
 892:Drivers/STM32L4xx_HAL_Driver/Src/stm32l4xx_hal_tim.c **** 
 893:Drivers/STM32L4xx_HAL_Driver/Src/stm32l4xx_hal_tim.c ****   /* Check the TIM channel state */
 894:Drivers/STM32L4xx_HAL_Driver/Src/stm32l4xx_hal_tim.c ****   if (TIM_CHANNEL_STATE_GET(htim, Channel) != HAL_TIM_CHANNEL_STATE_READY)
 2016              		.loc 1 894 44
 2017 000e 3B68     		ldr	r3, [r7]
 2018 0010 002B     		cmp	r3, #0
 2019 0012 09D1     		bne	.L118
 2020              		.loc 1 894 7 discriminator 1
 2021 0014 7B68     		ldr	r3, [r7, #4]
 2022 0016 93F83E30 		ldrb	r3, [r3, #62]
 2023 001a DBB2     		uxtb	r3, r3
 2024              		.loc 1 894 44 discriminator 1
 2025 001c 012B     		cmp	r3, #1
 2026 001e 14BF     		ite	ne
 2027 0020 0123     		movne	r3, #1
 2028 0022 0023     		moveq	r3, #0
 2029 0024 DBB2     		uxtb	r3, r3
 2030 0026 3CE0     		b	.L119
 2031              	.L118:
 2032              		.loc 1 894 44 is_stmt 0 discriminator 2
 2033 0028 3B68     		ldr	r3, [r7]
 2034 002a 042B     		cmp	r3, #4
 2035 002c 09D1     		bne	.L120
 2036              		.loc 1 894 7 is_stmt 1 discriminator 4
 2037 002e 7B68     		ldr	r3, [r7, #4]
ARM GAS  C:\Users\ep_ygh\AppData\Local\Temp\ccFTC33n.s 			page 52


 2038 0030 93F83F30 		ldrb	r3, [r3, #63]
 2039 0034 DBB2     		uxtb	r3, r3
 2040              		.loc 1 894 44 discriminator 4
 2041 0036 012B     		cmp	r3, #1
 2042 0038 14BF     		ite	ne
 2043 003a 0123     		movne	r3, #1
 2044 003c 0023     		moveq	r3, #0
 2045 003e DBB2     		uxtb	r3, r3
 2046 0040 2FE0     		b	.L119
 2047              	.L120:
 2048              		.loc 1 894 44 is_stmt 0 discriminator 5
 2049 0042 3B68     		ldr	r3, [r7]
 2050 0044 082B     		cmp	r3, #8
 2051 0046 09D1     		bne	.L122
 2052              		.loc 1 894 7 is_stmt 1 discriminator 7
 2053 0048 7B68     		ldr	r3, [r7, #4]
 2054 004a 93F84030 		ldrb	r3, [r3, #64]
 2055 004e DBB2     		uxtb	r3, r3
 2056              		.loc 1 894 44 discriminator 7
 2057 0050 012B     		cmp	r3, #1
 2058 0052 14BF     		ite	ne
 2059 0054 0123     		movne	r3, #1
 2060 0056 0023     		moveq	r3, #0
 2061 0058 DBB2     		uxtb	r3, r3
 2062 005a 22E0     		b	.L119
 2063              	.L122:
 2064              		.loc 1 894 44 is_stmt 0 discriminator 8
 2065 005c 3B68     		ldr	r3, [r7]
 2066 005e 0C2B     		cmp	r3, #12
 2067 0060 09D1     		bne	.L124
 2068              		.loc 1 894 7 is_stmt 1 discriminator 10
 2069 0062 7B68     		ldr	r3, [r7, #4]
 2070 0064 93F84130 		ldrb	r3, [r3, #65]
 2071 0068 DBB2     		uxtb	r3, r3
 2072              		.loc 1 894 44 discriminator 10
 2073 006a 012B     		cmp	r3, #1
 2074 006c 14BF     		ite	ne
 2075 006e 0123     		movne	r3, #1
 2076 0070 0023     		moveq	r3, #0
 2077 0072 DBB2     		uxtb	r3, r3
 2078 0074 15E0     		b	.L119
 2079              	.L124:
 2080              		.loc 1 894 44 is_stmt 0 discriminator 11
 2081 0076 3B68     		ldr	r3, [r7]
 2082 0078 102B     		cmp	r3, #16
 2083 007a 09D1     		bne	.L126
 2084              		.loc 1 894 7 is_stmt 1 discriminator 13
 2085 007c 7B68     		ldr	r3, [r7, #4]
 2086 007e 93F84230 		ldrb	r3, [r3, #66]
 2087 0082 DBB2     		uxtb	r3, r3
 2088              		.loc 1 894 44 discriminator 13
 2089 0084 012B     		cmp	r3, #1
 2090 0086 14BF     		ite	ne
 2091 0088 0123     		movne	r3, #1
 2092 008a 0023     		moveq	r3, #0
 2093 008c DBB2     		uxtb	r3, r3
 2094 008e 08E0     		b	.L119
ARM GAS  C:\Users\ep_ygh\AppData\Local\Temp\ccFTC33n.s 			page 53


 2095              	.L126:
 2096              		.loc 1 894 7 discriminator 14
 2097 0090 7B68     		ldr	r3, [r7, #4]
 2098 0092 93F84330 		ldrb	r3, [r3, #67]
 2099 0096 DBB2     		uxtb	r3, r3
 2100              		.loc 1 894 44 discriminator 14
 2101 0098 012B     		cmp	r3, #1
 2102 009a 14BF     		ite	ne
 2103 009c 0123     		movne	r3, #1
 2104 009e 0023     		moveq	r3, #0
 2105 00a0 DBB2     		uxtb	r3, r3
 2106              	.L119:
 2107              		.loc 1 894 6 discriminator 20
 2108 00a2 002B     		cmp	r3, #0
 2109 00a4 01D0     		beq	.L128
 895:Drivers/STM32L4xx_HAL_Driver/Src/stm32l4xx_hal_tim.c ****   {
 896:Drivers/STM32L4xx_HAL_Driver/Src/stm32l4xx_hal_tim.c ****     return HAL_ERROR;
 2110              		.loc 1 896 12
 2111 00a6 0123     		movs	r3, #1
 2112 00a8 E7E0     		b	.L129
 2113              	.L128:
 897:Drivers/STM32L4xx_HAL_Driver/Src/stm32l4xx_hal_tim.c ****   }
 898:Drivers/STM32L4xx_HAL_Driver/Src/stm32l4xx_hal_tim.c **** 
 899:Drivers/STM32L4xx_HAL_Driver/Src/stm32l4xx_hal_tim.c ****   /* Set the TIM channel state */
 900:Drivers/STM32L4xx_HAL_Driver/Src/stm32l4xx_hal_tim.c ****   TIM_CHANNEL_STATE_SET(htim, Channel, HAL_TIM_CHANNEL_STATE_BUSY);
 2114              		.loc 1 900 3
 2115 00aa 3B68     		ldr	r3, [r7]
 2116 00ac 002B     		cmp	r3, #0
 2117 00ae 04D1     		bne	.L130
 2118              		.loc 1 900 3 is_stmt 0 discriminator 1
 2119 00b0 7B68     		ldr	r3, [r7, #4]
 2120 00b2 0222     		movs	r2, #2
 2121 00b4 83F83E20 		strb	r2, [r3, #62]
 2122 00b8 23E0     		b	.L131
 2123              	.L130:
 2124              		.loc 1 900 3 discriminator 2
 2125 00ba 3B68     		ldr	r3, [r7]
 2126 00bc 042B     		cmp	r3, #4
 2127 00be 04D1     		bne	.L132
 2128              		.loc 1 900 3 discriminator 3
 2129 00c0 7B68     		ldr	r3, [r7, #4]
 2130 00c2 0222     		movs	r2, #2
 2131 00c4 83F83F20 		strb	r2, [r3, #63]
 2132 00c8 1BE0     		b	.L131
 2133              	.L132:
 2134              		.loc 1 900 3 discriminator 4
 2135 00ca 3B68     		ldr	r3, [r7]
 2136 00cc 082B     		cmp	r3, #8
 2137 00ce 04D1     		bne	.L134
 2138              		.loc 1 900 3 discriminator 6
 2139 00d0 7B68     		ldr	r3, [r7, #4]
 2140 00d2 0222     		movs	r2, #2
 2141 00d4 83F84020 		strb	r2, [r3, #64]
 2142 00d8 13E0     		b	.L131
 2143              	.L134:
 2144              		.loc 1 900 3 discriminator 7
 2145 00da 3B68     		ldr	r3, [r7]
ARM GAS  C:\Users\ep_ygh\AppData\Local\Temp\ccFTC33n.s 			page 54


 2146 00dc 0C2B     		cmp	r3, #12
 2147 00de 04D1     		bne	.L136
 2148              		.loc 1 900 3 discriminator 9
 2149 00e0 7B68     		ldr	r3, [r7, #4]
 2150 00e2 0222     		movs	r2, #2
 2151 00e4 83F84120 		strb	r2, [r3, #65]
 2152 00e8 0BE0     		b	.L131
 2153              	.L136:
 2154              		.loc 1 900 3 discriminator 10
 2155 00ea 3B68     		ldr	r3, [r7]
 2156 00ec 102B     		cmp	r3, #16
 2157 00ee 04D1     		bne	.L138
 2158              		.loc 1 900 3 discriminator 12
 2159 00f0 7B68     		ldr	r3, [r7, #4]
 2160 00f2 0222     		movs	r2, #2
 2161 00f4 83F84220 		strb	r2, [r3, #66]
 2162 00f8 03E0     		b	.L131
 2163              	.L138:
 2164              		.loc 1 900 3 discriminator 13
 2165 00fa 7B68     		ldr	r3, [r7, #4]
 2166 00fc 0222     		movs	r2, #2
 2167 00fe 83F84320 		strb	r2, [r3, #67]
 2168              	.L131:
 901:Drivers/STM32L4xx_HAL_Driver/Src/stm32l4xx_hal_tim.c **** 
 902:Drivers/STM32L4xx_HAL_Driver/Src/stm32l4xx_hal_tim.c ****   switch (Channel)
 2169              		.loc 1 902 3 is_stmt 1
 2170 0102 3B68     		ldr	r3, [r7]
 2171 0104 0C2B     		cmp	r3, #12
 2172 0106 41D8     		bhi	.L140
 2173 0108 01A2     		adr	r2, .L142
 2174 010a 52F823F0 		ldr	pc, [r2, r3, lsl #2]
 2175 010e 00BF     		.p2align 2
 2176              	.L142:
 2177 0110 45010000 		.word	.L145+1
 2178 0114 8D010000 		.word	.L140+1
 2179 0118 8D010000 		.word	.L140+1
 2180 011c 8D010000 		.word	.L140+1
 2181 0120 57010000 		.word	.L144+1
 2182 0124 8D010000 		.word	.L140+1
 2183 0128 8D010000 		.word	.L140+1
 2184 012c 8D010000 		.word	.L140+1
 2185 0130 69010000 		.word	.L143+1
 2186 0134 8D010000 		.word	.L140+1
 2187 0138 8D010000 		.word	.L140+1
 2188 013c 8D010000 		.word	.L140+1
 2189 0140 7B010000 		.word	.L141+1
 2190              		.p2align 1
 2191              	.L145:
 903:Drivers/STM32L4xx_HAL_Driver/Src/stm32l4xx_hal_tim.c ****   {
 904:Drivers/STM32L4xx_HAL_Driver/Src/stm32l4xx_hal_tim.c ****     case TIM_CHANNEL_1:
 905:Drivers/STM32L4xx_HAL_Driver/Src/stm32l4xx_hal_tim.c ****     {
 906:Drivers/STM32L4xx_HAL_Driver/Src/stm32l4xx_hal_tim.c ****       /* Enable the TIM Capture/Compare 1 interrupt */
 907:Drivers/STM32L4xx_HAL_Driver/Src/stm32l4xx_hal_tim.c ****       __HAL_TIM_ENABLE_IT(htim, TIM_IT_CC1);
 2192              		.loc 1 907 7
 2193 0144 7B68     		ldr	r3, [r7, #4]
 2194 0146 1B68     		ldr	r3, [r3]
 2195 0148 DA68     		ldr	r2, [r3, #12]
ARM GAS  C:\Users\ep_ygh\AppData\Local\Temp\ccFTC33n.s 			page 55


 2196 014a 7B68     		ldr	r3, [r7, #4]
 2197 014c 1B68     		ldr	r3, [r3]
 2198 014e 42F00202 		orr	r2, r2, #2
 2199 0152 DA60     		str	r2, [r3, #12]
 908:Drivers/STM32L4xx_HAL_Driver/Src/stm32l4xx_hal_tim.c ****       break;
 2200              		.loc 1 908 7
 2201 0154 1DE0     		b	.L146
 2202              	.L144:
 909:Drivers/STM32L4xx_HAL_Driver/Src/stm32l4xx_hal_tim.c ****     }
 910:Drivers/STM32L4xx_HAL_Driver/Src/stm32l4xx_hal_tim.c **** 
 911:Drivers/STM32L4xx_HAL_Driver/Src/stm32l4xx_hal_tim.c ****     case TIM_CHANNEL_2:
 912:Drivers/STM32L4xx_HAL_Driver/Src/stm32l4xx_hal_tim.c ****     {
 913:Drivers/STM32L4xx_HAL_Driver/Src/stm32l4xx_hal_tim.c ****       /* Enable the TIM Capture/Compare 2 interrupt */
 914:Drivers/STM32L4xx_HAL_Driver/Src/stm32l4xx_hal_tim.c ****       __HAL_TIM_ENABLE_IT(htim, TIM_IT_CC2);
 2203              		.loc 1 914 7
 2204 0156 7B68     		ldr	r3, [r7, #4]
 2205 0158 1B68     		ldr	r3, [r3]
 2206 015a DA68     		ldr	r2, [r3, #12]
 2207 015c 7B68     		ldr	r3, [r7, #4]
 2208 015e 1B68     		ldr	r3, [r3]
 2209 0160 42F00402 		orr	r2, r2, #4
 2210 0164 DA60     		str	r2, [r3, #12]
 915:Drivers/STM32L4xx_HAL_Driver/Src/stm32l4xx_hal_tim.c ****       break;
 2211              		.loc 1 915 7
 2212 0166 14E0     		b	.L146
 2213              	.L143:
 916:Drivers/STM32L4xx_HAL_Driver/Src/stm32l4xx_hal_tim.c ****     }
 917:Drivers/STM32L4xx_HAL_Driver/Src/stm32l4xx_hal_tim.c **** 
 918:Drivers/STM32L4xx_HAL_Driver/Src/stm32l4xx_hal_tim.c ****     case TIM_CHANNEL_3:
 919:Drivers/STM32L4xx_HAL_Driver/Src/stm32l4xx_hal_tim.c ****     {
 920:Drivers/STM32L4xx_HAL_Driver/Src/stm32l4xx_hal_tim.c ****       /* Enable the TIM Capture/Compare 3 interrupt */
 921:Drivers/STM32L4xx_HAL_Driver/Src/stm32l4xx_hal_tim.c ****       __HAL_TIM_ENABLE_IT(htim, TIM_IT_CC3);
 2214              		.loc 1 921 7
 2215 0168 7B68     		ldr	r3, [r7, #4]
 2216 016a 1B68     		ldr	r3, [r3]
 2217 016c DA68     		ldr	r2, [r3, #12]
 2218 016e 7B68     		ldr	r3, [r7, #4]
 2219 0170 1B68     		ldr	r3, [r3]
 2220 0172 42F00802 		orr	r2, r2, #8
 2221 0176 DA60     		str	r2, [r3, #12]
 922:Drivers/STM32L4xx_HAL_Driver/Src/stm32l4xx_hal_tim.c ****       break;
 2222              		.loc 1 922 7
 2223 0178 0BE0     		b	.L146
 2224              	.L141:
 923:Drivers/STM32L4xx_HAL_Driver/Src/stm32l4xx_hal_tim.c ****     }
 924:Drivers/STM32L4xx_HAL_Driver/Src/stm32l4xx_hal_tim.c **** 
 925:Drivers/STM32L4xx_HAL_Driver/Src/stm32l4xx_hal_tim.c ****     case TIM_CHANNEL_4:
 926:Drivers/STM32L4xx_HAL_Driver/Src/stm32l4xx_hal_tim.c ****     {
 927:Drivers/STM32L4xx_HAL_Driver/Src/stm32l4xx_hal_tim.c ****       /* Enable the TIM Capture/Compare 4 interrupt */
 928:Drivers/STM32L4xx_HAL_Driver/Src/stm32l4xx_hal_tim.c ****       __HAL_TIM_ENABLE_IT(htim, TIM_IT_CC4);
 2225              		.loc 1 928 7
 2226 017a 7B68     		ldr	r3, [r7, #4]
 2227 017c 1B68     		ldr	r3, [r3]
 2228 017e DA68     		ldr	r2, [r3, #12]
 2229 0180 7B68     		ldr	r3, [r7, #4]
 2230 0182 1B68     		ldr	r3, [r3]
 2231 0184 42F01002 		orr	r2, r2, #16
ARM GAS  C:\Users\ep_ygh\AppData\Local\Temp\ccFTC33n.s 			page 56


 2232 0188 DA60     		str	r2, [r3, #12]
 929:Drivers/STM32L4xx_HAL_Driver/Src/stm32l4xx_hal_tim.c ****       break;
 2233              		.loc 1 929 7
 2234 018a 02E0     		b	.L146
 2235              	.L140:
 930:Drivers/STM32L4xx_HAL_Driver/Src/stm32l4xx_hal_tim.c ****     }
 931:Drivers/STM32L4xx_HAL_Driver/Src/stm32l4xx_hal_tim.c **** 
 932:Drivers/STM32L4xx_HAL_Driver/Src/stm32l4xx_hal_tim.c ****     default:
 933:Drivers/STM32L4xx_HAL_Driver/Src/stm32l4xx_hal_tim.c ****       status = HAL_ERROR;
 2236              		.loc 1 933 14
 2237 018c 0123     		movs	r3, #1
 2238 018e FB73     		strb	r3, [r7, #15]
 934:Drivers/STM32L4xx_HAL_Driver/Src/stm32l4xx_hal_tim.c ****       break;
 2239              		.loc 1 934 7
 2240 0190 00BF     		nop
 2241              	.L146:
 935:Drivers/STM32L4xx_HAL_Driver/Src/stm32l4xx_hal_tim.c ****   }
 936:Drivers/STM32L4xx_HAL_Driver/Src/stm32l4xx_hal_tim.c **** 
 937:Drivers/STM32L4xx_HAL_Driver/Src/stm32l4xx_hal_tim.c ****   if (status == HAL_OK)
 2242              		.loc 1 937 6
 2243 0192 FB7B     		ldrb	r3, [r7, #15]	@ zero_extendqisi2
 2244 0194 002B     		cmp	r3, #0
 2245 0196 6FD1     		bne	.L147
 938:Drivers/STM32L4xx_HAL_Driver/Src/stm32l4xx_hal_tim.c ****   {
 939:Drivers/STM32L4xx_HAL_Driver/Src/stm32l4xx_hal_tim.c ****     /* Enable the Output compare channel */
 940:Drivers/STM32L4xx_HAL_Driver/Src/stm32l4xx_hal_tim.c ****     TIM_CCxChannelCmd(htim->Instance, Channel, TIM_CCx_ENABLE);
 2246              		.loc 1 940 5
 2247 0198 7B68     		ldr	r3, [r7, #4]
 2248 019a 1B68     		ldr	r3, [r3]
 2249 019c 0122     		movs	r2, #1
 2250 019e 3968     		ldr	r1, [r7]
 2251 01a0 1846     		mov	r0, r3
 2252 01a2 FFF7FEFF 		bl	TIM_CCxChannelCmd
 941:Drivers/STM32L4xx_HAL_Driver/Src/stm32l4xx_hal_tim.c **** 
 942:Drivers/STM32L4xx_HAL_Driver/Src/stm32l4xx_hal_tim.c ****     if (IS_TIM_BREAK_INSTANCE(htim->Instance) != RESET)
 2253              		.loc 1 942 9
 2254 01a6 7B68     		ldr	r3, [r7, #4]
 2255 01a8 1B68     		ldr	r3, [r3]
 2256 01aa 364A     		ldr	r2, .L156
 2257 01ac 9342     		cmp	r3, r2
 2258 01ae 13D0     		beq	.L148
 2259              		.loc 1 942 9 is_stmt 0 discriminator 2
 2260 01b0 7B68     		ldr	r3, [r7, #4]
 2261 01b2 1B68     		ldr	r3, [r3]
 2262 01b4 344A     		ldr	r2, .L156+4
 2263 01b6 9342     		cmp	r3, r2
 2264 01b8 0ED0     		beq	.L148
 2265              		.loc 1 942 9 discriminator 4
 2266 01ba 7B68     		ldr	r3, [r7, #4]
 2267 01bc 1B68     		ldr	r3, [r3]
 2268 01be 334A     		ldr	r2, .L156+8
 2269 01c0 9342     		cmp	r3, r2
 2270 01c2 09D0     		beq	.L148
 2271              		.loc 1 942 9 discriminator 6
 2272 01c4 7B68     		ldr	r3, [r7, #4]
 2273 01c6 1B68     		ldr	r3, [r3]
 2274 01c8 314A     		ldr	r2, .L156+12
ARM GAS  C:\Users\ep_ygh\AppData\Local\Temp\ccFTC33n.s 			page 57


 2275 01ca 9342     		cmp	r3, r2
 2276 01cc 04D0     		beq	.L148
 2277              		.loc 1 942 9 discriminator 8
 2278 01ce 7B68     		ldr	r3, [r7, #4]
 2279 01d0 1B68     		ldr	r3, [r3]
 2280 01d2 304A     		ldr	r2, .L156+16
 2281 01d4 9342     		cmp	r3, r2
 2282 01d6 01D1     		bne	.L149
 2283              	.L148:
 2284              		.loc 1 942 9 discriminator 9
 2285 01d8 0123     		movs	r3, #1
 2286 01da 00E0     		b	.L150
 2287              	.L149:
 2288              		.loc 1 942 9 discriminator 10
 2289 01dc 0023     		movs	r3, #0
 2290              	.L150:
 2291              		.loc 1 942 8 is_stmt 1 discriminator 12
 2292 01de 002B     		cmp	r3, #0
 2293 01e0 07D0     		beq	.L151
 943:Drivers/STM32L4xx_HAL_Driver/Src/stm32l4xx_hal_tim.c ****     {
 944:Drivers/STM32L4xx_HAL_Driver/Src/stm32l4xx_hal_tim.c ****       /* Enable the main output */
 945:Drivers/STM32L4xx_HAL_Driver/Src/stm32l4xx_hal_tim.c ****       __HAL_TIM_MOE_ENABLE(htim);
 2294              		.loc 1 945 7
 2295 01e2 7B68     		ldr	r3, [r7, #4]
 2296 01e4 1B68     		ldr	r3, [r3]
 2297 01e6 5A6C     		ldr	r2, [r3, #68]
 2298 01e8 7B68     		ldr	r3, [r7, #4]
 2299 01ea 1B68     		ldr	r3, [r3]
 2300 01ec 42F40042 		orr	r2, r2, #32768
 2301 01f0 5A64     		str	r2, [r3, #68]
 2302              	.L151:
 946:Drivers/STM32L4xx_HAL_Driver/Src/stm32l4xx_hal_tim.c ****     }
 947:Drivers/STM32L4xx_HAL_Driver/Src/stm32l4xx_hal_tim.c **** 
 948:Drivers/STM32L4xx_HAL_Driver/Src/stm32l4xx_hal_tim.c ****     /* Enable the Peripheral, except in trigger mode where enable is automatically done with trigge
 949:Drivers/STM32L4xx_HAL_Driver/Src/stm32l4xx_hal_tim.c ****     if (IS_TIM_SLAVE_INSTANCE(htim->Instance))
 2303              		.loc 1 949 9
 2304 01f2 7B68     		ldr	r3, [r7, #4]
 2305 01f4 1B68     		ldr	r3, [r3]
 2306              		.loc 1 949 8
 2307 01f6 234A     		ldr	r2, .L156
 2308 01f8 9342     		cmp	r3, r2
 2309 01fa 1DD0     		beq	.L152
 2310              		.loc 1 949 9 discriminator 1
 2311 01fc 7B68     		ldr	r3, [r7, #4]
 2312 01fe 1B68     		ldr	r3, [r3]
 2313 0200 B3F1804F 		cmp	r3, #1073741824
 2314 0204 18D0     		beq	.L152
 2315              		.loc 1 949 9 is_stmt 0 discriminator 2
 2316 0206 7B68     		ldr	r3, [r7, #4]
 2317 0208 1B68     		ldr	r3, [r3]
 2318 020a 234A     		ldr	r2, .L156+20
 2319 020c 9342     		cmp	r3, r2
 2320 020e 13D0     		beq	.L152
 2321              		.loc 1 949 9 discriminator 3
 2322 0210 7B68     		ldr	r3, [r7, #4]
 2323 0212 1B68     		ldr	r3, [r3]
 2324 0214 214A     		ldr	r2, .L156+24
ARM GAS  C:\Users\ep_ygh\AppData\Local\Temp\ccFTC33n.s 			page 58


 2325 0216 9342     		cmp	r3, r2
 2326 0218 0ED0     		beq	.L152
 2327              		.loc 1 949 9 discriminator 4
 2328 021a 7B68     		ldr	r3, [r7, #4]
 2329 021c 1B68     		ldr	r3, [r3]
 2330 021e 204A     		ldr	r2, .L156+28
 2331 0220 9342     		cmp	r3, r2
 2332 0222 09D0     		beq	.L152
 2333              		.loc 1 949 9 discriminator 5
 2334 0224 7B68     		ldr	r3, [r7, #4]
 2335 0226 1B68     		ldr	r3, [r3]
 2336 0228 174A     		ldr	r2, .L156+4
 2337 022a 9342     		cmp	r3, r2
 2338 022c 04D0     		beq	.L152
 2339              		.loc 1 949 9 discriminator 6
 2340 022e 7B68     		ldr	r3, [r7, #4]
 2341 0230 1B68     		ldr	r3, [r3]
 2342 0232 164A     		ldr	r2, .L156+8
 2343 0234 9342     		cmp	r3, r2
 2344 0236 15D1     		bne	.L153
 2345              	.L152:
 950:Drivers/STM32L4xx_HAL_Driver/Src/stm32l4xx_hal_tim.c ****     {
 951:Drivers/STM32L4xx_HAL_Driver/Src/stm32l4xx_hal_tim.c ****       tmpsmcr = htim->Instance->SMCR & TIM_SMCR_SMS;
 2346              		.loc 1 951 21 is_stmt 1
 2347 0238 7B68     		ldr	r3, [r7, #4]
 2348 023a 1B68     		ldr	r3, [r3]
 2349              		.loc 1 951 31
 2350 023c 9A68     		ldr	r2, [r3, #8]
 2351              		.loc 1 951 15
 2352 023e 194B     		ldr	r3, .L156+32
 2353 0240 1340     		ands	r3, r3, r2
 2354 0242 BB60     		str	r3, [r7, #8]
 952:Drivers/STM32L4xx_HAL_Driver/Src/stm32l4xx_hal_tim.c ****       if (!IS_TIM_SLAVEMODE_TRIGGER_ENABLED(tmpsmcr))
 2355              		.loc 1 952 10
 2356 0244 BB68     		ldr	r3, [r7, #8]
 2357 0246 062B     		cmp	r3, #6
 2358 0248 15D0     		beq	.L155
 2359              		.loc 1 952 11 discriminator 1
 2360 024a BB68     		ldr	r3, [r7, #8]
 2361 024c B3F5803F 		cmp	r3, #65536
 2362 0250 11D0     		beq	.L155
 953:Drivers/STM32L4xx_HAL_Driver/Src/stm32l4xx_hal_tim.c ****       {
 954:Drivers/STM32L4xx_HAL_Driver/Src/stm32l4xx_hal_tim.c ****         __HAL_TIM_ENABLE(htim);
 2363              		.loc 1 954 9
 2364 0252 7B68     		ldr	r3, [r7, #4]
 2365 0254 1B68     		ldr	r3, [r3]
 2366 0256 1A68     		ldr	r2, [r3]
 2367 0258 7B68     		ldr	r3, [r7, #4]
 2368 025a 1B68     		ldr	r3, [r3]
 2369 025c 42F00102 		orr	r2, r2, #1
 2370 0260 1A60     		str	r2, [r3]
 952:Drivers/STM32L4xx_HAL_Driver/Src/stm32l4xx_hal_tim.c ****       if (!IS_TIM_SLAVEMODE_TRIGGER_ENABLED(tmpsmcr))
 2371              		.loc 1 952 10
 2372 0262 08E0     		b	.L155
 2373              	.L153:
 955:Drivers/STM32L4xx_HAL_Driver/Src/stm32l4xx_hal_tim.c ****       }
 956:Drivers/STM32L4xx_HAL_Driver/Src/stm32l4xx_hal_tim.c ****     }
ARM GAS  C:\Users\ep_ygh\AppData\Local\Temp\ccFTC33n.s 			page 59


 957:Drivers/STM32L4xx_HAL_Driver/Src/stm32l4xx_hal_tim.c ****     else
 958:Drivers/STM32L4xx_HAL_Driver/Src/stm32l4xx_hal_tim.c ****     {
 959:Drivers/STM32L4xx_HAL_Driver/Src/stm32l4xx_hal_tim.c ****       __HAL_TIM_ENABLE(htim);
 2374              		.loc 1 959 7
 2375 0264 7B68     		ldr	r3, [r7, #4]
 2376 0266 1B68     		ldr	r3, [r3]
 2377 0268 1A68     		ldr	r2, [r3]
 2378 026a 7B68     		ldr	r3, [r7, #4]
 2379 026c 1B68     		ldr	r3, [r3]
 2380 026e 42F00102 		orr	r2, r2, #1
 2381 0272 1A60     		str	r2, [r3]
 2382 0274 00E0     		b	.L147
 2383              	.L155:
 952:Drivers/STM32L4xx_HAL_Driver/Src/stm32l4xx_hal_tim.c ****       {
 2384              		.loc 1 952 10
 2385 0276 00BF     		nop
 2386              	.L147:
 960:Drivers/STM32L4xx_HAL_Driver/Src/stm32l4xx_hal_tim.c ****     }
 961:Drivers/STM32L4xx_HAL_Driver/Src/stm32l4xx_hal_tim.c ****   }
 962:Drivers/STM32L4xx_HAL_Driver/Src/stm32l4xx_hal_tim.c **** 
 963:Drivers/STM32L4xx_HAL_Driver/Src/stm32l4xx_hal_tim.c ****   /* Return function status */
 964:Drivers/STM32L4xx_HAL_Driver/Src/stm32l4xx_hal_tim.c ****   return status;
 2387              		.loc 1 964 10
 2388 0278 FB7B     		ldrb	r3, [r7, #15]	@ zero_extendqisi2
 2389              	.L129:
 965:Drivers/STM32L4xx_HAL_Driver/Src/stm32l4xx_hal_tim.c **** }
 2390              		.loc 1 965 1
 2391 027a 1846     		mov	r0, r3
 2392 027c 1037     		adds	r7, r7, #16
 2393              	.LCFI91:
 2394              		.cfi_def_cfa_offset 8
 2395 027e BD46     		mov	sp, r7
 2396              	.LCFI92:
 2397              		.cfi_def_cfa_register 13
 2398              		@ sp needed
 2399 0280 80BD     		pop	{r7, pc}
 2400              	.L157:
 2401 0282 00BF     		.align	2
 2402              	.L156:
 2403 0284 002C0140 		.word	1073818624
 2404 0288 00340140 		.word	1073820672
 2405 028c 00400140 		.word	1073823744
 2406 0290 00440140 		.word	1073824768
 2407 0294 00480140 		.word	1073825792
 2408 0298 00040040 		.word	1073742848
 2409 029c 00080040 		.word	1073743872
 2410 02a0 000C0040 		.word	1073744896
 2411 02a4 07000100 		.word	65543
 2412              		.cfi_endproc
 2413              	.LFE333:
 2415              		.section	.text.HAL_TIM_OC_Stop_IT,"ax",%progbits
 2416              		.align	1
 2417              		.global	HAL_TIM_OC_Stop_IT
 2418              		.syntax unified
 2419              		.thumb
 2420              		.thumb_func
 2422              	HAL_TIM_OC_Stop_IT:
ARM GAS  C:\Users\ep_ygh\AppData\Local\Temp\ccFTC33n.s 			page 60


 2423              	.LFB334:
 966:Drivers/STM32L4xx_HAL_Driver/Src/stm32l4xx_hal_tim.c **** 
 967:Drivers/STM32L4xx_HAL_Driver/Src/stm32l4xx_hal_tim.c **** /**
 968:Drivers/STM32L4xx_HAL_Driver/Src/stm32l4xx_hal_tim.c ****   * @brief  Stops the TIM Output Compare signal generation in interrupt mode.
 969:Drivers/STM32L4xx_HAL_Driver/Src/stm32l4xx_hal_tim.c ****   * @param  htim TIM Output Compare handle
 970:Drivers/STM32L4xx_HAL_Driver/Src/stm32l4xx_hal_tim.c ****   * @param  Channel TIM Channel to be disabled
 971:Drivers/STM32L4xx_HAL_Driver/Src/stm32l4xx_hal_tim.c ****   *          This parameter can be one of the following values:
 972:Drivers/STM32L4xx_HAL_Driver/Src/stm32l4xx_hal_tim.c ****   *            @arg TIM_CHANNEL_1: TIM Channel 1 selected
 973:Drivers/STM32L4xx_HAL_Driver/Src/stm32l4xx_hal_tim.c ****   *            @arg TIM_CHANNEL_2: TIM Channel 2 selected
 974:Drivers/STM32L4xx_HAL_Driver/Src/stm32l4xx_hal_tim.c ****   *            @arg TIM_CHANNEL_3: TIM Channel 3 selected
 975:Drivers/STM32L4xx_HAL_Driver/Src/stm32l4xx_hal_tim.c ****   *            @arg TIM_CHANNEL_4: TIM Channel 4 selected
 976:Drivers/STM32L4xx_HAL_Driver/Src/stm32l4xx_hal_tim.c ****   * @retval HAL status
 977:Drivers/STM32L4xx_HAL_Driver/Src/stm32l4xx_hal_tim.c ****   */
 978:Drivers/STM32L4xx_HAL_Driver/Src/stm32l4xx_hal_tim.c **** HAL_StatusTypeDef HAL_TIM_OC_Stop_IT(TIM_HandleTypeDef *htim, uint32_t Channel)
 979:Drivers/STM32L4xx_HAL_Driver/Src/stm32l4xx_hal_tim.c **** {
 2424              		.loc 1 979 1
 2425              		.cfi_startproc
 2426              		@ args = 0, pretend = 0, frame = 16
 2427              		@ frame_needed = 1, uses_anonymous_args = 0
 2428 0000 80B5     		push	{r7, lr}
 2429              	.LCFI93:
 2430              		.cfi_def_cfa_offset 8
 2431              		.cfi_offset 7, -8
 2432              		.cfi_offset 14, -4
 2433 0002 84B0     		sub	sp, sp, #16
 2434              	.LCFI94:
 2435              		.cfi_def_cfa_offset 24
 2436 0004 00AF     		add	r7, sp, #0
 2437              	.LCFI95:
 2438              		.cfi_def_cfa_register 7
 2439 0006 7860     		str	r0, [r7, #4]
 2440 0008 3960     		str	r1, [r7]
 980:Drivers/STM32L4xx_HAL_Driver/Src/stm32l4xx_hal_tim.c ****   HAL_StatusTypeDef status = HAL_OK;
 2441              		.loc 1 980 21
 2442 000a 0023     		movs	r3, #0
 2443 000c FB73     		strb	r3, [r7, #15]
 981:Drivers/STM32L4xx_HAL_Driver/Src/stm32l4xx_hal_tim.c **** 
 982:Drivers/STM32L4xx_HAL_Driver/Src/stm32l4xx_hal_tim.c ****   /* Check the parameters */
 983:Drivers/STM32L4xx_HAL_Driver/Src/stm32l4xx_hal_tim.c ****   assert_param(IS_TIM_CCX_CHANNEL(htim->Instance, Channel));
 984:Drivers/STM32L4xx_HAL_Driver/Src/stm32l4xx_hal_tim.c **** 
 985:Drivers/STM32L4xx_HAL_Driver/Src/stm32l4xx_hal_tim.c ****   switch (Channel)
 2444              		.loc 1 985 3
 2445 000e 3B68     		ldr	r3, [r7]
 2446 0010 0C2B     		cmp	r3, #12
 2447 0012 41D8     		bhi	.L159
 2448 0014 01A2     		adr	r2, .L161
 2449 0016 52F823F0 		ldr	pc, [r2, r3, lsl #2]
 2450 001a 00BF     		.p2align 2
 2451              	.L161:
 2452 001c 51000000 		.word	.L164+1
 2453 0020 99000000 		.word	.L159+1
 2454 0024 99000000 		.word	.L159+1
 2455 0028 99000000 		.word	.L159+1
 2456 002c 63000000 		.word	.L163+1
 2457 0030 99000000 		.word	.L159+1
 2458 0034 99000000 		.word	.L159+1
 2459 0038 99000000 		.word	.L159+1
ARM GAS  C:\Users\ep_ygh\AppData\Local\Temp\ccFTC33n.s 			page 61


 2460 003c 75000000 		.word	.L162+1
 2461 0040 99000000 		.word	.L159+1
 2462 0044 99000000 		.word	.L159+1
 2463 0048 99000000 		.word	.L159+1
 2464 004c 87000000 		.word	.L160+1
 2465              		.p2align 1
 2466              	.L164:
 986:Drivers/STM32L4xx_HAL_Driver/Src/stm32l4xx_hal_tim.c ****   {
 987:Drivers/STM32L4xx_HAL_Driver/Src/stm32l4xx_hal_tim.c ****     case TIM_CHANNEL_1:
 988:Drivers/STM32L4xx_HAL_Driver/Src/stm32l4xx_hal_tim.c ****     {
 989:Drivers/STM32L4xx_HAL_Driver/Src/stm32l4xx_hal_tim.c ****       /* Disable the TIM Capture/Compare 1 interrupt */
 990:Drivers/STM32L4xx_HAL_Driver/Src/stm32l4xx_hal_tim.c ****       __HAL_TIM_DISABLE_IT(htim, TIM_IT_CC1);
 2467              		.loc 1 990 7
 2468 0050 7B68     		ldr	r3, [r7, #4]
 2469 0052 1B68     		ldr	r3, [r3]
 2470 0054 DA68     		ldr	r2, [r3, #12]
 2471 0056 7B68     		ldr	r3, [r7, #4]
 2472 0058 1B68     		ldr	r3, [r3]
 2473 005a 22F00202 		bic	r2, r2, #2
 2474 005e DA60     		str	r2, [r3, #12]
 991:Drivers/STM32L4xx_HAL_Driver/Src/stm32l4xx_hal_tim.c ****       break;
 2475              		.loc 1 991 7
 2476 0060 1DE0     		b	.L165
 2477              	.L163:
 992:Drivers/STM32L4xx_HAL_Driver/Src/stm32l4xx_hal_tim.c ****     }
 993:Drivers/STM32L4xx_HAL_Driver/Src/stm32l4xx_hal_tim.c **** 
 994:Drivers/STM32L4xx_HAL_Driver/Src/stm32l4xx_hal_tim.c ****     case TIM_CHANNEL_2:
 995:Drivers/STM32L4xx_HAL_Driver/Src/stm32l4xx_hal_tim.c ****     {
 996:Drivers/STM32L4xx_HAL_Driver/Src/stm32l4xx_hal_tim.c ****       /* Disable the TIM Capture/Compare 2 interrupt */
 997:Drivers/STM32L4xx_HAL_Driver/Src/stm32l4xx_hal_tim.c ****       __HAL_TIM_DISABLE_IT(htim, TIM_IT_CC2);
 2478              		.loc 1 997 7
 2479 0062 7B68     		ldr	r3, [r7, #4]
 2480 0064 1B68     		ldr	r3, [r3]
 2481 0066 DA68     		ldr	r2, [r3, #12]
 2482 0068 7B68     		ldr	r3, [r7, #4]
 2483 006a 1B68     		ldr	r3, [r3]
 2484 006c 22F00402 		bic	r2, r2, #4
 2485 0070 DA60     		str	r2, [r3, #12]
 998:Drivers/STM32L4xx_HAL_Driver/Src/stm32l4xx_hal_tim.c ****       break;
 2486              		.loc 1 998 7
 2487 0072 14E0     		b	.L165
 2488              	.L162:
 999:Drivers/STM32L4xx_HAL_Driver/Src/stm32l4xx_hal_tim.c ****     }
1000:Drivers/STM32L4xx_HAL_Driver/Src/stm32l4xx_hal_tim.c **** 
1001:Drivers/STM32L4xx_HAL_Driver/Src/stm32l4xx_hal_tim.c ****     case TIM_CHANNEL_3:
1002:Drivers/STM32L4xx_HAL_Driver/Src/stm32l4xx_hal_tim.c ****     {
1003:Drivers/STM32L4xx_HAL_Driver/Src/stm32l4xx_hal_tim.c ****       /* Disable the TIM Capture/Compare 3 interrupt */
1004:Drivers/STM32L4xx_HAL_Driver/Src/stm32l4xx_hal_tim.c ****       __HAL_TIM_DISABLE_IT(htim, TIM_IT_CC3);
 2489              		.loc 1 1004 7
 2490 0074 7B68     		ldr	r3, [r7, #4]
 2491 0076 1B68     		ldr	r3, [r3]
 2492 0078 DA68     		ldr	r2, [r3, #12]
 2493 007a 7B68     		ldr	r3, [r7, #4]
 2494 007c 1B68     		ldr	r3, [r3]
 2495 007e 22F00802 		bic	r2, r2, #8
 2496 0082 DA60     		str	r2, [r3, #12]
1005:Drivers/STM32L4xx_HAL_Driver/Src/stm32l4xx_hal_tim.c ****       break;
ARM GAS  C:\Users\ep_ygh\AppData\Local\Temp\ccFTC33n.s 			page 62


 2497              		.loc 1 1005 7
 2498 0084 0BE0     		b	.L165
 2499              	.L160:
1006:Drivers/STM32L4xx_HAL_Driver/Src/stm32l4xx_hal_tim.c ****     }
1007:Drivers/STM32L4xx_HAL_Driver/Src/stm32l4xx_hal_tim.c **** 
1008:Drivers/STM32L4xx_HAL_Driver/Src/stm32l4xx_hal_tim.c ****     case TIM_CHANNEL_4:
1009:Drivers/STM32L4xx_HAL_Driver/Src/stm32l4xx_hal_tim.c ****     {
1010:Drivers/STM32L4xx_HAL_Driver/Src/stm32l4xx_hal_tim.c ****       /* Disable the TIM Capture/Compare 4 interrupt */
1011:Drivers/STM32L4xx_HAL_Driver/Src/stm32l4xx_hal_tim.c ****       __HAL_TIM_DISABLE_IT(htim, TIM_IT_CC4);
 2500              		.loc 1 1011 7
 2501 0086 7B68     		ldr	r3, [r7, #4]
 2502 0088 1B68     		ldr	r3, [r3]
 2503 008a DA68     		ldr	r2, [r3, #12]
 2504 008c 7B68     		ldr	r3, [r7, #4]
 2505 008e 1B68     		ldr	r3, [r3]
 2506 0090 22F01002 		bic	r2, r2, #16
 2507 0094 DA60     		str	r2, [r3, #12]
1012:Drivers/STM32L4xx_HAL_Driver/Src/stm32l4xx_hal_tim.c ****       break;
 2508              		.loc 1 1012 7
 2509 0096 02E0     		b	.L165
 2510              	.L159:
1013:Drivers/STM32L4xx_HAL_Driver/Src/stm32l4xx_hal_tim.c ****     }
1014:Drivers/STM32L4xx_HAL_Driver/Src/stm32l4xx_hal_tim.c **** 
1015:Drivers/STM32L4xx_HAL_Driver/Src/stm32l4xx_hal_tim.c ****     default:
1016:Drivers/STM32L4xx_HAL_Driver/Src/stm32l4xx_hal_tim.c ****       status = HAL_ERROR;
 2511              		.loc 1 1016 14
 2512 0098 0123     		movs	r3, #1
 2513 009a FB73     		strb	r3, [r7, #15]
1017:Drivers/STM32L4xx_HAL_Driver/Src/stm32l4xx_hal_tim.c ****       break;
 2514              		.loc 1 1017 7
 2515 009c 00BF     		nop
 2516              	.L165:
1018:Drivers/STM32L4xx_HAL_Driver/Src/stm32l4xx_hal_tim.c ****   }
1019:Drivers/STM32L4xx_HAL_Driver/Src/stm32l4xx_hal_tim.c **** 
1020:Drivers/STM32L4xx_HAL_Driver/Src/stm32l4xx_hal_tim.c ****   if (status == HAL_OK)
 2517              		.loc 1 1020 6
 2518 009e FB7B     		ldrb	r3, [r7, #15]	@ zero_extendqisi2
 2519 00a0 002B     		cmp	r3, #0
 2520 00a2 40F08180 		bne	.L166
1021:Drivers/STM32L4xx_HAL_Driver/Src/stm32l4xx_hal_tim.c ****   {
1022:Drivers/STM32L4xx_HAL_Driver/Src/stm32l4xx_hal_tim.c ****     /* Disable the Output compare channel */
1023:Drivers/STM32L4xx_HAL_Driver/Src/stm32l4xx_hal_tim.c ****     TIM_CCxChannelCmd(htim->Instance, Channel, TIM_CCx_DISABLE);
 2521              		.loc 1 1023 5
 2522 00a6 7B68     		ldr	r3, [r7, #4]
 2523 00a8 1B68     		ldr	r3, [r3]
 2524 00aa 0022     		movs	r2, #0
 2525 00ac 3968     		ldr	r1, [r7]
 2526 00ae 1846     		mov	r0, r3
 2527 00b0 FFF7FEFF 		bl	TIM_CCxChannelCmd
1024:Drivers/STM32L4xx_HAL_Driver/Src/stm32l4xx_hal_tim.c **** 
1025:Drivers/STM32L4xx_HAL_Driver/Src/stm32l4xx_hal_tim.c ****     if (IS_TIM_BREAK_INSTANCE(htim->Instance) != RESET)
 2528              		.loc 1 1025 9
 2529 00b4 7B68     		ldr	r3, [r7, #4]
 2530 00b6 1B68     		ldr	r3, [r3]
 2531 00b8 3E4A     		ldr	r2, .L182
 2532 00ba 9342     		cmp	r3, r2
 2533 00bc 13D0     		beq	.L167
ARM GAS  C:\Users\ep_ygh\AppData\Local\Temp\ccFTC33n.s 			page 63


 2534              		.loc 1 1025 9 is_stmt 0 discriminator 2
 2535 00be 7B68     		ldr	r3, [r7, #4]
 2536 00c0 1B68     		ldr	r3, [r3]
 2537 00c2 3D4A     		ldr	r2, .L182+4
 2538 00c4 9342     		cmp	r3, r2
 2539 00c6 0ED0     		beq	.L167
 2540              		.loc 1 1025 9 discriminator 4
 2541 00c8 7B68     		ldr	r3, [r7, #4]
 2542 00ca 1B68     		ldr	r3, [r3]
 2543 00cc 3B4A     		ldr	r2, .L182+8
 2544 00ce 9342     		cmp	r3, r2
 2545 00d0 09D0     		beq	.L167
 2546              		.loc 1 1025 9 discriminator 6
 2547 00d2 7B68     		ldr	r3, [r7, #4]
 2548 00d4 1B68     		ldr	r3, [r3]
 2549 00d6 3A4A     		ldr	r2, .L182+12
 2550 00d8 9342     		cmp	r3, r2
 2551 00da 04D0     		beq	.L167
 2552              		.loc 1 1025 9 discriminator 8
 2553 00dc 7B68     		ldr	r3, [r7, #4]
 2554 00de 1B68     		ldr	r3, [r3]
 2555 00e0 384A     		ldr	r2, .L182+16
 2556 00e2 9342     		cmp	r3, r2
 2557 00e4 01D1     		bne	.L168
 2558              	.L167:
 2559              		.loc 1 1025 9 discriminator 9
 2560 00e6 0123     		movs	r3, #1
 2561 00e8 00E0     		b	.L169
 2562              	.L168:
 2563              		.loc 1 1025 9 discriminator 10
 2564 00ea 0023     		movs	r3, #0
 2565              	.L169:
 2566              		.loc 1 1025 8 is_stmt 1 discriminator 12
 2567 00ec 002B     		cmp	r3, #0
 2568 00ee 17D0     		beq	.L170
1026:Drivers/STM32L4xx_HAL_Driver/Src/stm32l4xx_hal_tim.c ****     {
1027:Drivers/STM32L4xx_HAL_Driver/Src/stm32l4xx_hal_tim.c ****       /* Disable the Main Output */
1028:Drivers/STM32L4xx_HAL_Driver/Src/stm32l4xx_hal_tim.c ****       __HAL_TIM_MOE_DISABLE(htim);
 2569              		.loc 1 1028 7
 2570 00f0 7B68     		ldr	r3, [r7, #4]
 2571 00f2 1B68     		ldr	r3, [r3]
 2572 00f4 1A6A     		ldr	r2, [r3, #32]
 2573 00f6 41F21113 		movw	r3, #4369
 2574 00fa 1340     		ands	r3, r3, r2
 2575 00fc 002B     		cmp	r3, #0
 2576 00fe 0FD1     		bne	.L170
 2577              		.loc 1 1028 7 is_stmt 0 discriminator 1
 2578 0100 7B68     		ldr	r3, [r7, #4]
 2579 0102 1B68     		ldr	r3, [r3]
 2580 0104 1A6A     		ldr	r2, [r3, #32]
 2581 0106 40F24443 		movw	r3, #1092
 2582 010a 1340     		ands	r3, r3, r2
 2583 010c 002B     		cmp	r3, #0
 2584 010e 07D1     		bne	.L170
 2585              		.loc 1 1028 7 discriminator 2
 2586 0110 7B68     		ldr	r3, [r7, #4]
 2587 0112 1B68     		ldr	r3, [r3]
ARM GAS  C:\Users\ep_ygh\AppData\Local\Temp\ccFTC33n.s 			page 64


 2588 0114 5A6C     		ldr	r2, [r3, #68]
 2589 0116 7B68     		ldr	r3, [r7, #4]
 2590 0118 1B68     		ldr	r3, [r3]
 2591 011a 22F40042 		bic	r2, r2, #32768
 2592 011e 5A64     		str	r2, [r3, #68]
 2593              	.L170:
1029:Drivers/STM32L4xx_HAL_Driver/Src/stm32l4xx_hal_tim.c ****     }
1030:Drivers/STM32L4xx_HAL_Driver/Src/stm32l4xx_hal_tim.c **** 
1031:Drivers/STM32L4xx_HAL_Driver/Src/stm32l4xx_hal_tim.c ****     /* Disable the Peripheral */
1032:Drivers/STM32L4xx_HAL_Driver/Src/stm32l4xx_hal_tim.c ****     __HAL_TIM_DISABLE(htim);
 2594              		.loc 1 1032 5 is_stmt 1
 2595 0120 7B68     		ldr	r3, [r7, #4]
 2596 0122 1B68     		ldr	r3, [r3]
 2597 0124 1A6A     		ldr	r2, [r3, #32]
 2598 0126 41F21113 		movw	r3, #4369
 2599 012a 1340     		ands	r3, r3, r2
 2600 012c 002B     		cmp	r3, #0
 2601 012e 0FD1     		bne	.L171
 2602              		.loc 1 1032 5 is_stmt 0 discriminator 1
 2603 0130 7B68     		ldr	r3, [r7, #4]
 2604 0132 1B68     		ldr	r3, [r3]
 2605 0134 1A6A     		ldr	r2, [r3, #32]
 2606 0136 40F24443 		movw	r3, #1092
 2607 013a 1340     		ands	r3, r3, r2
 2608 013c 002B     		cmp	r3, #0
 2609 013e 07D1     		bne	.L171
 2610              		.loc 1 1032 5 discriminator 2
 2611 0140 7B68     		ldr	r3, [r7, #4]
 2612 0142 1B68     		ldr	r3, [r3]
 2613 0144 1A68     		ldr	r2, [r3]
 2614 0146 7B68     		ldr	r3, [r7, #4]
 2615 0148 1B68     		ldr	r3, [r3]
 2616 014a 22F00102 		bic	r2, r2, #1
 2617 014e 1A60     		str	r2, [r3]
 2618              	.L171:
1033:Drivers/STM32L4xx_HAL_Driver/Src/stm32l4xx_hal_tim.c **** 
1034:Drivers/STM32L4xx_HAL_Driver/Src/stm32l4xx_hal_tim.c ****     /* Set the TIM channel state */
1035:Drivers/STM32L4xx_HAL_Driver/Src/stm32l4xx_hal_tim.c ****     TIM_CHANNEL_STATE_SET(htim, Channel, HAL_TIM_CHANNEL_STATE_READY);
 2619              		.loc 1 1035 5 is_stmt 1
 2620 0150 3B68     		ldr	r3, [r7]
 2621 0152 002B     		cmp	r3, #0
 2622 0154 04D1     		bne	.L172
 2623              		.loc 1 1035 5 is_stmt 0 discriminator 1
 2624 0156 7B68     		ldr	r3, [r7, #4]
 2625 0158 0122     		movs	r2, #1
 2626 015a 83F83E20 		strb	r2, [r3, #62]
 2627 015e 23E0     		b	.L166
 2628              	.L172:
 2629              		.loc 1 1035 5 discriminator 2
 2630 0160 3B68     		ldr	r3, [r7]
 2631 0162 042B     		cmp	r3, #4
 2632 0164 04D1     		bne	.L173
 2633              		.loc 1 1035 5 discriminator 3
 2634 0166 7B68     		ldr	r3, [r7, #4]
 2635 0168 0122     		movs	r2, #1
 2636 016a 83F83F20 		strb	r2, [r3, #63]
 2637 016e 1BE0     		b	.L166
ARM GAS  C:\Users\ep_ygh\AppData\Local\Temp\ccFTC33n.s 			page 65


 2638              	.L173:
 2639              		.loc 1 1035 5 discriminator 4
 2640 0170 3B68     		ldr	r3, [r7]
 2641 0172 082B     		cmp	r3, #8
 2642 0174 04D1     		bne	.L175
 2643              		.loc 1 1035 5 discriminator 6
 2644 0176 7B68     		ldr	r3, [r7, #4]
 2645 0178 0122     		movs	r2, #1
 2646 017a 83F84020 		strb	r2, [r3, #64]
 2647 017e 13E0     		b	.L166
 2648              	.L175:
 2649              		.loc 1 1035 5 discriminator 7
 2650 0180 3B68     		ldr	r3, [r7]
 2651 0182 0C2B     		cmp	r3, #12
 2652 0184 04D1     		bne	.L177
 2653              		.loc 1 1035 5 discriminator 9
 2654 0186 7B68     		ldr	r3, [r7, #4]
 2655 0188 0122     		movs	r2, #1
 2656 018a 83F84120 		strb	r2, [r3, #65]
 2657 018e 0BE0     		b	.L166
 2658              	.L177:
 2659              		.loc 1 1035 5 discriminator 10
 2660 0190 3B68     		ldr	r3, [r7]
 2661 0192 102B     		cmp	r3, #16
 2662 0194 04D1     		bne	.L179
 2663              		.loc 1 1035 5 discriminator 12
 2664 0196 7B68     		ldr	r3, [r7, #4]
 2665 0198 0122     		movs	r2, #1
 2666 019a 83F84220 		strb	r2, [r3, #66]
 2667 019e 03E0     		b	.L166
 2668              	.L179:
 2669              		.loc 1 1035 5 discriminator 13
 2670 01a0 7B68     		ldr	r3, [r7, #4]
 2671 01a2 0122     		movs	r2, #1
 2672 01a4 83F84320 		strb	r2, [r3, #67]
 2673              	.L166:
1036:Drivers/STM32L4xx_HAL_Driver/Src/stm32l4xx_hal_tim.c ****   }
1037:Drivers/STM32L4xx_HAL_Driver/Src/stm32l4xx_hal_tim.c **** 
1038:Drivers/STM32L4xx_HAL_Driver/Src/stm32l4xx_hal_tim.c ****   /* Return function status */
1039:Drivers/STM32L4xx_HAL_Driver/Src/stm32l4xx_hal_tim.c ****   return status;
 2674              		.loc 1 1039 10 is_stmt 1
 2675 01a8 FB7B     		ldrb	r3, [r7, #15]	@ zero_extendqisi2
1040:Drivers/STM32L4xx_HAL_Driver/Src/stm32l4xx_hal_tim.c **** }
 2676              		.loc 1 1040 1
 2677 01aa 1846     		mov	r0, r3
 2678 01ac 1037     		adds	r7, r7, #16
 2679              	.LCFI96:
 2680              		.cfi_def_cfa_offset 8
 2681 01ae BD46     		mov	sp, r7
 2682              	.LCFI97:
 2683              		.cfi_def_cfa_register 13
 2684              		@ sp needed
 2685 01b0 80BD     		pop	{r7, pc}
 2686              	.L183:
 2687 01b2 00BF     		.align	2
 2688              	.L182:
 2689 01b4 002C0140 		.word	1073818624
ARM GAS  C:\Users\ep_ygh\AppData\Local\Temp\ccFTC33n.s 			page 66


 2690 01b8 00340140 		.word	1073820672
 2691 01bc 00400140 		.word	1073823744
 2692 01c0 00440140 		.word	1073824768
 2693 01c4 00480140 		.word	1073825792
 2694              		.cfi_endproc
 2695              	.LFE334:
 2697              		.section	.text.HAL_TIM_OC_Start_DMA,"ax",%progbits
 2698              		.align	1
 2699              		.global	HAL_TIM_OC_Start_DMA
 2700              		.syntax unified
 2701              		.thumb
 2702              		.thumb_func
 2704              	HAL_TIM_OC_Start_DMA:
 2705              	.LFB335:
1041:Drivers/STM32L4xx_HAL_Driver/Src/stm32l4xx_hal_tim.c **** 
1042:Drivers/STM32L4xx_HAL_Driver/Src/stm32l4xx_hal_tim.c **** /**
1043:Drivers/STM32L4xx_HAL_Driver/Src/stm32l4xx_hal_tim.c ****   * @brief  Starts the TIM Output Compare signal generation in DMA mode.
1044:Drivers/STM32L4xx_HAL_Driver/Src/stm32l4xx_hal_tim.c ****   * @param  htim TIM Output Compare handle
1045:Drivers/STM32L4xx_HAL_Driver/Src/stm32l4xx_hal_tim.c ****   * @param  Channel TIM Channel to be enabled
1046:Drivers/STM32L4xx_HAL_Driver/Src/stm32l4xx_hal_tim.c ****   *          This parameter can be one of the following values:
1047:Drivers/STM32L4xx_HAL_Driver/Src/stm32l4xx_hal_tim.c ****   *            @arg TIM_CHANNEL_1: TIM Channel 1 selected
1048:Drivers/STM32L4xx_HAL_Driver/Src/stm32l4xx_hal_tim.c ****   *            @arg TIM_CHANNEL_2: TIM Channel 2 selected
1049:Drivers/STM32L4xx_HAL_Driver/Src/stm32l4xx_hal_tim.c ****   *            @arg TIM_CHANNEL_3: TIM Channel 3 selected
1050:Drivers/STM32L4xx_HAL_Driver/Src/stm32l4xx_hal_tim.c ****   *            @arg TIM_CHANNEL_4: TIM Channel 4 selected
1051:Drivers/STM32L4xx_HAL_Driver/Src/stm32l4xx_hal_tim.c ****   * @param  pData The source Buffer address.
1052:Drivers/STM32L4xx_HAL_Driver/Src/stm32l4xx_hal_tim.c ****   * @param  Length The length of data to be transferred from memory to TIM peripheral
1053:Drivers/STM32L4xx_HAL_Driver/Src/stm32l4xx_hal_tim.c ****   * @retval HAL status
1054:Drivers/STM32L4xx_HAL_Driver/Src/stm32l4xx_hal_tim.c ****   */
1055:Drivers/STM32L4xx_HAL_Driver/Src/stm32l4xx_hal_tim.c **** HAL_StatusTypeDef HAL_TIM_OC_Start_DMA(TIM_HandleTypeDef *htim, uint32_t Channel, const uint32_t *p
1056:Drivers/STM32L4xx_HAL_Driver/Src/stm32l4xx_hal_tim.c ****                                        uint16_t Length)
1057:Drivers/STM32L4xx_HAL_Driver/Src/stm32l4xx_hal_tim.c **** {
 2706              		.loc 1 1057 1
 2707              		.cfi_startproc
 2708              		@ args = 0, pretend = 0, frame = 24
 2709              		@ frame_needed = 1, uses_anonymous_args = 0
 2710 0000 80B5     		push	{r7, lr}
 2711              	.LCFI98:
 2712              		.cfi_def_cfa_offset 8
 2713              		.cfi_offset 7, -8
 2714              		.cfi_offset 14, -4
 2715 0002 86B0     		sub	sp, sp, #24
 2716              	.LCFI99:
 2717              		.cfi_def_cfa_offset 32
 2718 0004 00AF     		add	r7, sp, #0
 2719              	.LCFI100:
 2720              		.cfi_def_cfa_register 7
 2721 0006 F860     		str	r0, [r7, #12]
 2722 0008 B960     		str	r1, [r7, #8]
 2723 000a 7A60     		str	r2, [r7, #4]
 2724 000c 7B80     		strh	r3, [r7, #2]	@ movhi
1058:Drivers/STM32L4xx_HAL_Driver/Src/stm32l4xx_hal_tim.c ****   HAL_StatusTypeDef status = HAL_OK;
 2725              		.loc 1 1058 21
 2726 000e 0023     		movs	r3, #0
 2727 0010 FB75     		strb	r3, [r7, #23]
1059:Drivers/STM32L4xx_HAL_Driver/Src/stm32l4xx_hal_tim.c ****   uint32_t tmpsmcr;
1060:Drivers/STM32L4xx_HAL_Driver/Src/stm32l4xx_hal_tim.c **** 
1061:Drivers/STM32L4xx_HAL_Driver/Src/stm32l4xx_hal_tim.c ****   /* Check the parameters */
ARM GAS  C:\Users\ep_ygh\AppData\Local\Temp\ccFTC33n.s 			page 67


1062:Drivers/STM32L4xx_HAL_Driver/Src/stm32l4xx_hal_tim.c ****   assert_param(IS_TIM_CCX_CHANNEL(htim->Instance, Channel));
1063:Drivers/STM32L4xx_HAL_Driver/Src/stm32l4xx_hal_tim.c **** 
1064:Drivers/STM32L4xx_HAL_Driver/Src/stm32l4xx_hal_tim.c ****   /* Set the TIM channel state */
1065:Drivers/STM32L4xx_HAL_Driver/Src/stm32l4xx_hal_tim.c ****   if (TIM_CHANNEL_STATE_GET(htim, Channel) == HAL_TIM_CHANNEL_STATE_BUSY)
 2728              		.loc 1 1065 44
 2729 0012 BB68     		ldr	r3, [r7, #8]
 2730 0014 002B     		cmp	r3, #0
 2731 0016 09D1     		bne	.L185
 2732              		.loc 1 1065 7 discriminator 1
 2733 0018 FB68     		ldr	r3, [r7, #12]
 2734 001a 93F83E30 		ldrb	r3, [r3, #62]
 2735 001e DBB2     		uxtb	r3, r3
 2736              		.loc 1 1065 44 discriminator 1
 2737 0020 022B     		cmp	r3, #2
 2738 0022 0CBF     		ite	eq
 2739 0024 0123     		moveq	r3, #1
 2740 0026 0023     		movne	r3, #0
 2741 0028 DBB2     		uxtb	r3, r3
 2742 002a 3CE0     		b	.L186
 2743              	.L185:
 2744              		.loc 1 1065 44 is_stmt 0 discriminator 2
 2745 002c BB68     		ldr	r3, [r7, #8]
 2746 002e 042B     		cmp	r3, #4
 2747 0030 09D1     		bne	.L187
 2748              		.loc 1 1065 7 is_stmt 1 discriminator 4
 2749 0032 FB68     		ldr	r3, [r7, #12]
 2750 0034 93F83F30 		ldrb	r3, [r3, #63]
 2751 0038 DBB2     		uxtb	r3, r3
 2752              		.loc 1 1065 44 discriminator 4
 2753 003a 022B     		cmp	r3, #2
 2754 003c 0CBF     		ite	eq
 2755 003e 0123     		moveq	r3, #1
 2756 0040 0023     		movne	r3, #0
 2757 0042 DBB2     		uxtb	r3, r3
 2758 0044 2FE0     		b	.L186
 2759              	.L187:
 2760              		.loc 1 1065 44 is_stmt 0 discriminator 5
 2761 0046 BB68     		ldr	r3, [r7, #8]
 2762 0048 082B     		cmp	r3, #8
 2763 004a 09D1     		bne	.L189
 2764              		.loc 1 1065 7 is_stmt 1 discriminator 7
 2765 004c FB68     		ldr	r3, [r7, #12]
 2766 004e 93F84030 		ldrb	r3, [r3, #64]
 2767 0052 DBB2     		uxtb	r3, r3
 2768              		.loc 1 1065 44 discriminator 7
 2769 0054 022B     		cmp	r3, #2
 2770 0056 0CBF     		ite	eq
 2771 0058 0123     		moveq	r3, #1
 2772 005a 0023     		movne	r3, #0
 2773 005c DBB2     		uxtb	r3, r3
 2774 005e 22E0     		b	.L186
 2775              	.L189:
 2776              		.loc 1 1065 44 is_stmt 0 discriminator 8
 2777 0060 BB68     		ldr	r3, [r7, #8]
 2778 0062 0C2B     		cmp	r3, #12
 2779 0064 09D1     		bne	.L191
 2780              		.loc 1 1065 7 is_stmt 1 discriminator 10
ARM GAS  C:\Users\ep_ygh\AppData\Local\Temp\ccFTC33n.s 			page 68


 2781 0066 FB68     		ldr	r3, [r7, #12]
 2782 0068 93F84130 		ldrb	r3, [r3, #65]
 2783 006c DBB2     		uxtb	r3, r3
 2784              		.loc 1 1065 44 discriminator 10
 2785 006e 022B     		cmp	r3, #2
 2786 0070 0CBF     		ite	eq
 2787 0072 0123     		moveq	r3, #1
 2788 0074 0023     		movne	r3, #0
 2789 0076 DBB2     		uxtb	r3, r3
 2790 0078 15E0     		b	.L186
 2791              	.L191:
 2792              		.loc 1 1065 44 is_stmt 0 discriminator 11
 2793 007a BB68     		ldr	r3, [r7, #8]
 2794 007c 102B     		cmp	r3, #16
 2795 007e 09D1     		bne	.L193
 2796              		.loc 1 1065 7 is_stmt 1 discriminator 13
 2797 0080 FB68     		ldr	r3, [r7, #12]
 2798 0082 93F84230 		ldrb	r3, [r3, #66]
 2799 0086 DBB2     		uxtb	r3, r3
 2800              		.loc 1 1065 44 discriminator 13
 2801 0088 022B     		cmp	r3, #2
 2802 008a 0CBF     		ite	eq
 2803 008c 0123     		moveq	r3, #1
 2804 008e 0023     		movne	r3, #0
 2805 0090 DBB2     		uxtb	r3, r3
 2806 0092 08E0     		b	.L186
 2807              	.L193:
 2808              		.loc 1 1065 7 discriminator 14
 2809 0094 FB68     		ldr	r3, [r7, #12]
 2810 0096 93F84330 		ldrb	r3, [r3, #67]
 2811 009a DBB2     		uxtb	r3, r3
 2812              		.loc 1 1065 44 discriminator 14
 2813 009c 022B     		cmp	r3, #2
 2814 009e 0CBF     		ite	eq
 2815 00a0 0123     		moveq	r3, #1
 2816 00a2 0023     		movne	r3, #0
 2817 00a4 DBB2     		uxtb	r3, r3
 2818              	.L186:
 2819              		.loc 1 1065 6 discriminator 20
 2820 00a6 002B     		cmp	r3, #0
 2821 00a8 01D0     		beq	.L195
1066:Drivers/STM32L4xx_HAL_Driver/Src/stm32l4xx_hal_tim.c ****   {
1067:Drivers/STM32L4xx_HAL_Driver/Src/stm32l4xx_hal_tim.c ****     return HAL_BUSY;
 2822              		.loc 1 1067 12
 2823 00aa 0223     		movs	r3, #2
 2824 00ac ABE1     		b	.L196
 2825              	.L195:
1068:Drivers/STM32L4xx_HAL_Driver/Src/stm32l4xx_hal_tim.c ****   }
1069:Drivers/STM32L4xx_HAL_Driver/Src/stm32l4xx_hal_tim.c ****   else if (TIM_CHANNEL_STATE_GET(htim, Channel) == HAL_TIM_CHANNEL_STATE_READY)
 2826              		.loc 1 1069 49
 2827 00ae BB68     		ldr	r3, [r7, #8]
 2828 00b0 002B     		cmp	r3, #0
 2829 00b2 09D1     		bne	.L197
 2830              		.loc 1 1069 12 discriminator 1
 2831 00b4 FB68     		ldr	r3, [r7, #12]
 2832 00b6 93F83E30 		ldrb	r3, [r3, #62]
 2833 00ba DBB2     		uxtb	r3, r3
ARM GAS  C:\Users\ep_ygh\AppData\Local\Temp\ccFTC33n.s 			page 69


 2834              		.loc 1 1069 49 discriminator 1
 2835 00bc 012B     		cmp	r3, #1
 2836 00be 0CBF     		ite	eq
 2837 00c0 0123     		moveq	r3, #1
 2838 00c2 0023     		movne	r3, #0
 2839 00c4 DBB2     		uxtb	r3, r3
 2840 00c6 3CE0     		b	.L198
 2841              	.L197:
 2842              		.loc 1 1069 49 is_stmt 0 discriminator 2
 2843 00c8 BB68     		ldr	r3, [r7, #8]
 2844 00ca 042B     		cmp	r3, #4
 2845 00cc 09D1     		bne	.L199
 2846              		.loc 1 1069 12 is_stmt 1 discriminator 4
 2847 00ce FB68     		ldr	r3, [r7, #12]
 2848 00d0 93F83F30 		ldrb	r3, [r3, #63]
 2849 00d4 DBB2     		uxtb	r3, r3
 2850              		.loc 1 1069 49 discriminator 4
 2851 00d6 012B     		cmp	r3, #1
 2852 00d8 0CBF     		ite	eq
 2853 00da 0123     		moveq	r3, #1
 2854 00dc 0023     		movne	r3, #0
 2855 00de DBB2     		uxtb	r3, r3
 2856 00e0 2FE0     		b	.L198
 2857              	.L199:
 2858              		.loc 1 1069 49 is_stmt 0 discriminator 5
 2859 00e2 BB68     		ldr	r3, [r7, #8]
 2860 00e4 082B     		cmp	r3, #8
 2861 00e6 09D1     		bne	.L201
 2862              		.loc 1 1069 12 is_stmt 1 discriminator 7
 2863 00e8 FB68     		ldr	r3, [r7, #12]
 2864 00ea 93F84030 		ldrb	r3, [r3, #64]
 2865 00ee DBB2     		uxtb	r3, r3
 2866              		.loc 1 1069 49 discriminator 7
 2867 00f0 012B     		cmp	r3, #1
 2868 00f2 0CBF     		ite	eq
 2869 00f4 0123     		moveq	r3, #1
 2870 00f6 0023     		movne	r3, #0
 2871 00f8 DBB2     		uxtb	r3, r3
 2872 00fa 22E0     		b	.L198
 2873              	.L201:
 2874              		.loc 1 1069 49 is_stmt 0 discriminator 8
 2875 00fc BB68     		ldr	r3, [r7, #8]
 2876 00fe 0C2B     		cmp	r3, #12
 2877 0100 09D1     		bne	.L203
 2878              		.loc 1 1069 12 is_stmt 1 discriminator 10
 2879 0102 FB68     		ldr	r3, [r7, #12]
 2880 0104 93F84130 		ldrb	r3, [r3, #65]
 2881 0108 DBB2     		uxtb	r3, r3
 2882              		.loc 1 1069 49 discriminator 10
 2883 010a 012B     		cmp	r3, #1
 2884 010c 0CBF     		ite	eq
 2885 010e 0123     		moveq	r3, #1
 2886 0110 0023     		movne	r3, #0
 2887 0112 DBB2     		uxtb	r3, r3
 2888 0114 15E0     		b	.L198
 2889              	.L203:
 2890              		.loc 1 1069 49 is_stmt 0 discriminator 11
ARM GAS  C:\Users\ep_ygh\AppData\Local\Temp\ccFTC33n.s 			page 70


 2891 0116 BB68     		ldr	r3, [r7, #8]
 2892 0118 102B     		cmp	r3, #16
 2893 011a 09D1     		bne	.L205
 2894              		.loc 1 1069 12 is_stmt 1 discriminator 13
 2895 011c FB68     		ldr	r3, [r7, #12]
 2896 011e 93F84230 		ldrb	r3, [r3, #66]
 2897 0122 DBB2     		uxtb	r3, r3
 2898              		.loc 1 1069 49 discriminator 13
 2899 0124 012B     		cmp	r3, #1
 2900 0126 0CBF     		ite	eq
 2901 0128 0123     		moveq	r3, #1
 2902 012a 0023     		movne	r3, #0
 2903 012c DBB2     		uxtb	r3, r3
 2904 012e 08E0     		b	.L198
 2905              	.L205:
 2906              		.loc 1 1069 12 discriminator 14
 2907 0130 FB68     		ldr	r3, [r7, #12]
 2908 0132 93F84330 		ldrb	r3, [r3, #67]
 2909 0136 DBB2     		uxtb	r3, r3
 2910              		.loc 1 1069 49 discriminator 14
 2911 0138 012B     		cmp	r3, #1
 2912 013a 0CBF     		ite	eq
 2913 013c 0123     		moveq	r3, #1
 2914 013e 0023     		movne	r3, #0
 2915 0140 DBB2     		uxtb	r3, r3
 2916              	.L198:
 2917              		.loc 1 1069 11 discriminator 20
 2918 0142 002B     		cmp	r3, #0
 2919 0144 34D0     		beq	.L207
1070:Drivers/STM32L4xx_HAL_Driver/Src/stm32l4xx_hal_tim.c ****   {
1071:Drivers/STM32L4xx_HAL_Driver/Src/stm32l4xx_hal_tim.c ****     if ((pData == NULL) || (Length == 0U))
 2920              		.loc 1 1071 8
 2921 0146 7B68     		ldr	r3, [r7, #4]
 2922 0148 002B     		cmp	r3, #0
 2923 014a 02D0     		beq	.L208
 2924              		.loc 1 1071 25 discriminator 1
 2925 014c 7B88     		ldrh	r3, [r7, #2]
 2926 014e 002B     		cmp	r3, #0
 2927 0150 01D1     		bne	.L209
 2928              	.L208:
1072:Drivers/STM32L4xx_HAL_Driver/Src/stm32l4xx_hal_tim.c ****     {
1073:Drivers/STM32L4xx_HAL_Driver/Src/stm32l4xx_hal_tim.c ****       return HAL_ERROR;
 2929              		.loc 1 1073 14
 2930 0152 0123     		movs	r3, #1
 2931 0154 57E1     		b	.L196
 2932              	.L209:
1074:Drivers/STM32L4xx_HAL_Driver/Src/stm32l4xx_hal_tim.c ****     }
1075:Drivers/STM32L4xx_HAL_Driver/Src/stm32l4xx_hal_tim.c ****     else
1076:Drivers/STM32L4xx_HAL_Driver/Src/stm32l4xx_hal_tim.c ****     {
1077:Drivers/STM32L4xx_HAL_Driver/Src/stm32l4xx_hal_tim.c ****       TIM_CHANNEL_STATE_SET(htim, Channel, HAL_TIM_CHANNEL_STATE_BUSY);
 2933              		.loc 1 1077 7
 2934 0156 BB68     		ldr	r3, [r7, #8]
 2935 0158 002B     		cmp	r3, #0
 2936 015a 04D1     		bne	.L210
 2937              		.loc 1 1077 7 is_stmt 0 discriminator 1
 2938 015c FB68     		ldr	r3, [r7, #12]
 2939 015e 0222     		movs	r2, #2
ARM GAS  C:\Users\ep_ygh\AppData\Local\Temp\ccFTC33n.s 			page 71


 2940 0160 83F83E20 		strb	r2, [r3, #62]
 2941 0164 26E0     		b	.L211
 2942              	.L210:
 2943              		.loc 1 1077 7 discriminator 2
 2944 0166 BB68     		ldr	r3, [r7, #8]
 2945 0168 042B     		cmp	r3, #4
 2946 016a 04D1     		bne	.L212
 2947              		.loc 1 1077 7 discriminator 3
 2948 016c FB68     		ldr	r3, [r7, #12]
 2949 016e 0222     		movs	r2, #2
 2950 0170 83F83F20 		strb	r2, [r3, #63]
 2951 0174 1EE0     		b	.L211
 2952              	.L212:
 2953              		.loc 1 1077 7 discriminator 4
 2954 0176 BB68     		ldr	r3, [r7, #8]
 2955 0178 082B     		cmp	r3, #8
 2956 017a 04D1     		bne	.L214
 2957              		.loc 1 1077 7 discriminator 6
 2958 017c FB68     		ldr	r3, [r7, #12]
 2959 017e 0222     		movs	r2, #2
 2960 0180 83F84020 		strb	r2, [r3, #64]
 2961 0184 16E0     		b	.L211
 2962              	.L214:
 2963              		.loc 1 1077 7 discriminator 7
 2964 0186 BB68     		ldr	r3, [r7, #8]
 2965 0188 0C2B     		cmp	r3, #12
 2966 018a 04D1     		bne	.L216
 2967              		.loc 1 1077 7 discriminator 9
 2968 018c FB68     		ldr	r3, [r7, #12]
 2969 018e 0222     		movs	r2, #2
 2970 0190 83F84120 		strb	r2, [r3, #65]
 2971 0194 0EE0     		b	.L211
 2972              	.L216:
 2973              		.loc 1 1077 7 discriminator 10
 2974 0196 BB68     		ldr	r3, [r7, #8]
 2975 0198 102B     		cmp	r3, #16
 2976 019a 04D1     		bne	.L218
 2977              		.loc 1 1077 7 discriminator 12
 2978 019c FB68     		ldr	r3, [r7, #12]
 2979 019e 0222     		movs	r2, #2
 2980 01a0 83F84220 		strb	r2, [r3, #66]
 2981 01a4 06E0     		b	.L211
 2982              	.L218:
 2983              		.loc 1 1077 7 discriminator 13
 2984 01a6 FB68     		ldr	r3, [r7, #12]
 2985 01a8 0222     		movs	r2, #2
 2986 01aa 83F84320 		strb	r2, [r3, #67]
 2987 01ae 01E0     		b	.L211
 2988              	.L207:
1078:Drivers/STM32L4xx_HAL_Driver/Src/stm32l4xx_hal_tim.c ****     }
1079:Drivers/STM32L4xx_HAL_Driver/Src/stm32l4xx_hal_tim.c ****   }
1080:Drivers/STM32L4xx_HAL_Driver/Src/stm32l4xx_hal_tim.c ****   else
1081:Drivers/STM32L4xx_HAL_Driver/Src/stm32l4xx_hal_tim.c ****   {
1082:Drivers/STM32L4xx_HAL_Driver/Src/stm32l4xx_hal_tim.c ****     return HAL_ERROR;
 2989              		.loc 1 1082 12 is_stmt 1
 2990 01b0 0123     		movs	r3, #1
 2991 01b2 28E1     		b	.L196
ARM GAS  C:\Users\ep_ygh\AppData\Local\Temp\ccFTC33n.s 			page 72


 2992              	.L211:
1083:Drivers/STM32L4xx_HAL_Driver/Src/stm32l4xx_hal_tim.c ****   }
1084:Drivers/STM32L4xx_HAL_Driver/Src/stm32l4xx_hal_tim.c **** 
1085:Drivers/STM32L4xx_HAL_Driver/Src/stm32l4xx_hal_tim.c ****   switch (Channel)
 2993              		.loc 1 1085 3
 2994 01b4 BB68     		ldr	r3, [r7, #8]
 2995 01b6 0C2B     		cmp	r3, #12
 2996 01b8 00F2AE80 		bhi	.L220
 2997 01bc 01A2     		adr	r2, .L222
 2998 01be 52F823F0 		ldr	pc, [r2, r3, lsl #2]
 2999 01c2 00BF     		.p2align 2
 3000              	.L222:
 3001 01c4 F9010000 		.word	.L225+1
 3002 01c8 19030000 		.word	.L220+1
 3003 01cc 19030000 		.word	.L220+1
 3004 01d0 19030000 		.word	.L220+1
 3005 01d4 41020000 		.word	.L224+1
 3006 01d8 19030000 		.word	.L220+1
 3007 01dc 19030000 		.word	.L220+1
 3008 01e0 19030000 		.word	.L220+1
 3009 01e4 89020000 		.word	.L223+1
 3010 01e8 19030000 		.word	.L220+1
 3011 01ec 19030000 		.word	.L220+1
 3012 01f0 19030000 		.word	.L220+1
 3013 01f4 D1020000 		.word	.L221+1
 3014              		.p2align 1
 3015              	.L225:
1086:Drivers/STM32L4xx_HAL_Driver/Src/stm32l4xx_hal_tim.c ****   {
1087:Drivers/STM32L4xx_HAL_Driver/Src/stm32l4xx_hal_tim.c ****     case TIM_CHANNEL_1:
1088:Drivers/STM32L4xx_HAL_Driver/Src/stm32l4xx_hal_tim.c ****     {
1089:Drivers/STM32L4xx_HAL_Driver/Src/stm32l4xx_hal_tim.c ****       /* Set the DMA compare callbacks */
1090:Drivers/STM32L4xx_HAL_Driver/Src/stm32l4xx_hal_tim.c ****       htim->hdma[TIM_DMA_ID_CC1]->XferCpltCallback = TIM_DMADelayPulseCplt;
 3016              		.loc 1 1090 17
 3017 01f8 FB68     		ldr	r3, [r7, #12]
 3018 01fa 5B6A     		ldr	r3, [r3, #36]
 3019              		.loc 1 1090 52
 3020 01fc 844A     		ldr	r2, .L240
 3021 01fe DA62     		str	r2, [r3, #44]
1091:Drivers/STM32L4xx_HAL_Driver/Src/stm32l4xx_hal_tim.c ****       htim->hdma[TIM_DMA_ID_CC1]->XferHalfCpltCallback = TIM_DMADelayPulseHalfCplt;
 3022              		.loc 1 1091 17
 3023 0200 FB68     		ldr	r3, [r7, #12]
 3024 0202 5B6A     		ldr	r3, [r3, #36]
 3025              		.loc 1 1091 56
 3026 0204 834A     		ldr	r2, .L240+4
 3027 0206 1A63     		str	r2, [r3, #48]
1092:Drivers/STM32L4xx_HAL_Driver/Src/stm32l4xx_hal_tim.c **** 
1093:Drivers/STM32L4xx_HAL_Driver/Src/stm32l4xx_hal_tim.c ****       /* Set the DMA error callback */
1094:Drivers/STM32L4xx_HAL_Driver/Src/stm32l4xx_hal_tim.c ****       htim->hdma[TIM_DMA_ID_CC1]->XferErrorCallback = TIM_DMAError ;
 3028              		.loc 1 1094 17
 3029 0208 FB68     		ldr	r3, [r7, #12]
 3030 020a 5B6A     		ldr	r3, [r3, #36]
 3031              		.loc 1 1094 53
 3032 020c 824A     		ldr	r2, .L240+8
 3033 020e 5A63     		str	r2, [r3, #52]
1095:Drivers/STM32L4xx_HAL_Driver/Src/stm32l4xx_hal_tim.c **** 
1096:Drivers/STM32L4xx_HAL_Driver/Src/stm32l4xx_hal_tim.c ****       /* Enable the DMA channel */
1097:Drivers/STM32L4xx_HAL_Driver/Src/stm32l4xx_hal_tim.c ****       if (HAL_DMA_Start_IT(htim->hdma[TIM_DMA_ID_CC1], (uint32_t)pData, (uint32_t)&htim->Instance->
ARM GAS  C:\Users\ep_ygh\AppData\Local\Temp\ccFTC33n.s 			page 73


 3034              		.loc 1 1097 11
 3035 0210 FB68     		ldr	r3, [r7, #12]
 3036 0212 586A     		ldr	r0, [r3, #36]
 3037 0214 7968     		ldr	r1, [r7, #4]
 3038              		.loc 1 1097 88
 3039 0216 FB68     		ldr	r3, [r7, #12]
 3040 0218 1B68     		ldr	r3, [r3]
 3041              		.loc 1 1097 83
 3042 021a 3433     		adds	r3, r3, #52
 3043              		.loc 1 1097 11
 3044 021c 1A46     		mov	r2, r3
 3045 021e 7B88     		ldrh	r3, [r7, #2]
 3046 0220 FFF7FEFF 		bl	HAL_DMA_Start_IT
 3047 0224 0346     		mov	r3, r0
 3048              		.loc 1 1097 10
 3049 0226 002B     		cmp	r3, #0
 3050 0228 01D0     		beq	.L226
1098:Drivers/STM32L4xx_HAL_Driver/Src/stm32l4xx_hal_tim.c ****                            Length) != HAL_OK)
1099:Drivers/STM32L4xx_HAL_Driver/Src/stm32l4xx_hal_tim.c ****       {
1100:Drivers/STM32L4xx_HAL_Driver/Src/stm32l4xx_hal_tim.c ****         /* Return error status */
1101:Drivers/STM32L4xx_HAL_Driver/Src/stm32l4xx_hal_tim.c ****         return HAL_ERROR;
 3051              		.loc 1 1101 16
 3052 022a 0123     		movs	r3, #1
 3053 022c EBE0     		b	.L196
 3054              	.L226:
1102:Drivers/STM32L4xx_HAL_Driver/Src/stm32l4xx_hal_tim.c ****       }
1103:Drivers/STM32L4xx_HAL_Driver/Src/stm32l4xx_hal_tim.c **** 
1104:Drivers/STM32L4xx_HAL_Driver/Src/stm32l4xx_hal_tim.c ****       /* Enable the TIM Capture/Compare 1 DMA request */
1105:Drivers/STM32L4xx_HAL_Driver/Src/stm32l4xx_hal_tim.c ****       __HAL_TIM_ENABLE_DMA(htim, TIM_DMA_CC1);
 3055              		.loc 1 1105 7
 3056 022e FB68     		ldr	r3, [r7, #12]
 3057 0230 1B68     		ldr	r3, [r3]
 3058 0232 DA68     		ldr	r2, [r3, #12]
 3059 0234 FB68     		ldr	r3, [r7, #12]
 3060 0236 1B68     		ldr	r3, [r3]
 3061 0238 42F40072 		orr	r2, r2, #512
 3062 023c DA60     		str	r2, [r3, #12]
1106:Drivers/STM32L4xx_HAL_Driver/Src/stm32l4xx_hal_tim.c ****       break;
 3063              		.loc 1 1106 7
 3064 023e 6EE0     		b	.L227
 3065              	.L224:
1107:Drivers/STM32L4xx_HAL_Driver/Src/stm32l4xx_hal_tim.c ****     }
1108:Drivers/STM32L4xx_HAL_Driver/Src/stm32l4xx_hal_tim.c **** 
1109:Drivers/STM32L4xx_HAL_Driver/Src/stm32l4xx_hal_tim.c ****     case TIM_CHANNEL_2:
1110:Drivers/STM32L4xx_HAL_Driver/Src/stm32l4xx_hal_tim.c ****     {
1111:Drivers/STM32L4xx_HAL_Driver/Src/stm32l4xx_hal_tim.c ****       /* Set the DMA compare callbacks */
1112:Drivers/STM32L4xx_HAL_Driver/Src/stm32l4xx_hal_tim.c ****       htim->hdma[TIM_DMA_ID_CC2]->XferCpltCallback = TIM_DMADelayPulseCplt;
 3066              		.loc 1 1112 17
 3067 0240 FB68     		ldr	r3, [r7, #12]
 3068 0242 9B6A     		ldr	r3, [r3, #40]
 3069              		.loc 1 1112 52
 3070 0244 724A     		ldr	r2, .L240
 3071 0246 DA62     		str	r2, [r3, #44]
1113:Drivers/STM32L4xx_HAL_Driver/Src/stm32l4xx_hal_tim.c ****       htim->hdma[TIM_DMA_ID_CC2]->XferHalfCpltCallback = TIM_DMADelayPulseHalfCplt;
 3072              		.loc 1 1113 17
 3073 0248 FB68     		ldr	r3, [r7, #12]
 3074 024a 9B6A     		ldr	r3, [r3, #40]
ARM GAS  C:\Users\ep_ygh\AppData\Local\Temp\ccFTC33n.s 			page 74


 3075              		.loc 1 1113 56
 3076 024c 714A     		ldr	r2, .L240+4
 3077 024e 1A63     		str	r2, [r3, #48]
1114:Drivers/STM32L4xx_HAL_Driver/Src/stm32l4xx_hal_tim.c **** 
1115:Drivers/STM32L4xx_HAL_Driver/Src/stm32l4xx_hal_tim.c ****       /* Set the DMA error callback */
1116:Drivers/STM32L4xx_HAL_Driver/Src/stm32l4xx_hal_tim.c ****       htim->hdma[TIM_DMA_ID_CC2]->XferErrorCallback = TIM_DMAError ;
 3078              		.loc 1 1116 17
 3079 0250 FB68     		ldr	r3, [r7, #12]
 3080 0252 9B6A     		ldr	r3, [r3, #40]
 3081              		.loc 1 1116 53
 3082 0254 704A     		ldr	r2, .L240+8
 3083 0256 5A63     		str	r2, [r3, #52]
1117:Drivers/STM32L4xx_HAL_Driver/Src/stm32l4xx_hal_tim.c **** 
1118:Drivers/STM32L4xx_HAL_Driver/Src/stm32l4xx_hal_tim.c ****       /* Enable the DMA channel */
1119:Drivers/STM32L4xx_HAL_Driver/Src/stm32l4xx_hal_tim.c ****       if (HAL_DMA_Start_IT(htim->hdma[TIM_DMA_ID_CC2], (uint32_t)pData, (uint32_t)&htim->Instance->
 3084              		.loc 1 1119 11
 3085 0258 FB68     		ldr	r3, [r7, #12]
 3086 025a 986A     		ldr	r0, [r3, #40]
 3087 025c 7968     		ldr	r1, [r7, #4]
 3088              		.loc 1 1119 88
 3089 025e FB68     		ldr	r3, [r7, #12]
 3090 0260 1B68     		ldr	r3, [r3]
 3091              		.loc 1 1119 83
 3092 0262 3833     		adds	r3, r3, #56
 3093              		.loc 1 1119 11
 3094 0264 1A46     		mov	r2, r3
 3095 0266 7B88     		ldrh	r3, [r7, #2]
 3096 0268 FFF7FEFF 		bl	HAL_DMA_Start_IT
 3097 026c 0346     		mov	r3, r0
 3098              		.loc 1 1119 10
 3099 026e 002B     		cmp	r3, #0
 3100 0270 01D0     		beq	.L228
1120:Drivers/STM32L4xx_HAL_Driver/Src/stm32l4xx_hal_tim.c ****                            Length) != HAL_OK)
1121:Drivers/STM32L4xx_HAL_Driver/Src/stm32l4xx_hal_tim.c ****       {
1122:Drivers/STM32L4xx_HAL_Driver/Src/stm32l4xx_hal_tim.c ****         /* Return error status */
1123:Drivers/STM32L4xx_HAL_Driver/Src/stm32l4xx_hal_tim.c ****         return HAL_ERROR;
 3101              		.loc 1 1123 16
 3102 0272 0123     		movs	r3, #1
 3103 0274 C7E0     		b	.L196
 3104              	.L228:
1124:Drivers/STM32L4xx_HAL_Driver/Src/stm32l4xx_hal_tim.c ****       }
1125:Drivers/STM32L4xx_HAL_Driver/Src/stm32l4xx_hal_tim.c **** 
1126:Drivers/STM32L4xx_HAL_Driver/Src/stm32l4xx_hal_tim.c ****       /* Enable the TIM Capture/Compare 2 DMA request */
1127:Drivers/STM32L4xx_HAL_Driver/Src/stm32l4xx_hal_tim.c ****       __HAL_TIM_ENABLE_DMA(htim, TIM_DMA_CC2);
 3105              		.loc 1 1127 7
 3106 0276 FB68     		ldr	r3, [r7, #12]
 3107 0278 1B68     		ldr	r3, [r3]
 3108 027a DA68     		ldr	r2, [r3, #12]
 3109 027c FB68     		ldr	r3, [r7, #12]
 3110 027e 1B68     		ldr	r3, [r3]
 3111 0280 42F48062 		orr	r2, r2, #1024
 3112 0284 DA60     		str	r2, [r3, #12]
1128:Drivers/STM32L4xx_HAL_Driver/Src/stm32l4xx_hal_tim.c ****       break;
 3113              		.loc 1 1128 7
 3114 0286 4AE0     		b	.L227
 3115              	.L223:
1129:Drivers/STM32L4xx_HAL_Driver/Src/stm32l4xx_hal_tim.c ****     }
ARM GAS  C:\Users\ep_ygh\AppData\Local\Temp\ccFTC33n.s 			page 75


1130:Drivers/STM32L4xx_HAL_Driver/Src/stm32l4xx_hal_tim.c **** 
1131:Drivers/STM32L4xx_HAL_Driver/Src/stm32l4xx_hal_tim.c ****     case TIM_CHANNEL_3:
1132:Drivers/STM32L4xx_HAL_Driver/Src/stm32l4xx_hal_tim.c ****     {
1133:Drivers/STM32L4xx_HAL_Driver/Src/stm32l4xx_hal_tim.c ****       /* Set the DMA compare callbacks */
1134:Drivers/STM32L4xx_HAL_Driver/Src/stm32l4xx_hal_tim.c ****       htim->hdma[TIM_DMA_ID_CC3]->XferCpltCallback = TIM_DMADelayPulseCplt;
 3116              		.loc 1 1134 17
 3117 0288 FB68     		ldr	r3, [r7, #12]
 3118 028a DB6A     		ldr	r3, [r3, #44]
 3119              		.loc 1 1134 52
 3120 028c 604A     		ldr	r2, .L240
 3121 028e DA62     		str	r2, [r3, #44]
1135:Drivers/STM32L4xx_HAL_Driver/Src/stm32l4xx_hal_tim.c ****       htim->hdma[TIM_DMA_ID_CC3]->XferHalfCpltCallback = TIM_DMADelayPulseHalfCplt;
 3122              		.loc 1 1135 17
 3123 0290 FB68     		ldr	r3, [r7, #12]
 3124 0292 DB6A     		ldr	r3, [r3, #44]
 3125              		.loc 1 1135 56
 3126 0294 5F4A     		ldr	r2, .L240+4
 3127 0296 1A63     		str	r2, [r3, #48]
1136:Drivers/STM32L4xx_HAL_Driver/Src/stm32l4xx_hal_tim.c **** 
1137:Drivers/STM32L4xx_HAL_Driver/Src/stm32l4xx_hal_tim.c ****       /* Set the DMA error callback */
1138:Drivers/STM32L4xx_HAL_Driver/Src/stm32l4xx_hal_tim.c ****       htim->hdma[TIM_DMA_ID_CC3]->XferErrorCallback = TIM_DMAError ;
 3128              		.loc 1 1138 17
 3129 0298 FB68     		ldr	r3, [r7, #12]
 3130 029a DB6A     		ldr	r3, [r3, #44]
 3131              		.loc 1 1138 53
 3132 029c 5E4A     		ldr	r2, .L240+8
 3133 029e 5A63     		str	r2, [r3, #52]
1139:Drivers/STM32L4xx_HAL_Driver/Src/stm32l4xx_hal_tim.c **** 
1140:Drivers/STM32L4xx_HAL_Driver/Src/stm32l4xx_hal_tim.c ****       /* Enable the DMA channel */
1141:Drivers/STM32L4xx_HAL_Driver/Src/stm32l4xx_hal_tim.c ****       if (HAL_DMA_Start_IT(htim->hdma[TIM_DMA_ID_CC3], (uint32_t)pData, (uint32_t)&htim->Instance->
 3134              		.loc 1 1141 11
 3135 02a0 FB68     		ldr	r3, [r7, #12]
 3136 02a2 D86A     		ldr	r0, [r3, #44]
 3137 02a4 7968     		ldr	r1, [r7, #4]
 3138              		.loc 1 1141 88
 3139 02a6 FB68     		ldr	r3, [r7, #12]
 3140 02a8 1B68     		ldr	r3, [r3]
 3141              		.loc 1 1141 83
 3142 02aa 3C33     		adds	r3, r3, #60
 3143              		.loc 1 1141 11
 3144 02ac 1A46     		mov	r2, r3
 3145 02ae 7B88     		ldrh	r3, [r7, #2]
 3146 02b0 FFF7FEFF 		bl	HAL_DMA_Start_IT
 3147 02b4 0346     		mov	r3, r0
 3148              		.loc 1 1141 10
 3149 02b6 002B     		cmp	r3, #0
 3150 02b8 01D0     		beq	.L229
1142:Drivers/STM32L4xx_HAL_Driver/Src/stm32l4xx_hal_tim.c ****                            Length) != HAL_OK)
1143:Drivers/STM32L4xx_HAL_Driver/Src/stm32l4xx_hal_tim.c ****       {
1144:Drivers/STM32L4xx_HAL_Driver/Src/stm32l4xx_hal_tim.c ****         /* Return error status */
1145:Drivers/STM32L4xx_HAL_Driver/Src/stm32l4xx_hal_tim.c ****         return HAL_ERROR;
 3151              		.loc 1 1145 16
 3152 02ba 0123     		movs	r3, #1
 3153 02bc A3E0     		b	.L196
 3154              	.L229:
1146:Drivers/STM32L4xx_HAL_Driver/Src/stm32l4xx_hal_tim.c ****       }
1147:Drivers/STM32L4xx_HAL_Driver/Src/stm32l4xx_hal_tim.c ****       /* Enable the TIM Capture/Compare 3 DMA request */
ARM GAS  C:\Users\ep_ygh\AppData\Local\Temp\ccFTC33n.s 			page 76


1148:Drivers/STM32L4xx_HAL_Driver/Src/stm32l4xx_hal_tim.c ****       __HAL_TIM_ENABLE_DMA(htim, TIM_DMA_CC3);
 3155              		.loc 1 1148 7
 3156 02be FB68     		ldr	r3, [r7, #12]
 3157 02c0 1B68     		ldr	r3, [r3]
 3158 02c2 DA68     		ldr	r2, [r3, #12]
 3159 02c4 FB68     		ldr	r3, [r7, #12]
 3160 02c6 1B68     		ldr	r3, [r3]
 3161 02c8 42F40062 		orr	r2, r2, #2048
 3162 02cc DA60     		str	r2, [r3, #12]
1149:Drivers/STM32L4xx_HAL_Driver/Src/stm32l4xx_hal_tim.c ****       break;
 3163              		.loc 1 1149 7
 3164 02ce 26E0     		b	.L227
 3165              	.L221:
1150:Drivers/STM32L4xx_HAL_Driver/Src/stm32l4xx_hal_tim.c ****     }
1151:Drivers/STM32L4xx_HAL_Driver/Src/stm32l4xx_hal_tim.c **** 
1152:Drivers/STM32L4xx_HAL_Driver/Src/stm32l4xx_hal_tim.c ****     case TIM_CHANNEL_4:
1153:Drivers/STM32L4xx_HAL_Driver/Src/stm32l4xx_hal_tim.c ****     {
1154:Drivers/STM32L4xx_HAL_Driver/Src/stm32l4xx_hal_tim.c ****       /* Set the DMA compare callbacks */
1155:Drivers/STM32L4xx_HAL_Driver/Src/stm32l4xx_hal_tim.c ****       htim->hdma[TIM_DMA_ID_CC4]->XferCpltCallback = TIM_DMADelayPulseCplt;
 3166              		.loc 1 1155 17
 3167 02d0 FB68     		ldr	r3, [r7, #12]
 3168 02d2 1B6B     		ldr	r3, [r3, #48]
 3169              		.loc 1 1155 52
 3170 02d4 4E4A     		ldr	r2, .L240
 3171 02d6 DA62     		str	r2, [r3, #44]
1156:Drivers/STM32L4xx_HAL_Driver/Src/stm32l4xx_hal_tim.c ****       htim->hdma[TIM_DMA_ID_CC4]->XferHalfCpltCallback = TIM_DMADelayPulseHalfCplt;
 3172              		.loc 1 1156 17
 3173 02d8 FB68     		ldr	r3, [r7, #12]
 3174 02da 1B6B     		ldr	r3, [r3, #48]
 3175              		.loc 1 1156 56
 3176 02dc 4D4A     		ldr	r2, .L240+4
 3177 02de 1A63     		str	r2, [r3, #48]
1157:Drivers/STM32L4xx_HAL_Driver/Src/stm32l4xx_hal_tim.c **** 
1158:Drivers/STM32L4xx_HAL_Driver/Src/stm32l4xx_hal_tim.c ****       /* Set the DMA error callback */
1159:Drivers/STM32L4xx_HAL_Driver/Src/stm32l4xx_hal_tim.c ****       htim->hdma[TIM_DMA_ID_CC4]->XferErrorCallback = TIM_DMAError ;
 3178              		.loc 1 1159 17
 3179 02e0 FB68     		ldr	r3, [r7, #12]
 3180 02e2 1B6B     		ldr	r3, [r3, #48]
 3181              		.loc 1 1159 53
 3182 02e4 4C4A     		ldr	r2, .L240+8
 3183 02e6 5A63     		str	r2, [r3, #52]
1160:Drivers/STM32L4xx_HAL_Driver/Src/stm32l4xx_hal_tim.c **** 
1161:Drivers/STM32L4xx_HAL_Driver/Src/stm32l4xx_hal_tim.c ****       /* Enable the DMA channel */
1162:Drivers/STM32L4xx_HAL_Driver/Src/stm32l4xx_hal_tim.c ****       if (HAL_DMA_Start_IT(htim->hdma[TIM_DMA_ID_CC4], (uint32_t)pData, (uint32_t)&htim->Instance->
 3184              		.loc 1 1162 11
 3185 02e8 FB68     		ldr	r3, [r7, #12]
 3186 02ea 186B     		ldr	r0, [r3, #48]
 3187 02ec 7968     		ldr	r1, [r7, #4]
 3188              		.loc 1 1162 88
 3189 02ee FB68     		ldr	r3, [r7, #12]
 3190 02f0 1B68     		ldr	r3, [r3]
 3191              		.loc 1 1162 83
 3192 02f2 4033     		adds	r3, r3, #64
 3193              		.loc 1 1162 11
 3194 02f4 1A46     		mov	r2, r3
 3195 02f6 7B88     		ldrh	r3, [r7, #2]
 3196 02f8 FFF7FEFF 		bl	HAL_DMA_Start_IT
ARM GAS  C:\Users\ep_ygh\AppData\Local\Temp\ccFTC33n.s 			page 77


 3197 02fc 0346     		mov	r3, r0
 3198              		.loc 1 1162 10
 3199 02fe 002B     		cmp	r3, #0
 3200 0300 01D0     		beq	.L230
1163:Drivers/STM32L4xx_HAL_Driver/Src/stm32l4xx_hal_tim.c ****                            Length) != HAL_OK)
1164:Drivers/STM32L4xx_HAL_Driver/Src/stm32l4xx_hal_tim.c ****       {
1165:Drivers/STM32L4xx_HAL_Driver/Src/stm32l4xx_hal_tim.c ****         /* Return error status */
1166:Drivers/STM32L4xx_HAL_Driver/Src/stm32l4xx_hal_tim.c ****         return HAL_ERROR;
 3201              		.loc 1 1166 16
 3202 0302 0123     		movs	r3, #1
 3203 0304 7FE0     		b	.L196
 3204              	.L230:
1167:Drivers/STM32L4xx_HAL_Driver/Src/stm32l4xx_hal_tim.c ****       }
1168:Drivers/STM32L4xx_HAL_Driver/Src/stm32l4xx_hal_tim.c ****       /* Enable the TIM Capture/Compare 4 DMA request */
1169:Drivers/STM32L4xx_HAL_Driver/Src/stm32l4xx_hal_tim.c ****       __HAL_TIM_ENABLE_DMA(htim, TIM_DMA_CC4);
 3205              		.loc 1 1169 7
 3206 0306 FB68     		ldr	r3, [r7, #12]
 3207 0308 1B68     		ldr	r3, [r3]
 3208 030a DA68     		ldr	r2, [r3, #12]
 3209 030c FB68     		ldr	r3, [r7, #12]
 3210 030e 1B68     		ldr	r3, [r3]
 3211 0310 42F48052 		orr	r2, r2, #4096
 3212 0314 DA60     		str	r2, [r3, #12]
1170:Drivers/STM32L4xx_HAL_Driver/Src/stm32l4xx_hal_tim.c ****       break;
 3213              		.loc 1 1170 7
 3214 0316 02E0     		b	.L227
 3215              	.L220:
1171:Drivers/STM32L4xx_HAL_Driver/Src/stm32l4xx_hal_tim.c ****     }
1172:Drivers/STM32L4xx_HAL_Driver/Src/stm32l4xx_hal_tim.c **** 
1173:Drivers/STM32L4xx_HAL_Driver/Src/stm32l4xx_hal_tim.c ****     default:
1174:Drivers/STM32L4xx_HAL_Driver/Src/stm32l4xx_hal_tim.c ****       status = HAL_ERROR;
 3216              		.loc 1 1174 14
 3217 0318 0123     		movs	r3, #1
 3218 031a FB75     		strb	r3, [r7, #23]
1175:Drivers/STM32L4xx_HAL_Driver/Src/stm32l4xx_hal_tim.c ****       break;
 3219              		.loc 1 1175 7
 3220 031c 00BF     		nop
 3221              	.L227:
1176:Drivers/STM32L4xx_HAL_Driver/Src/stm32l4xx_hal_tim.c ****   }
1177:Drivers/STM32L4xx_HAL_Driver/Src/stm32l4xx_hal_tim.c **** 
1178:Drivers/STM32L4xx_HAL_Driver/Src/stm32l4xx_hal_tim.c ****   if (status == HAL_OK)
 3222              		.loc 1 1178 6
 3223 031e FB7D     		ldrb	r3, [r7, #23]	@ zero_extendqisi2
 3224 0320 002B     		cmp	r3, #0
 3225 0322 6FD1     		bne	.L231
1179:Drivers/STM32L4xx_HAL_Driver/Src/stm32l4xx_hal_tim.c ****   {
1180:Drivers/STM32L4xx_HAL_Driver/Src/stm32l4xx_hal_tim.c ****     /* Enable the Output compare channel */
1181:Drivers/STM32L4xx_HAL_Driver/Src/stm32l4xx_hal_tim.c ****     TIM_CCxChannelCmd(htim->Instance, Channel, TIM_CCx_ENABLE);
 3226              		.loc 1 1181 5
 3227 0324 FB68     		ldr	r3, [r7, #12]
 3228 0326 1B68     		ldr	r3, [r3]
 3229 0328 0122     		movs	r2, #1
 3230 032a B968     		ldr	r1, [r7, #8]
 3231 032c 1846     		mov	r0, r3
 3232 032e FFF7FEFF 		bl	TIM_CCxChannelCmd
1182:Drivers/STM32L4xx_HAL_Driver/Src/stm32l4xx_hal_tim.c **** 
1183:Drivers/STM32L4xx_HAL_Driver/Src/stm32l4xx_hal_tim.c ****     if (IS_TIM_BREAK_INSTANCE(htim->Instance) != RESET)
ARM GAS  C:\Users\ep_ygh\AppData\Local\Temp\ccFTC33n.s 			page 78


 3233              		.loc 1 1183 9
 3234 0332 FB68     		ldr	r3, [r7, #12]
 3235 0334 1B68     		ldr	r3, [r3]
 3236 0336 394A     		ldr	r2, .L240+12
 3237 0338 9342     		cmp	r3, r2
 3238 033a 13D0     		beq	.L232
 3239              		.loc 1 1183 9 is_stmt 0 discriminator 2
 3240 033c FB68     		ldr	r3, [r7, #12]
 3241 033e 1B68     		ldr	r3, [r3]
 3242 0340 374A     		ldr	r2, .L240+16
 3243 0342 9342     		cmp	r3, r2
 3244 0344 0ED0     		beq	.L232
 3245              		.loc 1 1183 9 discriminator 4
 3246 0346 FB68     		ldr	r3, [r7, #12]
 3247 0348 1B68     		ldr	r3, [r3]
 3248 034a 364A     		ldr	r2, .L240+20
 3249 034c 9342     		cmp	r3, r2
 3250 034e 09D0     		beq	.L232
 3251              		.loc 1 1183 9 discriminator 6
 3252 0350 FB68     		ldr	r3, [r7, #12]
 3253 0352 1B68     		ldr	r3, [r3]
 3254 0354 344A     		ldr	r2, .L240+24
 3255 0356 9342     		cmp	r3, r2
 3256 0358 04D0     		beq	.L232
 3257              		.loc 1 1183 9 discriminator 8
 3258 035a FB68     		ldr	r3, [r7, #12]
 3259 035c 1B68     		ldr	r3, [r3]
 3260 035e 334A     		ldr	r2, .L240+28
 3261 0360 9342     		cmp	r3, r2
 3262 0362 01D1     		bne	.L233
 3263              	.L232:
 3264              		.loc 1 1183 9 discriminator 9
 3265 0364 0123     		movs	r3, #1
 3266 0366 00E0     		b	.L234
 3267              	.L233:
 3268              		.loc 1 1183 9 discriminator 10
 3269 0368 0023     		movs	r3, #0
 3270              	.L234:
 3271              		.loc 1 1183 8 is_stmt 1 discriminator 12
 3272 036a 002B     		cmp	r3, #0
 3273 036c 07D0     		beq	.L235
1184:Drivers/STM32L4xx_HAL_Driver/Src/stm32l4xx_hal_tim.c ****     {
1185:Drivers/STM32L4xx_HAL_Driver/Src/stm32l4xx_hal_tim.c ****       /* Enable the main output */
1186:Drivers/STM32L4xx_HAL_Driver/Src/stm32l4xx_hal_tim.c ****       __HAL_TIM_MOE_ENABLE(htim);
 3274              		.loc 1 1186 7
 3275 036e FB68     		ldr	r3, [r7, #12]
 3276 0370 1B68     		ldr	r3, [r3]
 3277 0372 5A6C     		ldr	r2, [r3, #68]
 3278 0374 FB68     		ldr	r3, [r7, #12]
 3279 0376 1B68     		ldr	r3, [r3]
 3280 0378 42F40042 		orr	r2, r2, #32768
 3281 037c 5A64     		str	r2, [r3, #68]
 3282              	.L235:
1187:Drivers/STM32L4xx_HAL_Driver/Src/stm32l4xx_hal_tim.c ****     }
1188:Drivers/STM32L4xx_HAL_Driver/Src/stm32l4xx_hal_tim.c **** 
1189:Drivers/STM32L4xx_HAL_Driver/Src/stm32l4xx_hal_tim.c ****     /* Enable the Peripheral, except in trigger mode where enable is automatically done with trigge
1190:Drivers/STM32L4xx_HAL_Driver/Src/stm32l4xx_hal_tim.c ****     if (IS_TIM_SLAVE_INSTANCE(htim->Instance))
ARM GAS  C:\Users\ep_ygh\AppData\Local\Temp\ccFTC33n.s 			page 79


 3283              		.loc 1 1190 9
 3284 037e FB68     		ldr	r3, [r7, #12]
 3285 0380 1B68     		ldr	r3, [r3]
 3286              		.loc 1 1190 8
 3287 0382 264A     		ldr	r2, .L240+12
 3288 0384 9342     		cmp	r3, r2
 3289 0386 1DD0     		beq	.L236
 3290              		.loc 1 1190 9 discriminator 1
 3291 0388 FB68     		ldr	r3, [r7, #12]
 3292 038a 1B68     		ldr	r3, [r3]
 3293 038c B3F1804F 		cmp	r3, #1073741824
 3294 0390 18D0     		beq	.L236
 3295              		.loc 1 1190 9 is_stmt 0 discriminator 2
 3296 0392 FB68     		ldr	r3, [r7, #12]
 3297 0394 1B68     		ldr	r3, [r3]
 3298 0396 264A     		ldr	r2, .L240+32
 3299 0398 9342     		cmp	r3, r2
 3300 039a 13D0     		beq	.L236
 3301              		.loc 1 1190 9 discriminator 3
 3302 039c FB68     		ldr	r3, [r7, #12]
 3303 039e 1B68     		ldr	r3, [r3]
 3304 03a0 244A     		ldr	r2, .L240+36
 3305 03a2 9342     		cmp	r3, r2
 3306 03a4 0ED0     		beq	.L236
 3307              		.loc 1 1190 9 discriminator 4
 3308 03a6 FB68     		ldr	r3, [r7, #12]
 3309 03a8 1B68     		ldr	r3, [r3]
 3310 03aa 234A     		ldr	r2, .L240+40
 3311 03ac 9342     		cmp	r3, r2
 3312 03ae 09D0     		beq	.L236
 3313              		.loc 1 1190 9 discriminator 5
 3314 03b0 FB68     		ldr	r3, [r7, #12]
 3315 03b2 1B68     		ldr	r3, [r3]
 3316 03b4 1A4A     		ldr	r2, .L240+16
 3317 03b6 9342     		cmp	r3, r2
 3318 03b8 04D0     		beq	.L236
 3319              		.loc 1 1190 9 discriminator 6
 3320 03ba FB68     		ldr	r3, [r7, #12]
 3321 03bc 1B68     		ldr	r3, [r3]
 3322 03be 194A     		ldr	r2, .L240+20
 3323 03c0 9342     		cmp	r3, r2
 3324 03c2 15D1     		bne	.L237
 3325              	.L236:
1191:Drivers/STM32L4xx_HAL_Driver/Src/stm32l4xx_hal_tim.c ****     {
1192:Drivers/STM32L4xx_HAL_Driver/Src/stm32l4xx_hal_tim.c ****       tmpsmcr = htim->Instance->SMCR & TIM_SMCR_SMS;
 3326              		.loc 1 1192 21 is_stmt 1
 3327 03c4 FB68     		ldr	r3, [r7, #12]
 3328 03c6 1B68     		ldr	r3, [r3]
 3329              		.loc 1 1192 31
 3330 03c8 9A68     		ldr	r2, [r3, #8]
 3331              		.loc 1 1192 15
 3332 03ca 1C4B     		ldr	r3, .L240+44
 3333 03cc 1340     		ands	r3, r3, r2
 3334 03ce 3B61     		str	r3, [r7, #16]
1193:Drivers/STM32L4xx_HAL_Driver/Src/stm32l4xx_hal_tim.c ****       if (!IS_TIM_SLAVEMODE_TRIGGER_ENABLED(tmpsmcr))
 3335              		.loc 1 1193 10
 3336 03d0 3B69     		ldr	r3, [r7, #16]
ARM GAS  C:\Users\ep_ygh\AppData\Local\Temp\ccFTC33n.s 			page 80


 3337 03d2 062B     		cmp	r3, #6
 3338 03d4 15D0     		beq	.L239
 3339              		.loc 1 1193 11 discriminator 1
 3340 03d6 3B69     		ldr	r3, [r7, #16]
 3341 03d8 B3F5803F 		cmp	r3, #65536
 3342 03dc 11D0     		beq	.L239
1194:Drivers/STM32L4xx_HAL_Driver/Src/stm32l4xx_hal_tim.c ****       {
1195:Drivers/STM32L4xx_HAL_Driver/Src/stm32l4xx_hal_tim.c ****         __HAL_TIM_ENABLE(htim);
 3343              		.loc 1 1195 9
 3344 03de FB68     		ldr	r3, [r7, #12]
 3345 03e0 1B68     		ldr	r3, [r3]
 3346 03e2 1A68     		ldr	r2, [r3]
 3347 03e4 FB68     		ldr	r3, [r7, #12]
 3348 03e6 1B68     		ldr	r3, [r3]
 3349 03e8 42F00102 		orr	r2, r2, #1
 3350 03ec 1A60     		str	r2, [r3]
1193:Drivers/STM32L4xx_HAL_Driver/Src/stm32l4xx_hal_tim.c ****       if (!IS_TIM_SLAVEMODE_TRIGGER_ENABLED(tmpsmcr))
 3351              		.loc 1 1193 10
 3352 03ee 08E0     		b	.L239
 3353              	.L237:
1196:Drivers/STM32L4xx_HAL_Driver/Src/stm32l4xx_hal_tim.c ****       }
1197:Drivers/STM32L4xx_HAL_Driver/Src/stm32l4xx_hal_tim.c ****     }
1198:Drivers/STM32L4xx_HAL_Driver/Src/stm32l4xx_hal_tim.c ****     else
1199:Drivers/STM32L4xx_HAL_Driver/Src/stm32l4xx_hal_tim.c ****     {
1200:Drivers/STM32L4xx_HAL_Driver/Src/stm32l4xx_hal_tim.c ****       __HAL_TIM_ENABLE(htim);
 3354              		.loc 1 1200 7
 3355 03f0 FB68     		ldr	r3, [r7, #12]
 3356 03f2 1B68     		ldr	r3, [r3]
 3357 03f4 1A68     		ldr	r2, [r3]
 3358 03f6 FB68     		ldr	r3, [r7, #12]
 3359 03f8 1B68     		ldr	r3, [r3]
 3360 03fa 42F00102 		orr	r2, r2, #1
 3361 03fe 1A60     		str	r2, [r3]
 3362 0400 00E0     		b	.L231
 3363              	.L239:
1193:Drivers/STM32L4xx_HAL_Driver/Src/stm32l4xx_hal_tim.c ****       {
 3364              		.loc 1 1193 10
 3365 0402 00BF     		nop
 3366              	.L231:
1201:Drivers/STM32L4xx_HAL_Driver/Src/stm32l4xx_hal_tim.c ****     }
1202:Drivers/STM32L4xx_HAL_Driver/Src/stm32l4xx_hal_tim.c ****   }
1203:Drivers/STM32L4xx_HAL_Driver/Src/stm32l4xx_hal_tim.c **** 
1204:Drivers/STM32L4xx_HAL_Driver/Src/stm32l4xx_hal_tim.c ****   /* Return function status */
1205:Drivers/STM32L4xx_HAL_Driver/Src/stm32l4xx_hal_tim.c ****   return status;
 3367              		.loc 1 1205 10
 3368 0404 FB7D     		ldrb	r3, [r7, #23]	@ zero_extendqisi2
 3369              	.L196:
1206:Drivers/STM32L4xx_HAL_Driver/Src/stm32l4xx_hal_tim.c **** }
 3370              		.loc 1 1206 1
 3371 0406 1846     		mov	r0, r3
 3372 0408 1837     		adds	r7, r7, #24
 3373              	.LCFI101:
 3374              		.cfi_def_cfa_offset 8
